ccopy_reg
_reconstructor
p0
(cnetworkx.classes.graph
Graph
p1
c__builtin__
object
p2
Ntp3
Rp4
(dp5
S'node'
p6
(dp7
S'assemblage-622-813'
p8
(dp9
S'name'
p10
g8
ssS'assemblage-597-375'
p11
(dp12
g10
g11
ssS'assemblage-206-404'
p13
(dp14
g10
g13
ssS'assemblage-552-931'
p15
(dp16
g10
g15
ssS'assemblage-762-192'
p17
(dp18
g10
g17
ssS'assemblage-386-616'
p19
(dp20
g10
g19
ssS'assemblage-427-368'
p21
(dp22
g10
g21
ssS'assemblage-602-364'
p23
(dp24
g10
g23
ssS'assemblage-806-473'
p25
(dp26
g10
g25
ssS'assemblage-555-968'
p27
(dp28
g10
g27
ssS'assemblage-824-497'
p29
(dp30
g10
g29
ssS'assemblage-423-385'
p31
(dp32
g10
g31
ssS'assemblage-748-616'
p33
(dp34
g10
g33
ssS'assemblage-222-397'
p35
(dp36
g10
g35
ssS'assemblage-420-380'
p37
(dp38
g10
g37
ssS'assemblage-766-207'
p39
(dp40
g10
g39
ssS'assemblage-640-811'
p41
(dp42
g10
g41
ssS'assemblage-553-938'
p43
(dp44
g10
g43
ssS'assemblage-846-466'
p45
(dp46
g10
g45
ssS'assemblage-786-609'
p47
(dp48
g10
g47
sssS'graph'
p49
(dp50
S'is_directed'
p51
I00
ssS'edge'
p52
(dp53
g8
(dp54
g11
(dp55
S'weight'
p56
S'MDMMUMMMMMMMMMMMMMMDMMMMMMMMMMMMMMDMMMMMMMMUMMUMMMMMMMMUMMMUUMMMMMMMMMMMMMMMMMMMMUUUMMMMMMMMMUMMMMMMMMMMMMMMMMUMMMUUMMDMMMU'
p57
ssg39
(dp58
g56
S'MDMMMMMMUMMUMMMUMMMDMMMMMMMMMMMMMMDMMMMMMMMMMMUMMMMMMMMMMMMUMMMMMMMMMMMMMMMMMMMMMMMUMMMMMMMMMDUMMMMMMMMMMMMMUMUMMMUMMMDMMMD'
p59
ssg13
(dp60
g56
S'MDMMMMMMUMMMMMMMMMMDMMMMMMMMMMMMMMDMMMMUMMMMMMMMUMMMMMMMMMMMMMMMMMMMMMMMMMMMMMMMMMMMMMMUMMMMMUMMMMMMMMMMMMMMMMDMMMMMMMDMMMD'
p61
ssg15
(dp62
g56
S'MDMMMMMMUMMMMMMMUMMDMMMMMMMMMMMMMMDMMMMMMMMMMMUMMMMMMMMMMMMMMMMMMMMMMMMMMMMMMMMMMMMUMMMMMMMMUDMMMMMMMMMMMMMMMMUMMMMMMMDMMMD'
p63
ssg17
(dp64
g56
S'MDMMMMMUUMMMMMMMMMMDMMMMMMMMMMMMMMDUMMMMMMMMMMMMMMMMMMMMMMMUMMMMMMMMMMMMMMMMMMMMMMMUMMMMMMMMMUMMMMMMMMMMMMMMUMDMMMUMMMDMMMD'
p65
ssg19
(dp66
g56
S'MDMMUMMMMMMMMMMMMMMDMMUMMUMMMMMMMMDMMMMMMMMMMMMMMMMMMMMMMMMUMMMMMMMMMMMMMMMMMMMMMMMMMMMMMMMMMDMMMMMMMMMMMMMMMMDMMMMMMMDMMMD'
p67
ssg21
(dp68
g56
S'MDMMMMMMUMMMMMMMMMMDMMMMMMMMMMMMMMDMMMMMMMMMMMMUMMMMUMUMMMMUMMMMMMMMMMMMMMMMMMMMMMMUMMMMMMMMMUMMMMMMMMMMMMMMUMUMMMMMMMDMMMD'
p69
ssg23
(dp70
g56
S'MDMMMMMMMMMMMMMMMMMDMMMMMMMMMMMMMMDMMMMMMMMMMMUMMMMMMMMMMMMMMMMMMMMMMMMMMMMMMMMMMMMMMUUMMMMMMDMMMMMMMMMMMMMMMMUMMMMMMMDMMMD'
p71
ssg25
(dp72
g56
S'MDMMMMMMUMMUMMMUMMMDMMMMMMMMMMMMMMDMMMMMMMMMMMUMMMMMMMMMMMMMMMMMMMMMMMMMMMMMMMMMMMMUMMMMMMMMMDMMMMMMMMMMMMMMUMUMMMUMMMDMMMD'
p73
ssg27
(dp74
g56
S'MDMMMMMMUMMUMMMMMMMDMMMUMMMMMMMMMMDMMMMMMMMMMMUMMMUMMMMMMMMMMMMMMMMMMMMMMMMMMMMMMMMUMMMMMMMMMUMMMMMMMMMMMMUMMMDMMMMMMMDMMMD'
p75
ssg29
(dp76
g56
S'MDMMMMMMMMMMMUMMMMMDMMMMMMMMMMMMMMDMMMMMMMMMMMMMMMMMMMMUMMMMMMMMMMMMMMMMMMMMMMMMMMMMMMMMMMMMMUMMMMMMMMMMMMMMMMDMMMMMMMDMMMD'
p77
ssg31
(dp78
g56
S'MDMMUMMMUMMMMMMMMMMDMMMMMMMMMMMMMMDMMMMMMMMMMMMMMMMMMMMMMMMUMMMMMMMMMMMMMMMMMMMMMMMUMMMMMMMMMUMMMMMMMMMMMMMMUMUMMMMMMMDMMMD'
p79
ssg33
(dp80
g56
S'MDMMMMMMUMMMMMMMMMMDMMMMMMMMMMMMMMDMMMMMMMMMMMMMMMMMUMMMMMMUMMMMMMMMMMMMMMMMMMMMMUMUMMMMMMMMMUMMMMMMMMMMMMMMUMUMMMMMMMDMMMD'
p81
ssg35
(dp82
g56
S'MDMMMMMMUMMMMMMMMMMDMMMMMMMMMMMMMMUMMMMMMMMMMMMMUMMUMMMMMMMMMMMMMMMMMMMMMMMMMMMMMMMMMMMUMMMMMUMMMMMMMMMMMMMMMMDMMMMMMMDMMMD'
p83
ssg37
(dp84
g56
S'MDMMMMMMMMMMMMMMMMMDMMMMMMMMMMMMMMDMMMMMMMUUMMUMMMMMMMMMMMMMMMMMUMMMMMMMMMMMMMMMMMMUMMMMMMMMMUMMMMMMMMMMMMMMMMUMMMUMMMDMMMD'
p85
ssg41
(dp86
g56
S'MUMMMMUMUMMMMMMMMMMDUMMMMMMMMMMMMMMMMMMMMMMMMMMMUMMMMMMMMMMMMMMMMMMMMMMMMMMMMMMMMMMMMMMUMMMMMUMMMMMMMMMMMMMMMMDMMMMMMMDMMMD'
p87
ssg43
(dp88
g56
S'MDMMMMMMUMMMMMMMMMMDMMMMMMMMMMMMMMUMUMMMMMMMMMUMMMMMMMMMMMMMMMMMMMMMMMMMMMMMMMMMMMMMMMMMMMMMMUMMMMMMMMMMMMMMUMDMMMMMMMDMMMD'
p89
ssg45
(dp90
g56
S'MDMMMMMMUMMUMMMUMMMDMMMMMMMMMMMMMMDMMUMMMMMMMMUMMMMMMMMMMMMMMMMMMMMMMMMMMMMMMMMMMMMUMMMMMMMMMUUMMMMMMMMMMMMMUMUMMMUMMMDMMMD'
p91
ssg47
(dp92
g56
S'MDMMMMMMMMMMMMMMMMMDMMMMMMMMMMMMMMDMMMMMMMMMMMMMMMMMMMMMMMMMMMMMMMMMMMMMMMMMMMMMMMMMMMMMUMMMMUMMMMMMMMMMMMMMMMUMMMMMMMUUMMD'
p93
sssg11
(dp94
g8
g55
sg39
(dp95
g56
S'MMMMDMMMUMMUMMMUMMMDMMMMMMMMMMMMMMMMMMMMMMMDMMUMMMMMMMMDMMMDDMMMMMMMMMMMMMMMMMMMMDDUMMMMMMMMMDUMMMMMMMMMMMMMUMUMMMDDMMMMMMD'
p96
ssg13
(dp97
g56
S'MMMMDMMMUMMMMMMMMMMDMMMMMMMMMMMMMMUMMMMUMMMDMMDMUMMMMMMDMMMDDMMMMMMMMMMMMMMMMMMMMDDDMMMUMMMMMUMMMMMMMMMMMMMMMMDMMMDDMMMMMMD'
p98
ssg15
(dp99
g56
S'MMMMDMMMUMMMMMMMUMMDMMMMMMMMMMMMMMUMMMMMMMMDMMUMMMMMMMMDMMMDDMMMMMMMMMMMMMMMMMMMMDDUMMMMMMMMUDMMMMMMMMMMMMMMMMDMMMDDMMMMMMD'
p100
ssg17
(dp101
g56
S'MMMMDMMUUMMMMMMMMMMUMMMMMMMMMMMMMMMUMMMMMMMDMMDMMMMMMMMDMMMUDMMMMMMMMMMMMMMMMMMMMDDUMMMMMMMMMDMMMMMMMMMMMMMMUMDMMMMDMMMMMMD'
p102
ssg19
(dp103
g56
S'MMMMUMMMMMMMMMMMMMMUMMUMMUMMMMMMMMMMMMMMMMMDMMDMMMMMMMMDMMMUDMMMMMMMMMMMMMMMMMMMMDDDMMMMMMMMMDMMMMMMMMMMMMMMMMDMMMDDMMMMMMD'
p104
ssg21
(dp105
g56
S'MMMMDMMMUMMMMMMMMMMDMMMMMMMMMMMMMMMMMMMMMMMDMMDUMMMMUMUDMMMUDMMMMMMMMMMMMMMMMMMMMDDUMMMMMMMMMDMMMMMMMMMMMMMMUMMMMMDDMMMMMMD'
p106
ssg23
(dp107
g56
S'MMMMDMMMMMMMMMMMMMMDMMMMMMMMMMMMMMMMMMMMMMMDMMUMMMMMMMMDMMMDDMMMMMMMMMMMMMMMMMMMMDDDMUUMMMMMMDMMMMMMMMMMMMMMMMUMMMDDMMMMMMD'
p108
ssg25
(dp109
g56
S'MMMMDMMMUMMUMMMUMMMDMMMMMMMMMMMMMMMMMMMMMMMDMMUMMMMMMMMDMMMDDMMMMMMMMMMMMMMMMMMMMDDUMMMMMMMMMDMMMMMMMMMMMMMMUMDMMMUDMMMMMMD'
p110
ssg27
(dp111
g56
S'MUMMDMMMUMMUMMMMMMMUMMMUMMMMMMMMMMMMMMMMMMMDMMDMMMUMMMMDMMMDDMMMMMMMMMMMMMMMMMMMMDDUMMMMMMMMMUMMMMMMMMMMMMUMMMDMMMDDMMMMMMD'
p112
ssg29
(dp113
g56
S'MMMMDMMMMMMMMUMMMMMDMMMMMMMMMMMMMMMMMMMMMMMDMMDMMMMMMMMUMMMDDMMMMMMMMMMMMMMMMMMMMDDDMMMMMMMMMUMMMMMMMMMMMMMMMMDMMMDDMMMMMMD'
p114
ssg31
(dp115
g56
S'MMMMDMMMUMMMMMMMMMMDMMMMMMMMMMMMMMMMMMMMMMMDMMDMMMMMMMMDMMMUDMMMMMMMMMMMMMMMMMMMMDDUMMMMMMMMMDMMMMMMMMMMMMMMUMUMMMDDMMMMMMD'
p116
ssg33
(dp117
g56
S'MMMMDMMMUMMMMMMMMMMDMMMMMMMMMMMMMMMMMMMMMMMDMMDMMMMMUMMDMMMUDMMMMMMMMMMMMMMMMMMMMDDUMMMMMMMMMDMMMMMMMMMMMMMMUMDMMMDDMMMMMMD'
p118
ssg35
(dp119
g56
S'MMMMDMMMUMMMMMMMMMMDMMMMMMMMMMMMMMUMMMMMMMMDMMDMUMMUMMMDMMMDDMMMMMMMMMMMMMMMMMMMMDDDMMMUMMMMMDMMMMMMMMMMMMMMMMDMMMDDMMMMMMD'
p120
ssg37
(dp121
g56
S'MMMMDMMMMMMMMMMMMMMDMMMMMMMMMMMMMMMMMMMMMMUDMMDMMMMMMMMDMMMDDMMMUMMMMMMMMMMMMMMMMDDUMMMMMMMMMUMMMMMMMMMMMMMMMMDMMMUDMMMMMMD'
p122
ssg41
(dp123
g56
S'MUMMDMUMUMMMMMMMMMMDUMMMMMMMMMMMMMUMMMMMMMMDMMDMUMMMMMMDMMMDDMMMMMMMMMMMMMMMMMMMMDDDMMMUMMMMMDMMMMMMMMMMMMMMMMDMMMDDMMMMMMD'
p124
ssg43
(dp125
g56
S'MMMMDMMMUMMMMMMMMMMUMMMMMMMMMMMMMMUMUMMMMMMDMMDMMMMMMMMDMMMDDMMMMMMMMMMMMMMMMMMMMDDDMMMMMMMMMUMMMMMMMMMMMMMMUMDMMMDDMMMMMMD'
p126
ssg45
(dp127
g56
S'MMMMDMMMUMMUMMMUMMMDMMMMMMMMMMMMMMMMMUMMMMMDMMUMMMMMMMMDMMMDDMMMMMMMMMMMMMMMMMMMMDDUMMMMMMMMMDUMMMMMMMMMMMMMUMDMMMUDMMMMMMD'
p128
ssg47
(dp129
g56
S'MMMMDMMMMMMMMMMMMMMUMMMMMMMMMMMMMMUMMMMMMMMDMMDMMMMMMMMDMMMDDMMMMMMMMMMMMMMMMMMMMDDDMMMMUMMMMDMMMMMMMMMMMMMMMMDMMMDDMMUUMMD'
p130
sssg13
(dp131
g8
g60
sg11
g97
sg25
(dp132
g56
S'MMMMMMMMUMMUMMMUMMMDMMMMMMMMMMMMMMDMMMMDMMMMMMUMDMMMMMMMMMMMMMMMMMMMMMMMMMMMMMMMMMMUMMMDMMMMMDMMMMMMMMMMMMMMUMUMMMUMMMMMMMU'
p133
ssg15
(dp134
g56
S'MMMMMMMMUMMMMMMMUMMUMMMMMMMMMMMMMMDMMMMDMMMMMMUMDMMMMMMMMMMMMMMMMMMMMMMMMMMMMMMMMMMUMMMDMMMMUDMMMMMMMMMMMMMMMMUMMMMMMMMMMMU'
p135
ssg17
(dp136
g56
S'MMMMMMMUDMMMMMMMMMMUMMMMMMMMMMMMMMDUMMMDMMMMMMMMDMMMMMMMMMMUMMMMMMMMMMMMMMMMMMMMMMMUMMMDMMMMMDMMMMMMMMMMMMMMUMUMMMUMMMMMMMD'
p137
ssg19
(dp138
g56
S'MMMMUMMMDMMMMMMMMMMUMMUMMUMMMMMMMMDMMMMDMMMMMMMMDMMMMMMMMMMUMMMMMMMMMMMMMMMMMMMMMMMMMMMDMMMMMDMMMMMMMMMMMMMMMMMMMMMMMMMMMMD'
p139
ssg21
(dp140
g56
S'MMMMMMMMDMMMMMMMMMMUMMMMMMMMMMMMMMDMMMMDMMMMMMMUDMMMUMUMMMMUMMMMMMMMMMMMMMMMMMMMMMMUMMMDMMMMMDMMMMMMMMMMMMMMUMUMMMMMMMMMMMD'
p141
ssg23
(dp142
g56
S'MMMMMMMMDMMMMMMMMMMDMMMMMMMMMMMMMMDMMMMDMMMMMMUMDMMMMMMMMMMMMMMMMMMMMMMMMMMMMMMMMMMMMUUDMMMMMDMMMMMMMMMMMMMMMMUMMMMMMMMMMMM'
p143
ssg27
(dp144
g56
S'MUMMMMMMMMMUMMMMMMMUMMMUMMMMMMMMMMDMMMMDMMMMMMUMDMUMMMMMMMMMMMMMMMMMMMMMMMMMMMMMMMMUMMMDMMMMMUMMMMMMMMMMMMUMMMMMMMMMMMMMMMU'
p145
ssg29
(dp146
g56
S'MMMMMMMMDMMMMUMMMMMDMMMMMMMMMMMMMMDMMMMDMMMMMMMMDMMMMMMUMMMMMMMMMMMMMMMMMMMMMMMMMMMMMMMDMMMMMUMMMMMMMMMMMMMMMMMMMMMMMMMMMMM'
p147
ssg31
(dp148
g56
S'MMMMUMMMDMMMMMMMMMMUMMMMMMMMMMMMMMDMMMMDMMMMMMMMDMMMMMMMMMMUMMMMMMMMMMMMMMMMMMMMMMMUMMMDMMMMMDMMMMMMMMMMMMMMUMUMMMMMMMMMMMU'
p149
ssg33
(dp150
g56
S'MMMMMMMMDMMMMMMMMMMDMMMMMMMMMMMMMMDMMMMDMMMMMMMMDMMMUMMMMMMUMMMMMMMMMMMMMMMMMMMMMUMUMMMDMMMMMDMMMMMMMMMMMMMMUMUMMMMMMMMMMMU'
p151
ssg35
(dp152
g56
S'MMMMMMMMDMMMMMMMMMMUMMMMMMMMMMMMMMUMMMMDMMMMMMMMDMMUMMMMMMMMMMMMMMMMMMMMMMMMMMMMMMMMMMMUMMMMMDMMMMMMMMMMMMMMMMMMMMMMMMMMMMD'
p153
ssg37
(dp154
g56
S'MMMMMMMMDMMMMMMMMMMUMMMMMMMMMMMMMMDMMMMDMMUUMMUMDMMMMMMMMMMMMMMMUMMMMMMMMMMMMMMMMMMUMMMDMMMMMUMMMMMMMMMMMMMMMMUMMMUMMMMMMMD'
p155
ssg39
(dp156
g56
S'MMMMMMMMUMMUMMMUMMMDMMMMMMMMMMMMMMDMMMMDMMMMMMUMDMMMMMMMMMMUMMMMMMMMMMMMMMMMMMMMMMMUMMMDMMMMMDUMMMMMMMMMMMMMUMUMMMUMMMMMMMU'
p157
ssg41
(dp158
g56
S'MUMMMMUMDMMMMMMMMMMMUMMMMMMMMMMMMMUMMMMDMMMMMMMMDMMMMMMMMMMMMMMMMMMMMMMMMMMMMMMMMMMMMMMDMMMMMDMMMMMMMMMMMMMMMMMMMMMMMMMMMMM'
p159
ssg43
(dp160
g56
S'MMMMMMMMDMMMMMMMMMMUMMMMMMMMMMMMMMUMUMMDMMMMMMUMDMMMMMMMMMMMMMMMMMMMMMMMMMMMMMMMMMMMMMMDMMMMMUMMMMMMMMMMMMMMUMMMMMMMMMMMMMM'
p161
ssg45
(dp162
g56
S'MMMMMMMMUMMUMMMUMMMDMMMMMMMMMMMMMMDMMUMDMMMMMMUMDMMMMMMMMMMMMMMMMMMMMMMMMMMMMMMMMMMUMMMDMMMMMDUMMMMMMMMMMMMMUMUMMMUMMMMMMMD'
p163
ssg47
(dp164
g56
S'MMMMMMMMDMMMMMMMMMMUMMMMMMMMMMMMMMDMMMMDMMMMMMMMDMMMMMMMMMMMMMMMMMMMMMMMMMMMMMMMMMMMMMMDUMMMMDMMMMMMMMMMMMMMMMUMMMMMMMUUMMU'
p165
sssg15
(dp166
g8
g62
sg11
g99
sg13
g134
sg17
(dp167
g56
S'MMMMMMMUDMMMMMMMDMMUMMMMMMMMMMMMMMDUMMMMMMMMMMDMMMMMMMMMMMMUMMMMMMMMMMMMMMMMMMMMMMMDMMMMMMMMDUMMMMMMMMMMMMMMUMDMMMUMMMMMMMD'
p168
ssg19
(dp169
g56
S'MMMMUMMMDMMMMMMMDMMUMMUMMUMMMMMMMMDMMMMMMMMMMMDMMMMMMMMMMMMUMMMMMMMMMMMMMMMMMMMMMMMDMMMMMMMMDDMMMMMMMMMMMMMMMMDMMMMMMMMMMMD'
p170
ssg21
(dp171
g56
S'MMMMMMMMDMMMMMMMDMMMMMMMMMMMMMMMMMDMMMMMMMMMMMDUMMMMUMUMMMMUMMMMMMMMMMMMMMMMMMMMMMMUMMMMMMMMDUMMMMMMMMMMMMMMUMUMMMMMMMMMMMD'
p172
ssg23
(dp173
g56
S'MMMMMMMMDMMMMMMMDMMDMMMMMMMMMMMMMMDMMMMMMMMMMMUMMMMMMMMMMMMMMMMMMMMMMMMMMMMMMMMMMMMDMUUMMMMMDDMMMMMMMMMMMMMMMMUMMMMMMMMMMMD'
p174
ssg25
(dp175
g56
S'MMMMMMMMDMMUMMMUDMMDMMMMMMMMMMMMMMDMMMMMMMMMMMDMMMMMMMMMMMMMMMMMMMMMMMMMMMMMMMMMMMMUMMMMMMMMDDMMMMMMMMMMMMMMUMDMMMUMMMMMMMU'
p176
ssg27
(dp177
g56
S'MUMMMMMMDMMUMMMMDMMUMMMUMMMMMMMMMMDMMMMMMMMMMMDMMMUMMMMMMMMMMMMMMMMMMMMMMMMMMMMMMMMUMMMMMMMMDUMMMMMMMMMMMMUMMMDMMMMMMMMMMMD'
p178
ssg29
(dp179
g56
S'MMMMMMMMDMMMMUMMDMMDMMMMMMMMMMMMMMDMMMMMMMMMMMDMMMMMMMMUMMMMMMMMMMMMMMMMMMMMMMMMMMMDMMMMMMMMDUMMMMMMMMMMMMMMMMDMMMMMMMMMMMD'
p180
ssg31
(dp181
g56
S'MMMMUMMMDMMMMMMMDMMMMMMMMMMMMMMMMMDMMMMMMMMMMMDMMMMMMMMMMMMUMMMMMMMMMMMMMMMMMMMMMMMUMMMMMMMMDUMMMMMMMMMMMMMMUMUMMMMMMMMMMMU'
p182
ssg33
(dp183
g56
S'MMMMMMMMDMMMMMMMDMMDMMMMMMMMMMMMMMDMMMMMMMMMMMDMMMMMUMMMMMMUMMMMMMMMMMMMMMMMMMMMMUMUMMMMMMMMDUMMMMMMMMMMMMMMUMUMMMMMMMMMMMM'
p184
ssg35
(dp185
g56
S'MMMMMMMMDMMMMMMMDMMDMMMMMMMMMMMMMMUMMMMMMMMMMMDMUMMUMMMMMMMMMMMMMMMMMMMMMMMMMMMMMMMDMMMUMMMMDUMMMMMMMMMMMMMMMMDMMMMMMMMMMMD'
p186
ssg37
(dp187
g56
S'MMMMMMMMDMMMMMMMDMMDMMMMMMMMMMMMMMDMMMMMMMUUMMDMMMMMMMMMMMMMMMMMUMMMMMMMMMMMMMMMMMMUMMMMMMMMDUMMMMMMMMMMMMMMMMUMMMUMMMMMMMD'
p188
ssg39
(dp189
g56
S'MMMMMMMMDMMUMMMUDMMDMMMMMMMMMMMMMMDMMMMMMMMMMMDMMMMMMMMMMMMUMMMMMMMMMMMMMMMMMMMMMMMUMMMMMMMMDMUMMMMMMMMMMMMMUMUMMMUMMMMMMMD'
p190
ssg41
(dp191
g56
S'MUMMMMUMDMMMMMMMDMMDUMMMMMMMMMMMMMUMMMMMMMMMMMDMUMMMMMMMMMMMMMMMMMMMMMMMMMMMMMMMMMMDMMMUMMMMDUMMMMMMMMMMMMMMMMDMMMMMMMMMMMD'
p192
ssg43
(dp193
g56
S'MMMMMMMMDMMMMMMMDMMUMMMMMMMMMMMMMMUMUMMMMMMMMMDMMMMMMMMMMMMMMMMMMMMMMMMMMMMMMMMMMMMDMMMMMMMMDUMMMMMMMMMMMMMMUMDMMMMMMMMMMMD'
p194
ssg45
(dp195
g56
S'MMMMMMMMDMMUMMMUDMMDMMMMMMMMMMMMMMDMMUMMMMMMMMUMMMMMMMMMMMMMMMMMMMMMMMMMMMMMMMMMMMMUMMMMMMMMDUUMMMMMMMMMMMMMUMUMMMUMMMMMMMD'
p196
ssg47
(dp197
g56
S'MMMMMMMMDMMMMMMMDMMUMMMMMMMMMMMMMMDMMMMMMMMMMMDMMMMMMMMMMMMMMMMMMMMMMMMMMMMMMMMMMMMDMMMMUMMMDUMMMMMMMMMMMMMMMMUMMMMMMMUUMMU'
p198
sssg17
(dp199
g8
g64
sg11
g101
sg13
g136
sg15
g167
sg19
(dp200
g56
S'MMMMUMMDDMMMMMMMMMMUMMUMMUMMMMMMMMMDMMMMMMMMMMMMMMMMMMMMMMMDMMMMMMMMMMMMMMMMMMMMMMMDMMMMMMMMMDMMMMMMMMMMMMMMDMDMMMDMMMMMMMD'
p201
ssg21
(dp202
g56
S'MMMMMMMDMMMMMMMMMMMDMMMMMMMMMMMMMMMDMMMMMMMMMMMUMMMMUMUMMMMUMMMMMMMMMMMMMMMMMMMMMMMUMMMMMMMMMDMMMMMMMMMMMMMMDMUMMMDMMMMMMMM'
p203
ssg23
(dp204
g56
S'MMMMMMMDDMMMMMMMMMMDMMMMMMMMMMMMMMMDMMMMMMMMMMUMMMMMMMMMMMMDMMMMMMMMMMMMMMMMMMMMMMMDMUUMMMMMMDMMMMMMMMMMMMMMDMUMMMDMMMMMMMU'
p205
ssg25
(dp206
g56
S'MMMMMMMDUMMUMMMUMMMDMMMMMMMMMMMMMMMDMMMMMMMMMMUMMMMMMMMMMMMDMMMMMMMMMMMMMMMMMMMMMMMUMMMMMMMMMDMMMMMMMMMMMMMMDMUMMMUMMMMMMMU'
p207
ssg27
(dp208
g56
S'MUMMMMMDUMMUMMMMMMMUMMMUMMMMMMMMMMMDMMMMMMMMMMUMMMUMMMMMMMMDMMMMMMMMMMMMMMMMMMMMMMMUMMMMMMMMMUMMMMMMMMMMMMUMDMDMMMDMMMMMMMU'
p209
ssg29
(dp210
g56
S'MMMMMMMDDMMMMUMMMMMDMMMMMMMMMMMMMMMDMMMMMMMMMMMMMMMMMMMUMMMDMMMMMMMMMMMMMMMMMMMMMMMDMMMMMMMMMUMMMMMMMMMMMMMMDMDMMMDMMMMMMMU'
p211
ssg31
(dp212
g56
S'MMMMUMMDDMMMMMMMMMMDMMMMMMMMMMMMMMMDMMMMMMMMMMMMMMMMMMMMMMMUMMMMMMMMMMMMMMMMMMMMMMMUMMMMMMMMMDMMMMMMMMMMMMMMDMUMMMDMMMMMMMU'
p213
ssg33
(dp214
g56
S'MMMMMMMDUMMMMMMMMMMDMMMMMMMMMMMMMMMDMMMMMMMMMMMMMMMMUMMMMMMUMMMMMMMMMMMMMMMMMMMMMUMUMMMMMMMMMDMMMMMMMMMMMMMMDMUMMMDMMMMMMMU'
p215
ssg35
(dp216
g56
S'MMMMMMMDUMMMMMMMMMMDMMMMMMMMMMMMMMUDMMMMMMMMMMMMUMMUMMMMMMMDMMMMMMMMMMMMMMMMMMMMMMMDMMMUMMMMMDMMMMMMMMMMMMMMDMDMMMDMMMMMMMM'
p217
ssg37
(dp218
g56
S'MMMMMMMDDMMMMMMMMMMDMMMMMMMMMMMMMMMDMMMMMMUUMMUMMMMMMMMMMMMDMMMMUMMMMMMMMMMMMMMMMMMUMMMMMMMMMUMMMMMMMMMMMMMMDMUMMMUMMMMMMMD'
p219
ssg39
(dp220
g56
S'MMMMMMMDUMMUMMMUMMMDMMMMMMMMMMMMMMMDMMMMMMMMMMUMMMMMMMMMMMMDMMMMMMMMMMMMMMMMMMMMMMMUMMMMMMMMMDUMMMMMMMMMMMMMDMUMMMDMMMMMMMU'
p221
ssg41
(dp222
g56
S'MUMMMMUDDMMMMMMMMMMDUMMMMMMMMMMMMMUDMMMMMMMMMMMMUMMMMMMMMMMDMMMMMMMMMMMMMMMMMMMMMMMDMMMUMMMMMDMMMMMMMMMMMMMMDMDMMMDMMMMMMMU'
p223
ssg43
(dp224
g56
S'MMMMMMMDMMMMMMMMMMMUMMMMMMMMMMMMMMUDUMMMMMMMMMUMMMMMMMMMMMMDMMMMMMMMMMMMMMMMMMMMMMMDMMMMMMMMMUMMMMMMMMMMMMMMDMDMMMDMMMMMMMU'
p225
ssg45
(dp226
g56
S'MMMMMMMDUMMUMMMUMMMDMMMMMMMMMMMMMMMDMUMMMMMMMMUMMMMMMMMMMMMDMMMMMMMMMMMMMMMMMMMMMMMUMMMMMMMMMDUMMMMMMMMMMMMMDMUMMMUMMMMMMMD'
p227
ssg47
(dp228
g56
S'MMMMMMMDDMMMMMMMMMMUMMMMMMMMMMMMMMUDMMMMMMMMMMMMMMMMMMMMMMMDMMMMMMMMMMMMMMMMMMMMMMMDMMMMUMMMMDMMMMMMMMMMMMMMDMUMMMDMMMUUMMU'
p229
sssg19
(dp230
g8
g66
sg11
g103
sg13
g138
sg15
g169
sg17
g200
sg21
(dp231
g56
S'MMMMUMMMDMMMMMMMMMMUMMUMMUMMMMMMMMMMMMMMMMMMMMMDMMMMDMDMMMMDMMMMMMMMMMMMMMMMMMMMMMMDMMMMMMMMMDMMMMMMMMMMMMMMDMDMMMMMMMMMMMD'
p232
ssg23
(dp233
g56
S'MMMMUMMMMMMMMMMMMMMUMMUMMUMMMMMMMMMMMMMMMMMMMMDMMMMMMMMMMMMUMMMMMMMMMMMMMMMMMMMMMMMMMDDMMMMMMMMMMMMMMMMMMMMMMMDMMMMMMMMMMMD'
p234
ssg25
(dp235
g56
S'MMMMUMMMDMMDMMMDMMMUMMUMMUMMMMMMMMMMMMMMMMMMMMDMMMMMMMMMMMMUMMMMMMMMMMMMMMMMMMMMMMMDMMMMMMMMMMMMMMMMMMMMMMMMDMDMMMDMMMMMMMD'
p236
ssg27
(dp237
g56
S'MDMMUMMMDMMDMMMMMMMUMMUDMUMMMMMMMMMMMMMMMMMMMMDMMMDMMMMMMMMUMMMMMMMMMMMMMMMMMMMMMMMDMMMMMMMMMDMMMMMMMMMMMMDMMMMMMMMMMMMMMMD'
p238
ssg29
(dp239
g56
S'MMMMUMMMMMMMMDMMMMMUMMUMMUMMMMMMMMMMMMMMMMMMMMMMMMMMMMMDMMMUMMMMMMMMMMMMMMMMMMMMMMMMMMMMMMMMMDMMMMMMMMMMMMMMMMMMMMMMMMMMMMD'
p240
ssg31
(dp241
g56
S'MMMMUMMMDMMMMMMMMMMUMMUMMUMMMMMMMMMMMMMMMMMMMMMMMMMMMMMMMMMDMMMMMMMMMMMMMMMMMMMMMMMDMMMMMMMMMDMMMMMMMMMMMMMMDMDMMMMMMMMMMMD'
p242
ssg33
(dp243
g56
S'MMMMUMMMDMMMMMMMMMMUMMUMMUMMMMMMMMMMMMMMMMMMMMMMMMMMDMMMMMMDMMMMMMMMMMMMMMMMMMMMMDMDMMMMMMMMMDMMMMMMMMMMMMMMDMDMMMMMMMMMMMD'
p244
ssg35
(dp245
g56
S'MMMMUMMMDMMMMMMMMMMUMMUMMUMMMMMMMMDMMMMMMMMMMMMMDMMDMMMMMMMUMMMMMMMMMMMMMMMMMMMMMMMMMMMDMMMMMDMMMMMMMMMMMMMMMMMMMMMMMMMMMMD'
p246
ssg37
(dp247
g56
S'MMMMUMMMMMMMMMMMMMMUMMUMMUMMMMMMMMMMMMMMMMDDMMDMMMMMMMMMMMMUMMMMDMMMMMMMMMMMMMMMMMMDMMMMMMMMMDMMMMMMMMMMMMMMMMDMMMDMMMMMMMD'
p248
ssg39
(dp249
g56
S'MMMMUMMMDMMDMMMDMMMUMMUMMUMMMMMMMMMMMMMMMMMMMMDMMMMMMMMMMMMUMMMMMMMMMMMMMMMMMMMMMMMDMMMMMMMMMDDMMMMMMMMMMMMMDMDMMMDMMMMMMMD'
p250
ssg41
(dp251
g56
S'MDMMUMDMDMMMMMMMMMMUDMUMMUMMMMMMMMDMMMMMMMMMMMMMDMMMMMMMMMMUMMMMMMMMMMMMMMMMMMMMMMMMMMMDMMMMMDMMMMMMMMMMMMMMMMMMMMMMMMMMMMD'
p252
ssg43
(dp253
g56
S'MMMMUMMMDMMMMMMMMMMUMMUMMUMMMMMMMMDMDMMMMMMMMMDMMMMMMMMMMMMUMMMMMMMMMMMMMMMMMMMMMMMMMMMMMMMMMDMMMMMMMMMMMMMMDMMMMMMMMMMMMMD'
p254
ssg45
(dp255
g56
S'MMMMUMMMDMMDMMMDMMMUMMUMMUMMMMMMMMMMMDMMMMMMMMDMMMMMMMMMMMMUMMMMMMMMMMMMMMMMMMMMMMMDMMMMMMMMMDDMMMMMMMMMMMMMDMDMMMDMMMMMMMD'
p256
ssg47
(dp257
g56
S'MMMMUMMMMMMMMMMMMMMDMMUMMUMMMMMMMMDMMMMMMMMMMMMMMMMMMMMMMMMUMMMMMMMMMMMMMMMMMMMMMMMMMMMMDMMMMDMMMMMMMMMMMMMMMMDMMMMMMMDDMMD'
p258
sssg21
(dp259
g8
g68
sg11
g105
sg13
g140
sg15
g171
sg17
g202
sg19
g231
sg23
(dp260
g56
S'MMMMMMMMUMMMMMMMMMMUMMMMMMMMMMMMMMMMMMMMMMMMMMDUMMMMUMUMMMMUMMMMMMMMMMMMMMMMMMMMMMMUMDDMMMMMMUMMMMMMMMMMMMMMUMDMMMMMMMMMMMD'
p261
ssg25
(dp262
g56
S'MMMMMMMMUMMUMMMUMMMDMMMMMMMMMMMMMMMMMMMMMMMMMMUDMMMMDMDMMMMDMMMMMMMMMMMMMMMMMMMMMMMUMMMMMMMMMDMMMMMMMMMMMMMMDMDMMMUMMMMMMMU'
p263
ssg27
(dp264
g56
S'MUMMMMMMUMMUMMMMMMMUMMMUMMMMMMMMMMMMMMMMMMMMMMUDMMUMDMDMMMMDMMMMMMMMMMMMMMMMMMMMMMMDMMMMMMMMMUMMMMMMMMMMMMUMDMDMMMMMMMMMMMU'
p265
ssg29
(dp266
g56
S'MMMMMMMMUMMMMDMMMMMUMMMMMMMMMMMMMMMMMMMMMMMMMMMUMMMMUMUDMMMUMMMMMMMMMMMMMMMMMMMMMMMUMMMMMMMMMDMMMMMMMMMMMMMMUMUMMMMMMMMMMMD'
p267
ssg31
(dp268
g56
S'MMMMUMMMDMMMMMMMMMMMMMMMMMMMMMMMMMMMMMMMMMMMMMMDMMMMDMDMMMMDMMMMMMMMMMMMMMMMMMMMMMMUMMMMMMMMMUMMMMMMMMMMMMMMDMUMMMMMMMMMMMU'
p269
ssg33
(dp270
g56
S'MMMMMMMMUMMMMMMMMMMDMMMMMMMMMMMMMMMMMMMMMMMMMMMDMMMMUMDMMMMUMMMMMMMMMMMMMMMMMMMMMUMUMMMMMMMMMUMMMMMMMMMMMMMMDMDMMMMMMMMMMMU'
p271
ssg35
(dp272
g56
S'MMMMMMMMUMMMMMMMMMMDMMMMMMMMMMMMMMUMMMMMMMMMMMMDUMMUDMDMMMMDMMMMMMMMMMMMMMMMMMMMMMMDMMMUMMMMMUMMMMMMMMMMMMMMDMDMMMMMMMMMMMM'
p273
ssg37
(dp274
g56
S'MMMMMMMMDMMMMMMMMMMDMMMMMMMMMMMMMMMMMMMMMMUUMMUDMMMMDMDMMMMDMMMMUMMMMMMMMMMMMMMMMMMUMMMMMMMMMUMMMMMMMMMMMMMMDMDMMMUMMMMMMMD'
p275
ssg39
(dp276
g56
S'MMMMMMMMUMMUMMMUMMMDMMMMMMMMMMMMMMMMMMMMMMMMMMUDMMMMDMDMMMMDMMMMMMMMMMMMMMMMMMMMMMMDMMMMMMMMMDUMMMMMMMMMMMMMMMUMMMUMMMMMMMU'
p277
ssg41
(dp278
g56
S'MUMMMMUMDMMMMMMMMMMDUMMMMMMMMMMMMMUMMMMMMMMMMMMDUMMMDMDMMMMDMMMMMMMMMMMMMMMMMMMMMMMDMMMUMMMMMUMMMMMMMMMMMMMMDMDMMMMMMMMMMMU'
p279
ssg43
(dp280
g56
S'MMMMMMMMDMMMMMMMMMMUMMMMMMMMMMMMMMUMUMMMMMMMMMUDMMMMDMDMMMMDMMMMMMMMMMMMMMMMMMMMMMMDMMMMMMMMMUMMMMMMMMMMMMMMDMDMMMMMMMMMMMU'
p281
ssg45
(dp282
g56
S'MMMMMMMMUMMUMMMUMMMDMMMMMMMMMMMMMMMMMUMMMMMMMMUDMMMMDMDMMMMDMMMMMMMMMMMMMMMMMMMMMMMMMMMMMMMMMUUMMMMMMMMMMMMMDMDMMMUMMMMMMMD'
p283
ssg47
(dp284
g56
S'MMMMMMMMUMMMMMMMMMMDMMMMMMMMMMMMMMDMMMMMMMMMMMMUMMMMUMUMMMMUMMMMMMMMMMMMMMMMMMMMMMMUMMMMDMMMMDMMMMMMMMMMMMMMUMUMMMMMMMDDMMD'
p285
sssg23
(dp286
g8
g70
sg11
g107
sg13
g142
sg15
g173
sg17
g204
sg19
g233
sg21
g260
sg37
(dp287
g56
S'MMMMMMMMMMMMMMMMMMMUMMMMMMMMMMMMMMMMMMMMMMUUMMDMMMMMMMMMMMMMMMMMUMMMMMMMMMMMMMMMMMMUMDDMMMMMMUMMMMMMMMMMMMMMMMDMMMUMMMMMMMD'
p288
ssg25
(dp289
g56
S'MMMMMMMMUMMUMMMUMMMUMMMMMMMMMMMMMMMMMMMMMMMMMMDMMMMMMMMMMMMMMMMMMMMMMMMMMMMMMMMMMMMUMDDMMMMMMMMMMMMMMMMMMMMMUMDMMMUMMMMMMMU'
p290
ssg27
(dp291
g56
S'MUMMMMMMUMMUMMMMMMMUMMMUMMMMMMMMMMMMMMMMMMMMMMDMMMUMMMMMMMMMMMMMMMMMMMMMMMMMMMMMMMMUMDDMMMMMMUMMMMMMMMMMMMUMMMDMMMMMMMMMMMM'
p292
ssg29
(dp293
g56
S'MMMMMMMMMMMMMDMMMMMMMMMMMMMMMMMMMMMMMMMMMMMMMMUMMMMMMMMDMMMMMMMMMMMMMMMMMMMMMMMMMMMMMUUMMMMMMDMMMMMMMMMMMMMMMMUMMMMMMMMMMMM'
p294
ssg31
(dp295
g56
S'MMMMUMMMUMMMMMMMMMMUMMMMMMMMMMMMMMMMMMMMMMMMMMDMMMMMMMMMMMMUMMMMMMMMMMMMMMMMMMMMMMMUMDDMMMMMMUMMMMMMMMMMMMMMUMDMMMMMMMMMMMU'
p296
ssg33
(dp297
g56
S'MMMMMMMMUMMMMMMMMMMUMMMMMMMMMMMMMMMMMMMMMMMMMMDMMMMMUMMMMMMUMMMMMMMMMMMMMMMMMMMMMUMUMDDMMMMMMUMMMMMMMMMMMMMMUMDMMMMMMMMMMMU'
p298
ssg35
(dp299
g56
S'MMMMMMMMUMMMMMMMMMMUMMMMMMMMMMMMMMUMMMMMMMMMMMDMUMMUMMMMMMMMMMMMMMMMMMMMMMMMMMMMMMMMMDDUMMMMMUMMMMMMMMMMMMMMMMDMMMMMMMMMMMD'
p300
ssg39
(dp301
g56
S'MMMMMMMMUMMUMMMUMMMUMMMMMMMMMMMMMMMMMMMMMMMMMMDMMMMMMMMMMMMUMMMMMMMMMMMMMMMMMMMMMMMUMDDMMMMMMUUMMMMMMMMMMMMMUMDMMMUMMMMMMMU'
p302
ssg41
(dp303
g56
S'MUMMMMUMUMMMMMMMMMMUUMMMMMMMMMMMMMUMMMMMMMMMMMDMUMMMMMMMMMMMMMMMMMMMMMMMMMMMMMMMMMMMMDDUMMMMMUMMMMMMMMMMMMMMMMDMMMMMMMMMMMM'
p304
ssg43
(dp305
g56
S'MMMMMMMMUMMMMMMMMMMUMMMMMMMMMMMMMMUMUMMMMMMMMMDMMMMMMMMMMMMMMMMMMMMMMMMMMMMMMMMMMMMMMDDMMMMMMUMMMMMMMMMMMMMMUMDMMMMMMMMMMMM'
p306
ssg45
(dp307
g56
S'MMMMMMMMUMMUMMMUMMMUMMMMMMMMMMMMMMMMMUMMMMMMMMUMMMMMMMMMMMMMMMMMMMMMMMMMMMMMMMMMMMMUMDDMMMMMMUUMMMMMMMMMMMMMUMDMMMUMMMMMMMD'
p308
ssg47
(dp309
g56
S'MMMMMMMMMMMMMMMMMMMUMMMMMMMMMMMMMMUMMMMMMMMMMMDMMMMMMMMMMMMMMMMMMMMMMMMMMMMMMMMMMMMMMDDMUMMMMUMMMMMMMMMMMMMMMMDMMMMMMMUUMMU'
p310
sssg25
(dp311
g8
g72
sg11
g109
sg13
g132
sg15
g175
sg17
g206
sg19
g235
sg21
g262
sg23
g289
sg27
(dp312
g56
S'MUMMMMMMDMMDMMMDMMMUMMMUMMMMMMMMMMMMMMMMMMMMMMDMMMUMMMMMMMMMMMMMMMMMMMMMMMMMMMMMMMMDMMMMMMMMMUMMMMMMMMMMMMUMDMDMMMDMMMMMMMD'
p313
ssg29
(dp314
g56
S'MMMMMMMMUMMUMDMUMMMUMMMMMMMMMMMMMMMMMMMMMMMMMMUMMMMMMMMDMMMMMMMMMMMMMMMMMMMMMMMMMMMUMMMMMMMMMDMMMMMMMMMMMMMMUMUMMMUMMMMMMMU'
p315
ssg31
(dp316
g56
S'MMMMUMMMDMMDMMMDMMMUMMMMMMMMMMMMMMMMMMMMMMMMMMDMMMMMMMMMMMMUMMMMMMMMMMMMMMMMMMMMMMMUMMMMMMMMMUMMMMMMMMMMMMMMDMUMMMDMMMMMMMM'
p317
ssg33
(dp318
g56
S'MMMMMMMMDMMDMMMDMMMMMMMMMMMMMMMMMMMMMMMMMMMMMMDMMMMMUMMMMMMUMMMMMMMMMMMMMMMMMMMMMUMUMMMMMMMMMUMMMMMMMMMMMMMMUMUMMMDMMMMMMMD'
p319
ssg35
(dp320
g56
S'MMMMMMMMDMMDMMMDMMMUMMMMMMMMMMMMMMUMMMMMMMMMMMDMUMMUMMMMMMMMMMMMMMMMMMMMMMMMMMMMMMMDMMMUMMMMMUMMMMMMMMMMMMMMDMDMMMDMMMMMMMD'
p321
ssg37
(dp322
g56
S'MMMMMMMMDMMDMMMDMMMUMMMMMMMMMMMMMMMMMMMMMMUUMMDMMMMMMMMMMMMMMMMMUMMMMMMMMMMMMMMMMMMUMMMMMMMMMUMMMMMMMMMMMMMMDMUMMMUMMMMMMMD'
p323
ssg39
(dp324
g56
S'MMMMMMMMDMMUMMMDMMMDMMMMMMMMMMMMMMMMMMMMMMMMMMUMMMMMMMMMMMMUMMMMMMMMMMMMMMMMMMMMMMMDMMMMMMMMMUUMMMMMMMMMMMMMUMUMMMDMMMMMMMD'
p325
ssg41
(dp326
g56
S'MUMMMMUMDMMDMMMDMMMUUMMMMMMMMMMMMMUMMMMMMMMMMMDMUMMMMMMMMMMMMMMMMMMMMMMMMMMMMMMMMMMDMMMUMMMMMUMMMMMMMMMMMMMMDMDMMMDMMMMMMMD'
p327
ssg43
(dp328
g56
S'MMMMMMMMUMMUMMMUMMMDMMMMMMMMMMMMMMDMDMMMMMMMMMUMMMMMMMMMMMMMMMMMMMMMMMMMMMMMMMMMMMMUMMMMMMMMMDMMMMMMMMMMMMMMUMUMMMUMMMMMMMU'
p329
ssg45
(dp330
g56
S'MMMMMMMMDMMUMMMDMMMDMMMMMMMMMMMMMMMMMUMMMMMMMMUMMMMMMMMMMMMMMMMMMMMMMMMMMMMMMMMMMMMDMMMMMMMMMUUMMMMMMMMMMMMMUMUMMMDMMMMMMMD'
p331
ssg47
(dp332
g56
S'MMMMMMMMUMMUMMMUMMMDMMMMMMMMMMMMMMDMMMMMMMMMMMUMMMMMMMMMMMMMMMMMMMMMMMMMMMMMMMMMMMMUMMMMDMMMMDMMMMMMMMMMMMMMUMDMMMUMMMDDMMM'
p333
sssg27
(dp334
g8
g74
sg11
g111
sg13
g144
sg15
g177
sg17
g208
sg19
g237
sg21
g264
sg23
g291
sg25
g312
sg29
(dp335
g56
S'MUMMMMMMUMMUMDMMMMMUMMMUMMMMMMMMMMMMMMMMMMMMMMUMMMUMMMMDMMMMMMMMMMMMMMMMMMMMMMMMMMMUMMMMMMMMMDMMMMMMMMMMMMUMMMMMMMMMMMMMMMU'
p336
ssg31
(dp337
g56
S'MDMMUMMMDMMDMMMMMMMDMMMDMMMMMMMMMMMMMMMMMMMMMMDMMMDMMMMMMMMUMMMMMMMMMMMMMMMMMMMMMMMUMMMMMMMMMDMMMMMMMMMMMMDMUMUMMMMMMMMMMMU'
p338
ssg33
(dp339
g56
S'MDMMMMMMDMMDMMMMMMMDMMMDMMMMMMMMMMMMMMMMMMMMMMDMMMDMUMMMMMMUMMMMMMMMMMMMMMMMMMMMMUMUMMMMMMMMMDMMMMMMMMMMMMDMUMUMMMMMMMMMMMU'
p340
ssg35
(dp341
g56
S'MDMMMMMMDMMDMMMMMMMDMMMDMMMMMMMMMMUMMMMMMMMMMMDMUMDUMMMMMMMMMMMMMMMMMMMMMMMMMMMMMMMDMMMUMMMMMDMMMMMMMMMMMMDMMMMMMMMMMMMMMMD'
p342
ssg37
(dp343
g56
S'MDMMMMMMDMMDMMMMMMMDMMMDMMMMMMMMMMMMMMMMMMUUMMDMMMDMMMMMMMMMMMMMUMMMMMMMMMMMMMMMMMMUMMMMMMMMMUMMMMMMMMMMMMDMMMUMMMUMMMMMMMD'
p344
ssg39
(dp345
g56
S'MDMMMMMMUMMUMMMUMMMDMMMDMMMMMMMMMMMMMMMMMMMMMMUMMMDMMMMMMMMUMMMMMMMMMMMMMMMMMMMMMMMMMMMMMMMMMDUMMMMMMMMMMMDMUMUMMMUMMMMMMMU'
p346
ssg41
(dp347
g56
S'MUMMMMUMDMMDMMMMMMMDUMMDMMMMMMMMMMUMMMMMMMMMMMDMUMDMMMMMMMMMMMMMMMMMMMMMMMMMMMMMMMMDMMMUMMMMMDMMMMMMMMMMMMDMMMMMMMMMMMMMMMM'
p348
ssg43
(dp349
g56
S'MUMMMMMMUMMUMMMMMMMDMMMUMMMMMMMMMMDMDMMMMMMMMMUMMMUMMMMMMMMMMMMMMMMMMMMMMMMMMMMMMMMUMMMMMMMMMDMMMMMMMMMMMMUMDMMMMMMMMMMMMMM'
p350
ssg45
(dp351
g56
S'MDMMMMMMUMMUMMMUMMMDMMMDMMMMMMMMMMMMMUMMMMMMMMUMMMDMMMMMMMMMMMMMMMMMMMMMMMMMMMMMMMMUMMMMMMMMMDUMMMMMMMMMMMDMUMUMMMUMMMMMMMD'
p352
ssg47
(dp353
g56
S'MUMMMMMMUMMUMMMMMMMDMMMUMMMMMMMMMMDMMMMMMMMMMMUMMMUMMMMMMMMMMMMMMMMMMMMMMMMMMMMMMMMUMMMMDMMMMUMMMMMMMMMMMMUMMMDMMMMMMMDDMMD'
p354
sssg29
(dp355
g8
g76
sg11
g113
sg13
g146
sg15
g179
sg17
g210
sg19
g239
sg21
g266
sg23
g293
sg25
g314
sg27
g335
sg39
(dp356
g56
S'MMMMMMMMUMMUMDMUMMMUMMMMMMMMMMMMMMMMMMMMMMMMMMUMMMMMMMMDMMMUMMMMMMMMMMMMMMMMMMMMMMMUMMMMMMMMMDUMMMMMMMMMMMMMUMUMMMUMMMMMMMU'
p357
ssg31
(dp358
g56
S'MMMMUMMMUMMMMDMMMMMUMMMMMMMMMMMMMMMMMMMMMMMMMMMMMMMMMMMDMMMUMMMMMMMMMMMMMMMMMMMMMMMUMMMMMMMMMDMMMMMMMMMMMMMMUMUMMMMMMMMMMMU'
p359
ssg33
(dp360
g56
S'MMMMMMMMUMMMMDMMMMMUMMMMMMMMMMMMMMMMMMMMMMMMMMMMMMMMUMMDMMMUMMMMMMMMMMMMMMMMMMMMMUMUMMMMMMMMMDMMMMMMMMMMMMMMUMUMMMMMMMMMMMU'
p361
ssg35
(dp362
g56
S'MMMMMMMMUMMMMDMMMMMUMMMMMMMMMMMMMMUMMMMMMMMMMMMMUMMUMMMDMMMMMMMMMMMMMMMMMMMMMMMMMMMMMMMUMMMMMDMMMMMMMMMMMMMMMMMMMMMMMMMMMMD'
p363
ssg37
(dp364
g56
S'MMMMMMMMMMMMMDMMMMMUMMMMMMMMMMMMMMMMMMMMMMUUMMUMMMMMMMMDMMMMMMMMUMMMMMMMMMMMMMMMMMMUMMMMMMMMMDMMMMMMMMMMMMMMMMUMMMUMMMMMMMD'
p365
ssg41
(dp366
g56
S'MUMMMMUMUMMMMDMMMMMUUMMMMMMMMMMMMMUMMMMMMMMMMMMMUMMMMMMDMMMMMMMMMMMMMMMMMMMMMMMMMMMMMMMUMMMMMDMMMMMMMMMMMMMMMMMMMMMMMMMMMMM'
p367
ssg43
(dp368
g56
S'MMMMMMMMUMMMMDMMMMMUMMMMMMMMMMMMMMUMUMMMMMMMMMUMMMMMMMMDMMMMMMMMMMMMMMMMMMMMMMMMMMMMMMMMMMMMMDMMMMMMMMMMMMMMUMMMMMMMMMMMMMM'
p369
ssg45
(dp370
g56
S'MMMMMMMMUMMUMDMUMMMUMMMMMMMMMMMMMMMMMUMMMMMMMMUMMMMMMMMDMMMMMMMMMMMMMMMMMMMMMMMMMMMUMMMMMMMMMDUMMMMMMMMMMMMMUMUMMMUMMMMMMMD'
p371
ssg47
(dp372
g56
S'MMMMMMMMMMMMMDMMMMMUMMMMMMMMMMMMMMUMMMMMMMMMMMMMMMMMMMMDMMMMMMMMMMMMMMMMMMMMMMMMMMMMMMMMUMMMMDMMMMMMMMMMMMMMMMUMMMMMMMUUMMU'
p373
sssg31
(dp374
g8
g78
sg11
g115
sg13
g148
sg15
g181
sg17
g212
sg19
g241
sg21
g268
sg23
g295
sg25
g316
sg27
g337
sg29
g358
sg33
(dp375
g56
S'MMMMDMMMUMMMMMMMMMMDMMMMMMMMMMMMMMMMMMMMMMMMMMMMMMMMUMMMMMMUMMMMMMMMMMMMMMMMMMMMMUMMMMMMMMMMMUMMMMMMMMMMMMMMUMDMMMMMMMMMMMD'
p376
ssg35
(dp377
g56
S'MMMMDMMMUMMMMMMMMMMDMMMMMMMMMMMMMMUMMMMMMMMMMMMMUMMUMMMMMMMDMMMMMMMMMMMMMMMMMMMMMMMDMMMUMMMMMUMMMMMMMMMMMMMMDMDMMMMMMMMMMMD'
p378
ssg37
(dp379
g56
S'MMMMDMMMDMMMMMMMMMMDMMMMMMMMMMMMMMMMMMMMMMUUMMUMMMMMMMMMMMMDMMMMUMMMMMMMMMMMMMMMMMMUMMMMMMMMMUMMMMMMMMMMMMMMDMDMMMUMMMMMMMD'
p380
ssg39
(dp381
g56
S'MMMMUMMMDMMDMMMDMMMUMMMMMMMMMMMMMMMMMMMMMMMMMMDMMMMMMMMMMMMUMMMMMMMMMMMMMMMMMMMMMMMUMMMMMMMMMUDMMMMMMMMMMMMMDMDMMMDMMMMMMMU'
p382
ssg41
(dp383
g56
S'MUMMDMUMDMMMMMMMMMMDUMMMMMMMMMMMMMUMMMMMMMMMMMMMUMMMMMMMMMMDMMMMMMMMMMMMMMMMMMMMMMMDMMMUMMMMMUMMMMMMMMMMMMMMDMDMMMMMMMMMMMD'
p384
ssg43
(dp385
g56
S'MMMMUMMMDMMMMMMMMMMDMMMMMMMMMMMMMMDMDMMMMMMMMMDMMMMMMMMMMMMUMMMMMMMMMMMMMMMMMMMMMMMUMMMMMMMMMDMMMMMMMMMMMMMMUMUMMMMMMMMMMMU'
p386
ssg45
(dp387
g56
S'MMMMDMMMUMMUMMMUMMMDMMMMMMMMMMMMMMMMMUMMMMMMMMUMMMMMMMMMMMMDMMMMMMMMMMMMMMMMMMMMMMMDMMMMMMMMMDUMMMMMMMMMMMMMUMDMMMUMMMMMMMD'
p388
ssg47
(dp389
g56
S'MMMMUMMMUMMMMMMMMMMDMMMMMMMMMMMMMMDMMMMMMMMMMMMMMMMMMMMMMMMUMMMMMMMMMMMMMMMMMMMMMMMUMMMMDMMMMDMMMMMMMMMMMMMMUMUMMMMMMMDDMMM'
p390
sssg33
(dp391
g8
g80
sg11
g117
sg13
g150
sg15
g183
sg17
g214
sg19
g243
sg21
g270
sg23
g297
sg25
g318
sg27
g339
sg29
g360
sg31
g375
sg35
(dp392
g56
S'MMMMMMMMUMMMMMMMMMMUMMMMMMMMMMMMMMUMMMMMMMMMMMMMUMMUDMMMMMMDMMMMMMMMMMMMMMMMMMMMMDMDMMMUMMMMMUMMMMMMMMMMMMMMDMDMMMMMMMMMMMD'
p393
ssg37
(dp394
g56
S'MMMMMMMMDMMMMMMMMMMUMMMMMMMMMMMMMMMMMMMMMMUUMMUMMMMMDMMMMMMDMMMMUMMMMMMMMMMMMMMMMDMUMMMMMMMMMUMMMMMMMMMMMMMMDMMMMMUMMMMMMMD'
p395
ssg39
(dp396
g56
S'MMMMMMMMDMMDMMMDMMMUMMMMMMMMMMMMMMMMMMMMMMMMMMDMMMMMUMMMMMMUMMMMMMMMMMMMMMMMMMMMMUMUMMMMMMMMMUDMMMMMMMMMMMMMDMDMMMDMMMMMMMU'
p397
ssg41
(dp398
g56
S'MUMMMMUMDMMMMMMMMMMMUMMMMMMMMMMMMMUMMMMMMMMMMMMMUMMMDMMMMMMDMMMMMMMMMMMMMMMMMMMMMDMDMMMUMMMMMUMMMMMMMMMMMMMMDMDMMMMMMMMMMMD'
p399
ssg43
(dp400
g56
S'MMMMMMMMUMMMMMMMMMMDMMMMMMMMMMMMMMDMDMMMMMMMMMDMMMMMUMMMMMMUMMMMMMMMMMMMMMMMMMMMMUMUMMMMMMMMMDMMMMMMMMMMMMMMUMUMMMMMMMMMMMU'
p401
ssg45
(dp402
g56
S'MMMMMMMMUMMUMMMUMMMDMMMMMMMMMMMMMMMMMUMMMMMMMMUMMMMMDMMMMMMDMMMMMMMMMMMMMMMMMMMMMDMDMMMMMMMMMDUMMMMMMMMMMMMMUMUMMMUMMMMMMMD'
p403
ssg47
(dp404
g56
S'MMMMMMMMUMMMMMMMMMMDMMMMMMMMMMMMMMDMMMMMMMMMMMMMMMMMUMMMMMMUMMMMMMMMMMMMMMMMMMMMMUMUMMMMDMMMMUMMMMMMMMMMMMMMUMDMMMMMMMDDMMD'
p405
sssg35
(dp406
g8
g82
sg11
g119
sg13
g152
sg15
g185
sg17
g216
sg19
g245
sg21
g272
sg23
g299
sg25
g320
sg27
g341
sg29
g362
sg31
g377
sg33
g392
sg37
(dp407
g56
S'MMMMMMMMDMMMMMMMMMMDMMMMMMMMMMMMMMDMMMMMMMUUMMUMDMMDMMMMMMMMMMMMUMMMMMMMMMMMMMMMMMMUMMMDMMMMMUMMMMMMMMMMMMMMMMUMMMUMMMMMMMD'
p408
ssg39
(dp409
g56
S'MMMMMMMMDMMDMMMDMMMUMMMMMMMMMMMMMMUMMMMMMMMMMMDMUMMUMMMMMMMDMMMMMMMMMMMMMMMMMMMMMMMDMMMUMMMMMUDMMMMMMMMMMMMMDMDMMMDMMMMMMMD'
p410
ssg41
(dp411
g56
S'MUMMMMUMDMMMMMMMMMMDUMMMMMMMMMMMMMDMMMMMMMMMMMMMDMMDMMMMMMMMMMMMMMMMMMMMMMMMMMMMMMMMMMMDMMMMMDMMMMMMMMMMMMMMMMMMMMMMMMMMMMU'
p412
ssg43
(dp413
g56
S'MMMMMMMMUMMMMMMMMMMDMMMMMMMMMMMMMMUMDMMMMMMMMMDMUMMUMMMMMMMMMMMMMMMMMMMMMMMMMMMMMMMMMMMUMMMMMDMMMMMMMMMMMMMMDMMMMMMMMMMMMMD'
p414
ssg45
(dp415
g56
S'MMMMMMMMUMMUMMMUMMMDMMMMMMMMMMMMMMDMMUMMMMMMMMUMDMMDMMMMMMMMMMMMMMMMMMMMMMMMMMMMMMMUMMMDMMMMMDUMMMMMMMMMMMMMUMUMMMUMMMMMMMD'
p416
ssg47
(dp417
g56
S'MMMMMMMMUMMMMMMMMMMDMMMMMMMMMMMMMMUMMMMMMMMMMMMMUMMUMMMMMMMMMMMMMMMMMMMMMMMMMMMMMMMMMMMUDMMMMUMMMMMMMMMMMMMMMMDMMMMMMMDDMMD'
p418
sssg37
(dp419
g8
g84
sg11
g121
sg13
g154
sg15
g187
sg17
g218
sg19
g247
sg21
g274
sg23
g287
sg25
g322
sg27
g343
sg29
g364
sg31
g379
sg33
g394
sg35
g407
sg39
(dp420
g56
S'MMMMMMMMDMMDMMMDMMMUMMMMMMMMMMMMMMMMMMMMMMUUMMDMMMMMMMMMMMMDMMMMUMMMMMMMMMMMMMMMMMMUMMMMMMMMMUDMMMMMMMMMMMMMDMDMMMUMMMMMMMD'
p421
ssg41
(dp422
g56
S'MDMMMMDMDMMMMMMMMMMUDMMMMMMMMMMMMMDMMMMMMMUUMMUMDMMMMMMMMMMMMMMMUMMMMMMMMMMMMMMMMMMUMMMDMMMMMUMMMMMMMMMMMMMMMMUMMMUMMMMMMMD'
p423
ssg43
(dp424
g56
S'MMMMMMMMDMMMMMMMMMMDMMMMMMMMMMMMMMDMDMMMMMUUMMUMMMMMMMMMMMMMMMMMUMMMMMMMMMMMMMMMMMMUMMMMMMMMMDMMMMMMMMMMMMMMDMUMMMUMMMMMMMD'
p425
ssg45
(dp426
g56
S'MMMMMMMMUMMUMMMUMMMDMMMMMMMMMMMMMMMMMUMMMMDDMMUMMMMMMMMMMMMMMMMMDMMMMMMMMMMMMMMMMMMDMMMMMMMMMDUMMMMMMMMMMMMMUMUMMMDMMMMMMMM'
p427
ssg47
(dp428
g56
S'MMMMMMMMMMMMMMMMMMMDMMMMMMMMMMMMMMDMMMMMMMUUMMUMMMMMMMMMMMMMMMMMUMMMMMMMMMMMMMMMMMMUMMMMDMMMMUMMMMMMMMMMMMMMMMDMMMUMMMDDMMD'
p429
sssg39
(dp430
g8
g58
sg11
g95
sg13
g156
sg15
g189
sg17
g220
sg19
g249
sg21
g276
sg23
g301
sg25
g324
sg27
g345
sg29
g356
sg31
g381
sg33
g396
sg35
g409
sg37
g420
sg41
(dp431
g56
S'MUMMMMUMDMMDMMMDMMMUUMMMMMMMMMMMMMUMMMMMMMMMMMDMUMMMMMMMMMMDMMMMMMMMMMMMMMMMMMMMMMMDMMMUMMMMMUDMMMMMMMMMMMMMDMDMMMDMMMMMMMD'
p432
ssg43
(dp433
g56
S'MMMMMMMMUMMUMMMUMMMDMMMMMMMMMMMMMMDMDMMMMMMMMMUMMMMMMMMMMMMUMMMMMMMMMMMMMMMMMMMMMMMUMMMMMMMMMDUMMMMMMMMMMMMMUMUMMMUMMMMMMMU'
p434
ssg45
(dp435
g56
S'MMMMMMMMDMMMMMMUMMMUMMMMMMMMMMMMMMMMMUMMMMMMMMUMMMMMMMMMMMMDMMMMMMMMMMMMMMMMMMMMMMMUMMMMMMMMMUDMMMMMMMMMMMMMDMDMMMUMMMMMMMD'
p436
ssg47
(dp437
g56
S'MMMMMMMMUMMUMMMUMMMDMMMMMMMMMMMMMMDMMMMMMMMMMMUMMMMMMMMMMMMUMMMMMMMMMMMMMMMMMMMMMMMUMMMMDMMMMDUMMMMMMMMMMMMMUMUMMMUMMMDDMMD'
p438
sssg41
(dp439
g8
g86
sg11
g123
sg13
g158
sg15
g191
sg17
g222
sg19
g251
sg21
g278
sg23
g303
sg25
g326
sg27
g347
sg29
g366
sg31
g383
sg33
g398
sg35
g411
sg37
g422
sg39
g431
sg43
(dp440
g56
S'MUMMMMUMDMMMMMMMMMMDUMMMMMMMMMMMMMDMDMMMMMMMMMDMUMMMMMMMMMMMMMMMMMMMMMMMMMMMMMMMMMMMMMMUMMMMMDMMMMMMMMMMMMMMDMMMMMMMMMMMMMM'
p441
ssg45
(dp442
g56
S'MDMMMMDMUMMUMMMUMMMDDMMMMMMMMMMMMMDMMUMMMMMMMMUMDMMMMMMMMMMMMMMMMMMMMMMMMMMMMMMMMMMUMMMDMMMMMDUMMMMMMMMMMMMMUMUMMMUMMMMMMMD'
p443
ssg47
(dp444
g56
S'MUMMMMUMUMMMMMMMMMMDUMMMMMMMMMMMMMUMMMMMMMMMMMMMUMMMMMMMMMMMMMMMMMMMMMMMMMMMMMMMMMMMMMMUDMMMMUMMMMMMMMMMMMMMMMDMMMMMMMDDMMD'
p445
sssg43
(dp446
g8
g88
sg11
g125
sg13
g160
sg15
g193
sg17
g224
sg19
g253
sg21
g280
sg23
g305
sg25
g328
sg27
g349
sg29
g368
sg31
g385
sg33
g400
sg35
g413
sg39
g433
sg41
g440
sg37
g424
sg45
(dp447
g56
S'MMMMMMMMUMMUMMMUMMMDMMMMMMMMMMMMMMDMDUMMMMMMMMUMMMMMMMMMMMMMMMMMMMMMMMMMMMMMMMMMMMMUMMMMMMMMMDUMMMMMMMMMMMMMUMUMMMUMMMMMMMD'
p448
ssg47
(dp449
g56
S'MMMMMMMMUMMMMMMMMMMDMMMMMMMMMMMMMMUMUMMMMMMMMMUMMMMMMMMMMMMMMMMMMMMMMMMMMMMMMMMMMMMMMMMMDMMMMUMMMMMMMMMMMMMMUMDMMMMMMMDDMMD'
p450
sssg45
(dp451
g8
g90
sg11
g127
sg13
g162
sg15
g195
sg17
g226
sg19
g255
sg21
g282
sg23
g307
sg25
g330
sg27
g351
sg29
g370
sg31
g387
sg33
g402
sg35
g415
sg37
g426
sg39
g435
sg41
g442
sg43
g447
sg47
(dp452
g56
S'MMMMMMMMUMMUMMMUMMMDMMMMMMMMMMMMMMDMMUMMMMMMMMUMMMMMMMMMMMMMMMMMMMMMMMMMMMMMMMMMMMMUMMMMDMMMMDUMMMMMMMMMMMMMUMMMMMUMMMDDMMD'
p453
sssg47
(dp454
g8
g92
sg11
g129
sg13
g164
sg15
g197
sg17
g228
sg21
g284
sg23
g309
sg25
g332
sg27
g353
sg29
g372
sg31
g389
sg33
g404
sg35
g417
sg37
g428
sg39
g437
sg41
g444
sg43
g449
sg45
g452
sg19
g257
sssS'adj'
p455
g53
sb.