(dp0
S'assemblage-597-375'
p1
(lp2
I0
aI0
aI0
aI0
acnumpy.core.multiarray
scalar
p3
(cnumpy
dtype
p4
(S'f8'
p5
I0
I1
tp6
Rp7
(I3
S'<'
p8
NNNI-1
I-1
I0
tp9
bS'6\x92W\x15o\xee\xb2?'
p10
tp11
Rp12
aI0
aI0
aI0
aI0
aI0
aI0
aI0
aI0
aI0
aI0
aI0
aI0
aI0
aI0
ag3
(g7
S';7\xaa\x17\x95\xb0\xba?'
p13
tp14
Rp15
aI0
aI0
aI0
aI0
aI0
aI0
aI0
aI0
aI0
aI0
aI0
aI0
aI0
aI0
aI0
aI0
aI0
aI0
aI0
aI0
aI0
aI0
aI0
ag3
(g7
S'@(_\xbfE\x85\xac?'
p16
tp17
Rp18
aI0
aI0
ag3
(g7
S'\xcb\x9e\xff\xde\x880\x99?'
p19
tp20
Rp21
aI0
aI0
aI0
aI0
aI0
aI0
aI0
aI0
ag3
(g7
S'4{\xdf\x85zb\xa0?'
p22
tp23
Rp24
aI0
aI0
aI0
ag3
(g7
S'.\x97|\x9c7\xad\xa8?'
p25
tp26
Rp27
ag3
(g7
S'}\xe6Ac\xdb\xb6\xa0?'
p28
tp29
Rp30
aI0
aI0
aI0
aI0
aI0
aI0
aI0
aI0
aI0
aI0
aI0
aI0
aI0
aI0
aI0
aI0
aI0
aI0
aI0
aI0
ag3
(g7
S'Q\x17\xd1\xa8\x04\x0f\xa4?'
p31
tp32
Rp33
ag3
(g7
S'W\xed\x9c\xa9\xc6\xcf\x92?'
p34
tp35
Rp36
ag3
(g7
S'+\xf2l\xe5\x8e!\x96?'
p37
tp38
Rp39
aI0
aI0
aI0
aI0
aI0
aI0
aI0
aI0
aI0
ag3
(g7
S'5K\x9e\xac\x81v\xc7?'
p40
tp41
Rp42
aI0
aI0
aI0
aI0
aI0
aI0
aI0
aI0
aI0
aI0
aI0
aI0
aI0
aI0
aI0
aI0
ag3
(g7
S'\xe2\xbb\x03\xef\xac\x9b\xcd?'
p43
tp44
Rp45
aI0
aI0
aI0
ag3
(g7
S'ykI\x1f\xdd*\x95?'
p46
tp47
Rp48
ag3
(g7
S'p\x1dEr\x0ez\x82?'
p49
tp50
Rp51
aI0
aI0
aI0
aI0
aI0
aI0
ag3
(g7
S'2\x8bI{\x86t\xb3?'
p52
tp53
Rp54
asS'assemblage-622-813'
p55
(lp56
I0
ag3
(g7
S'\x1f\xea\x11\xc4\xac%\xb2?'
p57
tp58
Rp59
aI0
aI0
aI0
aI0
aI0
aI0
aI0
aI0
aI0
aI0
aI0
aI0
aI0
aI0
aI0
aI0
aI0
ag3
(g7
S'c\xbb>\x1f\x08\xa5\xe3?'
p60
tp61
Rp62
aI0
aI0
aI0
aI0
aI0
aI0
aI0
aI0
aI0
aI0
aI0
aI0
aI0
aI0
ag3
(g7
S'\xc2\xc1\xf0-\xb4\xed\xc1?'
p63
tp64
Rp65
aI0
aI0
aI0
aI0
aI0
aI0
aI0
aI0
aI0
aI0
aI0
aI0
aI0
aI0
aI0
aI0
aI0
aI0
aI0
aI0
aI0
aI0
aI0
aI0
aI0
aI0
aI0
aI0
aI0
aI0
aI0
aI0
aI0
aI0
aI0
aI0
aI0
aI0
aI0
aI0
aI0
aI0
aI0
aI0
aI0
aI0
aI0
aI0
aI0
aI0
aI0
aI0
aI0
aI0
aI0
aI0
aI0
aI0
ag3
(g7
S'B\x11 r#R\x8d?'
p66
tp67
Rp68
aI0
aI0
aI0
aI0
aI0
aI0
aI0
aI0
aI0
aI0
aI0
aI0
aI0
aI0
aI0
aI0
ag3
(g7
S'\x84%E\x17S\xc3\xb2?'
p69
tp70
Rp71
aI0
aI0
aI0
aI0
aI0
aI0
aI0
ag3
(g7
S'i\xc2}\x1c;a\x99?'
p72
tp73
Rp74
aI0
aI0
aI0
ag3
(g7
S'\xb665\xc1{\xa5\xa7?'
p75
tp76
Rp77
asS'assemblage-206-404'
p78
(lp79
I0
aI0
aI0
aI0
aI0
aI0
aI0
aI0
ag3
(g7
S'\xcc\x90%\xb5?\x96\xc1?'
p80
tp81
Rp82
aI0
aI0
aI0
aI0
aI0
aI0
aI0
aI0
aI0
aI0
ag3
(g7
S'\x84>\x8co@-\xa1?'
p83
tp84
Rp85
aI0
aI0
aI0
aI0
aI0
aI0
aI0
aI0
aI0
aI0
aI0
aI0
aI0
aI0
ag3
(g7
S'_~-6\xcc\x00\xc1?'
p86
tp87
Rp88
aI0
aI0
aI0
aI0
ag3
(g7
S'|\x8dr\x87H;\x91?'
p89
tp90
Rp91
aI0
aI0
aI0
aI0
aI0
aI0
aI0
aI0
ag3
(g7
S'\x19\tA\xfan\xf3\xb5?'
p92
tp93
Rp94
aI0
aI0
aI0
aI0
aI0
aI0
aI0
aI0
aI0
aI0
aI0
aI0
aI0
aI0
aI0
aI0
aI0
aI0
aI0
aI0
aI0
aI0
aI0
aI0
aI0
aI0
aI0
aI0
aI0
aI0
aI0
aI0
aI0
aI0
aI0
aI0
aI0
aI0
ag3
(g7
S';@:\x83\x1f*\xd6?'
p95
tp96
Rp97
aI0
aI0
aI0
aI0
aI0
ag3
(g7
S'1\xf4\xba\xdd\x96P\xcb?'
p98
tp99
Rp100
aI0
aI0
aI0
aI0
aI0
aI0
aI0
aI0
aI0
aI0
aI0
aI0
aI0
aI0
aI0
aI0
aI0
aI0
aI0
aI0
aI0
aI0
aI0
aI0
aI0
aI0
aI0
aI0
ag3
(g7
S'\x86K=/\xa8;\x8b?'
p101
tp102
Rp103
asS'assemblage-552-931'
p104
(lp105
I0
aI0
aI0
aI0
aI0
aI0
aI0
aI0
ag3
(g7
S'$\xfe9\xcf\x8b\xdf\xe1?'
p106
tp107
Rp108
aI0
aI0
aI0
aI0
aI0
aI0
aI0
ag3
(g7
S'\xd9L\x8d\x95\xf8\xbe\x82?'
p109
tp110
Rp111
aI0
aI0
ag3
(g7
S'\xc3\xd2B\xd2\x0b\\\xb5?'
p112
tp113
Rp114
aI0
aI0
aI0
aI0
aI0
aI0
aI0
aI0
aI0
aI0
aI0
aI0
aI0
aI0
ag3
(g7
S'\xd1HH\x8a\x9e\xe5\xb2?'
p115
tp116
Rp117
aI0
aI0
aI0
aI0
aI0
aI0
aI0
aI0
aI0
aI0
aI0
ag3
(g7
S'7\x01}\x8dy\x9d\xaa?'
p118
tp119
Rp120
aI0
aI0
aI0
aI0
aI0
aI0
aI0
aI0
aI0
aI0
aI0
aI0
aI0
aI0
aI0
aI0
aI0
aI0
aI0
aI0
aI0
aI0
aI0
aI0
aI0
aI0
aI0
aI0
aI0
aI0
aI0
aI0
aI0
aI0
aI0
aI0
ag3
(g7
S'\xd4P\xb2\x05\xcfm\xa2?'
p121
tp122
Rp123
aI0
aI0
aI0
aI0
aI0
aI0
aI0
aI0
ag3
(g7
S'\xd7\xf5\xec\x16\xac\xb8\x8a?'
p124
tp125
Rp126
ag3
(g7
S'Q\xa1\x04\xbd\xfc\x84\x84?'
p127
tp128
Rp129
aI0
aI0
aI0
aI0
aI0
aI0
aI0
aI0
aI0
aI0
aI0
aI0
aI0
aI0
aI0
aI0
ag3
(g7
S'\xa6&M\x8a\xee\xf5\xbe?'
p130
tp131
Rp132
aI0
aI0
aI0
aI0
aI0
aI0
aI0
aI0
aI0
aI0
aI0
ag3
(g7
S'\xae\xde\xc2\xe2s\xaa\x97?'
p133
tp134
Rp135
asS'assemblage-762-192'
p136
(lp137
I0
aI0
aI0
aI0
aI0
aI0
aI0
ag3
(g7
S'p\x8a\xd46%\xb7\xb0?'
p138
tp139
Rp140
ag3
(g7
S'\xc1\xa6\x1f\x86\xacB\xa8?'
p141
tp142
Rp143
aI0
aI0
aI0
aI0
aI0
aI0
aI0
aI0
aI0
aI0
ag3
(g7
S'\x08v\x1a\x95i\xfd\xc4?'
p144
tp145
Rp146
aI0
aI0
aI0
aI0
aI0
aI0
aI0
aI0
aI0
aI0
aI0
aI0
aI0
aI0
aI0
ag3
(g7
S'\x08\x06\xb6\x0f\xdf\x07\x96?'
p147
tp148
Rp149
aI0
aI0
aI0
aI0
aI0
aI0
aI0
aI0
aI0
aI0
aI0
aI0
aI0
aI0
aI0
aI0
aI0
aI0
aI0
aI0
aI0
aI0
aI0
ag3
(g7
S'\xb5\x9b\xbd\xe45\xe9\xc6?'
p150
tp151
Rp152
aI0
aI0
aI0
aI0
aI0
aI0
aI0
aI0
aI0
aI0
aI0
aI0
aI0
aI0
aI0
aI0
aI0
aI0
aI0
aI0
aI0
aI0
aI0
ag3
(g7
S'\xf3k\xc3v\xe3\xae\x9b?'
p153
tp154
Rp155
aI0
aI0
aI0
aI0
aI0
aI0
aI0
aI0
aI0
ag3
(g7
S'q\x9b\xd4\xc9/!\xc2?'
p156
tp157
Rp158
aI0
aI0
aI0
aI0
aI0
aI0
aI0
aI0
aI0
aI0
aI0
aI0
aI0
aI0
ag3
(g7
S'^\xa1\x8c\xb72o\xd2?'
p159
tp160
Rp161
aI0
ag3
(g7
S'Tc\x96]\x86\xa2\x82?'
p162
tp163
Rp164
aI0
aI0
aI0
ag3
(g7
S'@O\x19\x93|b\x97?'
p165
tp166
Rp167
aI0
aI0
aI0
aI0
aI0
aI0
aI0
ag3
(g7
S'\x8cK]\x07\x19`\x83?'
p168
tp169
Rp170
asS'assemblage-824-497'
p171
(lp172
I0
aI0
aI0
aI0
aI0
aI0
aI0
aI0
aI0
aI0
aI0
aI0
aI0
ag3
(g7
S'l\x86\xfa\x85\xdb}\xa5?'
p173
tp174
Rp175
aI0
aI0
aI0
aI0
aI0
aI0
aI0
aI0
aI0
aI0
aI0
aI0
aI0
aI0
aI0
aI0
aI0
aI0
aI0
aI0
aI0
aI0
aI0
aI0
aI0
aI0
aI0
aI0
aI0
aI0
aI0
aI0
aI0
aI0
aI0
aI0
aI0
aI0
aI0
aI0
aI0
ag3
(g7
S'0\x8f\xf6\x01\x1f\xf5\xcf?'
p176
tp177
Rp178
aI0
aI0
aI0
aI0
aI0
aI0
aI0
aI0
aI0
aI0
aI0
aI0
aI0
aI0
aI0
aI0
aI0
aI0
aI0
aI0
aI0
aI0
aI0
aI0
aI0
aI0
aI0
aI0
aI0
aI0
aI0
aI0
aI0
aI0
aI0
aI0
aI0
ag3
(g7
S'9\xaf\xaa\xad{\xed\xe5?'
p179
tp180
Rp181
aI0
aI0
aI0
aI0
aI0
aI0
aI0
aI0
aI0
aI0
aI0
aI0
aI0
aI0
aI0
aI0
aI0
aI0
aI0
aI0
aI0
aI0
aI0
aI0
aI0
aI0
aI0
aI0
ag3
(g7
S'\xb9KJ\xdev\\\x8a?'
p182
tp183
Rp184
asS'assemblage-602-364'
p185
(lp186
I0
aI0
aI0
aI0
aI0
aI0
aI0
aI0
aI0
aI0
aI0
aI0
aI0
aI0
aI0
aI0
aI0
aI0
aI0
aI0
aI0
aI0
aI0
aI0
aI0
aI0
aI0
aI0
aI0
aI0
aI0
aI0
aI0
aI0
aI0
aI0
aI0
aI0
aI0
aI0
aI0
aI0
aI0
aI0
aI0
aI0
ag3
(g7
S'\xb46\xb0`u\xa5\xb1?'
p187
tp188
Rp189
aI0
aI0
aI0
aI0
aI0
aI0
aI0
aI0
aI0
aI0
aI0
aI0
aI0
aI0
aI0
aI0
aI0
aI0
aI0
aI0
aI0
aI0
aI0
aI0
aI0
aI0
aI0
aI0
aI0
aI0
aI0
aI0
aI0
aI0
aI0
aI0
aI0
aI0
ag3
(g7
S'\x97kA\xf3\xa8)\x80?'
p190
tp191
Rp192
ag3
(g7
S'\x8f\xc3N\xd6\xa0,p?'
p193
tp194
Rp195
aI0
aI0
aI0
aI0
aI0
aI0
aI0
aI0
aI0
aI0
aI0
aI0
aI0
aI0
aI0
aI0
aI0
aI0
aI0
aI0
aI0
aI0
aI0
ag3
(g7
S'c\x0b\xae\xbe\x8a\xc6\xec?'
p196
tp197
Rp198
aI0
aI0
aI0
aI0
aI0
aI0
aI0
aI0
aI0
aI0
aI0
ag3
(g7
S'\x02\x13\xf4\xec:<\x8b?'
p199
tp200
Rp201
asS'assemblage-786-609'
p202
(lp203
I0
aI0
aI0
aI0
aI0
aI0
aI0
aI0
aI0
aI0
aI0
aI0
aI0
aI0
aI0
aI0
aI0
aI0
aI0
ag3
(g7
S'\x0e\x7f\x9e\xf5\xa8\x02\xe3?'
p204
tp205
Rp206
aI0
aI0
aI0
aI0
aI0
aI0
aI0
aI0
aI0
aI0
aI0
aI0
aI0
aI0
ag3
(g7
S'\xfe\x8e\xdbUe\x9f\xa9?'
p207
tp208
Rp209
aI0
aI0
aI0
aI0
aI0
aI0
aI0
aI0
aI0
aI0
aI0
aI0
aI0
aI0
aI0
aI0
aI0
aI0
aI0
aI0
aI0
aI0
aI0
aI0
aI0
aI0
aI0
aI0
aI0
aI0
aI0
aI0
aI0
aI0
aI0
aI0
aI0
aI0
aI0
aI0
aI0
aI0
aI0
aI0
aI0
aI0
aI0
aI0
aI0
aI0
aI0
aI0
aI0
ag3
(g7
S'j<\xd2e\x82\x90\x99?'
p210
tp211
Rp212
aI0
aI0
aI0
aI0
ag3
(g7
S'6\xec\xbb\xed\x10\x17\xab?'
p213
tp214
Rp215
aI0
aI0
aI0
aI0
aI0
aI0
aI0
aI0
aI0
aI0
aI0
aI0
aI0
aI0
aI0
aI0
ag3
(g7
S'\x1f\xd5\xc8lo\x8e\xc5?'
p216
tp217
Rp218
aI0
aI0
aI0
aI0
aI0
aI0
aI0
ag3
(g7
S'\xd7k\xd8\x189v\xa0?'
p219
tp220
Rp221
ag3
(g7
S'K\x8dn\xe8\xb3\xcd\x99?'
p222
tp223
Rp224
aI0
aI0
ag3
(g7
S'?%9\xf3%N\xa1?'
p225
tp226
Rp227
asS'assemblage-427-368'
p228
(lp229
I0
aI0
aI0
aI0
aI0
aI0
aI0
aI0
ag3
(g7
S'U\x10Xu&\x8f\xa9?'
p230
tp231
Rp232
aI0
aI0
aI0
aI0
aI0
aI0
aI0
aI0
aI0
aI0
ag3
(g7
S'\xa6c\xf61\xd5\xb5\xb5?'
p233
tp234
Rp235
aI0
aI0
aI0
aI0
aI0
aI0
aI0
aI0
aI0
aI0
aI0
aI0
aI0
aI0
aI0
aI0
aI0
aI0
aI0
aI0
aI0
aI0
aI0
aI0
aI0
aI0
aI0
ag3
(g7
S'\xa5.\xb48\x88\xe2\x7f?'
p236
tp237
Rp238
aI0
aI0
aI0
aI0
ag3
(g7
S'`\x9f2\x94\x13\x15\x91?'
p239
tp240
Rp241
aI0
ag3
(g7
S'$\x02\xca1\x92`\xa3?'
p242
tp243
Rp244
aI0
aI0
aI0
aI0
ag3
(g7
S'\xef\xb5S\x88;\xcd\xd4?'
p245
tp246
Rp247
aI0
aI0
aI0
aI0
aI0
aI0
aI0
aI0
aI0
aI0
aI0
aI0
aI0
aI0
aI0
aI0
aI0
aI0
aI0
aI0
aI0
aI0
aI0
ag3
(g7
S'{\x9a\xa6M\xec\xad\xb2?'
p248
tp249
Rp250
aI0
aI0
aI0
aI0
aI0
aI0
aI0
aI0
aI0
ag3
(g7
S'^\x0e@h\xaco\x9b?'
p251
tp252
Rp253
aI0
aI0
aI0
aI0
aI0
aI0
aI0
aI0
aI0
aI0
aI0
aI0
aI0
aI0
ag3
(g7
S'\xc0\x96\xaa\x92,\x14\xbe?'
p254
tp255
Rp256
aI0
ag3
(g7
S'A\x04\xa9\xe8W@\xcd?'
p257
tp258
Rp259
aI0
aI0
aI0
aI0
aI0
aI0
aI0
aI0
aI0
aI0
aI0
ag3
(g7
S'b\x85\x82\xda\xc9\xa5\x82?'
p260
tp261
Rp262
asS'assemblage-553-938'
p263
(lp264
I0
aI0
aI0
aI0
aI0
aI0
aI0
aI0
ag3
(g7
S'%\xf7\x16\xa7m\x9e\xa7?'
p265
tp266
Rp267
aI0
aI0
aI0
aI0
aI0
aI0
aI0
aI0
aI0
aI0
ag3
(g7
S'\xe5\x14~\x01\x9e\xb9\xcb?'
p268
tp269
Rp270
aI0
aI0
aI0
aI0
aI0
aI0
aI0
aI0
aI0
aI0
aI0
aI0
aI0
aI0
ag3
(g7
S'\xac\xb9\x98J9\xfc\xcc?'
p271
tp272
Rp273
aI0
ag3
(g7
S'\xbc\xf6\x11\x0f\xe9\x1f\x82?'
p274
tp275
Rp276
aI0
aI0
aI0
aI0
aI0
aI0
aI0
aI0
aI0
ag3
(g7
S'\x9e\x03-f\xb8\x16|?'
p277
tp278
Rp279
aI0
aI0
aI0
aI0
aI0
aI0
aI0
aI0
aI0
aI0
aI0
aI0
aI0
aI0
aI0
aI0
aI0
aI0
aI0
aI0
aI0
aI0
aI0
aI0
aI0
aI0
aI0
aI0
aI0
aI0
aI0
aI0
aI0
aI0
aI0
aI0
aI0
aI0
aI0
aI0
aI0
aI0
aI0
aI0
aI0
aI0
ag3
(g7
S'\x19\xb8\xd8\x1f\x14\xf0\xdc?'
p280
tp281
Rp282
aI0
aI0
aI0
aI0
aI0
aI0
aI0
aI0
aI0
aI0
aI0
aI0
aI0
aI0
ag3
(g7
S'\xed\xa7\xf5\x7fn\x0e\x8a?'
p283
tp284
Rp285
aI0
aI0
aI0
aI0
aI0
aI0
aI0
aI0
aI0
aI0
aI0
aI0
aI0
ag3
(g7
S'S\rC,\xf1"\x8b?'
p286
tp287
Rp288
asS'assemblage-806-473'
p289
(lp290
I0
aI0
aI0
aI0
aI0
aI0
aI0
aI0
ag3
(g7
S'j M\x9a\xa1\x19\xd9?'
p291
tp292
Rp293
aI0
aI0
ag3
(g7
S'\xb2\x15\xffA\x0c\x10\xb7?'
p294
tp295
Rp296
aI0
aI0
aI0
ag3
(g7
S'`u\xfa\x8f\xb3\x90\xab?'
p297
tp298
Rp299
aI0
aI0
aI0
ag3
(g7
S'\x12\x95p*@\xa5\x9b?'
p300
tp301
Rp302
aI0
aI0
aI0
aI0
aI0
aI0
aI0
aI0
aI0
aI0
aI0
aI0
aI0
aI0
aI0
aI0
aI0
aI0
aI0
aI0
aI0
aI0
aI0
aI0
aI0
aI0
ag3
(g7
S'\x89\x8bX\xe7S\n\xa0?'
p303
tp304
Rp305
aI0
aI0
aI0
aI0
aI0
aI0
aI0
aI0
aI0
aI0
aI0
aI0
aI0
aI0
aI0
aI0
aI0
aI0
aI0
aI0
aI0
aI0
aI0
aI0
aI0
aI0
aI0
aI0
aI0
aI0
aI0
aI0
aI0
aI0
aI0
aI0
ag3
(g7
S'E\x9a\xac\r\xa58\xbd?'
p306
tp307
Rp308
aI0
aI0
aI0
aI0
aI0
aI0
aI0
aI0
aI0
aI0
aI0
aI0
aI0
aI0
aI0
aI0
aI0
aI0
aI0
aI0
aI0
aI0
aI0
aI0
ag3
(g7
S'\xce*\xcd#\xf6a\x9b?'
p309
tp310
Rp311
aI0
ag3
(g7
S'\x14\xf1\xbb\x80\x0e\x8b\xb5?'
p312
tp313
Rp314
aI0
aI0
aI0
ag3
(g7
S'a\xd1\x1a7\x9a\xcd\xbe?'
p315
tp316
Rp317
aI0
aI0
aI0
aI0
aI0
aI0
aI0
ag3
(g7
S'0\xb4X\xec^\xde\xa2?'
p318
tp319
Rp320
asS'assemblage-555-968'
p321
(lp322
I0
ag3
(g7
S'\x11\xbe\xc5\x99\xaahl?'
p323
tp324
Rp325
aI0
aI0
aI0
aI0
aI0
aI0
ag3
(g7
S'W\x05\xe5\x8a\x0fe\xc2?'
p326
tp327
Rp328
aI0
aI0
ag3
(g7
S'3n\x9e\xcaf\x13\xa0?'
p329
tp330
Rp331
aI0
aI0
aI0
aI0
aI0
aI0
aI0
ag3
(g7
S'q\x8e\xbaH\xda\xce\xc8?'
p332
tp333
Rp334
aI0
aI0
aI0
ag3
(g7
S'<\xf9\xefI\x8c\xcc\x9c?'
p335
tp336
Rp337
aI0
aI0
aI0
aI0
aI0
aI0
aI0
aI0
aI0
aI0
aI0
aI0
aI0
aI0
aI0
aI0
aI0
aI0
aI0
aI0
aI0
aI0
ag3
(g7
S"Q\xf6\x16'`\x06\x91?"
p338
tp339
Rp340
aI0
aI0
aI0
ag3
(g7
S't\xb9\xef\xfaG\xea\xc4?'
p341
tp342
Rp343
aI0
aI0
aI0
aI0
aI0
aI0
aI0
aI0
aI0
aI0
aI0
aI0
aI0
aI0
aI0
aI0
aI0
aI0
aI0
aI0
aI0
aI0
aI0
aI0
aI0
aI0
aI0
aI0
aI0
aI0
aI0
aI0
ag3
(g7
S'\r\xf2\x16\x0c\x04\xdd\xaa?'
p344
tp345
Rp346
aI0
aI0
aI0
aI0
aI0
aI0
aI0
aI0
aI0
ag3
(g7
S'\x10\xe6\x00\xa6;\xe6\xd2?'
p347
tp348
Rp349
aI0
aI0
aI0
aI0
aI0
aI0
aI0
aI0
aI0
aI0
aI0
aI0
ag3
(g7
S'.\xd6k\xb5\x18\x88\xa0?'
p350
tp351
Rp352
aI0
aI0
aI0
aI0
aI0
aI0
aI0
aI0
aI0
aI0
aI0
aI0
aI0
aI0
aI0
ag3
(g7
S'\xd1$\xaa\x8b\xda2\x8f?'
p353
tp354
Rp355
asS'assemblage-766-207'
p356
(lp357
I0
aI0
aI0
aI0
aI0
aI0
aI0
aI0
ag3
(g7
S'u\xf4#\xe3\x7f\xd4\xc7?'
p358
tp359
Rp360
aI0
aI0
ag3
(g7
S'\xce\x06GmT\x94\xbe?'
p361
tp362
Rp363
aI0
aI0
aI0
ag3
(g7
S'\xc3^\xf8\x81\x1d\x04\xa0?'
p364
tp365
Rp366
aI0
aI0
aI0
ag3
(g7
S'\xb2\x7f\x06\xe0\x92>|?'
p367
tp368
Rp369
aI0
aI0
aI0
aI0
aI0
aI0
aI0
aI0
aI0
aI0
aI0
aI0
aI0
aI0
aI0
aI0
aI0
aI0
aI0
aI0
aI0
aI0
aI0
aI0
aI0
aI0
ag3
(g7
S'\xee\xde\xac\xbc\x8b<\xa8?'
p370
tp371
Rp372
aI0
aI0
aI0
aI0
aI0
aI0
aI0
aI0
aI0
aI0
aI0
aI0
ag3
(g7
S'`\xca\x81\x1e\xa7\x10\x84?'
p373
tp374
Rp375
aI0
aI0
aI0
aI0
aI0
aI0
aI0
aI0
aI0
aI0
aI0
aI0
aI0
aI0
aI0
aI0
aI0
aI0
aI0
aI0
aI0
aI0
aI0
ag3
(g7
S's88\x8f56\xaa?'
p376
tp377
Rp378
aI0
aI0
aI0
aI0
aI0
aI0
aI0
aI0
aI0
ag3
(g7
S'y\xdf\xb3Q\x16\xa7\x85?'
p379
tp380
Rp381
ag3
(g7
S'\x9a!\xc7aW\x07\xa8?'
p382
tp383
Rp384
aI0
aI0
aI0
aI0
aI0
aI0
aI0
aI0
aI0
aI0
aI0
aI0
aI0
ag3
(g7
S'\x1exZ\xc5{\x7f\xbe?'
p385
tp386
Rp387
aI0
ag3
(g7
S'\xb2Z\riO\xfd\xd3?'
p388
tp389
Rp390
aI0
aI0
aI0
ag3
(g7
S'\xa80)\x0c{\x9e\x8d?'
p391
tp392
Rp393
aI0
aI0
aI0
aI0
aI0
aI0
aI0
ag3
(g7
S'F\x85v\x84\x8c\xab\x93?'
p394
tp395
Rp396
asS'assemblage-423-385'
p397
(lp398
I0
aI0
aI0
aI0
ag3
(g7
S'\xbc\x12?\xc3g\x9d\x98?'
p399
tp400
Rp401
aI0
aI0
aI0
ag3
(g7
S'\x97\x1a\xde\x9c\xac\x8f\x97?'
p402
tp403
Rp404
aI0
aI0
aI0
aI0
aI0
aI0
aI0
aI0
aI0
aI0
ag3
(g7
S'\xe77\x90\xd8^C\xb6?'
p405
tp406
Rp407
aI0
aI0
aI0
aI0
aI0
aI0
aI0
aI0
aI0
aI0
aI0
aI0
aI0
aI0
aI0
aI0
aI0
aI0
aI0
aI0
aI0
aI0
aI0
aI0
aI0
aI0
aI0
aI0
aI0
aI0
aI0
aI0
aI0
aI0
aI0
aI0
aI0
aI0
aI0
ag3
(g7
S'B+\x94\x9d\x96\xc6\xd3?'
p408
tp409
Rp410
aI0
aI0
aI0
aI0
aI0
aI0
aI0
aI0
aI0
aI0
aI0
aI0
aI0
aI0
aI0
aI0
aI0
aI0
aI0
aI0
aI0
aI0
aI0
ag3
(g7
S'\n\x8bNXN\xe7\xc2?'
p411
tp412
Rp413
aI0
aI0
aI0
aI0
aI0
aI0
aI0
aI0
aI0
ag3
(g7
S'\x93p\xd0\x8b\x8f\x90\xa7?'
p414
tp415
Rp416
aI0
aI0
aI0
aI0
aI0
aI0
aI0
aI0
aI0
aI0
aI0
aI0
aI0
aI0
ag3
(g7
S'.U\xf3ACX\x96?'
p417
tp418
Rp419
aI0
ag3
(g7
S'\xc6\xb3b^|R\xd2?'
p420
tp421
Rp422
aI0
aI0
aI0
aI0
aI0
aI0
aI0
aI0
aI0
aI0
aI0
ag3
(g7
S'\x80\xa9\xf9\x954v\xa1?'
p423
tp424
Rp425
asS'assemblage-748-616'
p426
(lp427
I0
aI0
aI0
aI0
aI0
aI0
aI0
aI0
ag3
(g7
S'\x0c\xb2L\xd45\xaa\xb0?'
p428
tp429
Rp430
aI0
aI0
aI0
aI0
aI0
aI0
aI0
aI0
aI0
aI0
ag3
(g7
S'.\xfe\xf0/\x9cJ\x9e?'
p431
tp432
Rp433
aI0
aI0
aI0
aI0
aI0
aI0
aI0
aI0
aI0
aI0
aI0
aI0
aI0
aI0
aI0
aI0
aI0
aI0
aI0
aI0
aI0
aI0
aI0
aI0
aI0
aI0
aI0
aI0
aI0
aI0
aI0
aI0
ag3
(g7
S'\xab\xff\xedgD^\xb8?'
p434
tp435
Rp436
aI0
aI0
aI0
aI0
aI0
aI0
ag3
(g7
S'\xbb\xa1~\xee\x14H\xd6?'
p437
tp438
Rp439
aI0
aI0
aI0
aI0
aI0
aI0
aI0
aI0
aI0
aI0
aI0
aI0
aI0
aI0
aI0
aI0
aI0
aI0
aI0
aI0
aI0
ag3
(g7
S'\xce\x0e5\x9b[f\x96?'
p440
tp441
Rp442
aI0
ag3
(g7
S'\x85\x02eu\xbb\x9e\xc2?'
p443
tp444
Rp445
aI0
aI0
aI0
aI0
aI0
aI0
aI0
aI0
aI0
ag3
(g7
S'\xb6\xf3\xb7\xcc\xb6\xef\xad?'
p446
tp447
Rp448
aI0
aI0
aI0
aI0
aI0
aI0
aI0
aI0
aI0
aI0
aI0
aI0
aI0
aI0
ag3
(g7
S'V\x11\xd8m\x93p\xa9?'
p449
tp450
Rp451
aI0
ag3
(g7
S'4\x00\xb7\x1f\xc9\xa5\xc1?'
p452
tp453
Rp454
aI0
aI0
aI0
aI0
aI0
aI0
aI0
aI0
aI0
aI0
aI0
ag3
(g7
S'd\xe9\xf9\xf8\xa6\xab\x99?'
p455
tp456
Rp457
asS'assemblage-222-397'
p458
(lp459
I0
aI0
aI0
aI0
aI0
aI0
aI0
aI0
ag3
(g7
S'yt\xbaSw\x9e\xb4?'
p460
tp461
Rp462
aI0
aI0
aI0
aI0
aI0
aI0
aI0
aI0
aI0
aI0
ag3
(g7
S'\xed\x86\xe5\xe7\x8f~\xaf?'
p463
tp464
Rp465
aI0
aI0
aI0
aI0
aI0
aI0
aI0
aI0
aI0
aI0
aI0
aI0
aI0
aI0
ag3
(g7
S'\x93\xc2\x93S\x91\xa4\xd0?'
p466
tp467
Rp468
aI0
aI0
aI0
aI0
aI0
aI0
aI0
aI0
aI0
aI0
aI0
aI0
aI0
ag3
(g7
S'\xde3\xad\xf4\xe3p\xae?'
p469
tp470
Rp471
aI0
aI0
ag3
(g7
S'\x8b8\xf4\xf9\x00\xe6\x81?'
p472
tp473
Rp474
aI0
aI0
aI0
aI0
aI0
aI0
aI0
aI0
aI0
aI0
aI0
aI0
aI0
aI0
aI0
aI0
aI0
aI0
aI0
aI0
aI0
aI0
aI0
aI0
aI0
aI0
aI0
aI0
aI0
aI0
aI0
aI0
aI0
aI0
aI0
ag3
(g7
S'\xa3Xx}\x1a\xf5\xd7?'
p475
tp476
Rp477
aI0
aI0
aI0
aI0
aI0
ag3
(g7
S'\xbej\x02\x86bT\xc0?'
p478
tp479
Rp480
aI0
aI0
aI0
aI0
aI0
aI0
aI0
aI0
aI0
aI0
aI0
aI0
aI0
aI0
aI0
aI0
aI0
aI0
aI0
aI0
aI0
aI0
aI0
aI0
aI0
aI0
aI0
aI0
ag3
(g7
S'\xec\xab\xf0\x11\xed\xf5\x81?'
p481
tp482
Rp483
asS'assemblage-640-811'
p484
(lp485
I0
ag3
(g7
S'\xb1\xbd&S\xda\x14\xc4?'
p486
tp487
Rp488
aI0
aI0
aI0
aI0
ag3
(g7
S'\x9f\x81\x8e\xb8\xa97\x8e?'
p489
tp490
Rp491
aI0
ag3
(g7
S'\x99\xa1(\xd17r\x88?'
p492
tp493
Rp494
aI0
aI0
aI0
aI0
aI0
aI0
aI0
aI0
aI0
aI0
ag3
(g7
S'H&\x88C9\x91\xa0?'
p495
tp496
Rp497
ag3
(g7
S'\x06zLFn\xab\xd2?'
p498
tp499
Rp500
aI0
aI0
aI0
aI0
aI0
aI0
aI0
aI0
aI0
aI0
aI0
aI0
aI0
ag3
(g7
S'+\x88s\xdd\x91R\xc2?'
p501
tp502
Rp503
aI0
aI0
aI0
aI0
aI0
aI0
aI0
aI0
aI0
aI0
aI0
aI0
aI0
ag3
(g7
S'a\xddB\xb2\xd7ly?'
p504
tp505
Rp506
aI0
aI0
aI0
aI0
aI0
aI0
aI0
aI0
aI0
aI0
aI0
aI0
aI0
aI0
aI0
aI0
aI0
aI0
aI0
aI0
aI0
aI0
aI0
aI0
aI0
aI0
aI0
aI0
aI0
aI0
aI0
aI0
aI0
aI0
aI0
aI0
aI0
aI0
ag3
(g7
S'E\xe05\x9cX\xb6\xce?'
p507
tp508
Rp509
aI0
aI0
aI0
aI0
aI0
ag3
(g7
S'\xb7\xed\xb1\xec\xff/\xb1?'
p510
tp511
Rp512
aI0
aI0
aI0
aI0
aI0
aI0
aI0
aI0
aI0
aI0
aI0
aI0
aI0
aI0
aI0
aI0
aI0
aI0
aI0
aI0
aI0
aI0
aI0
aI0
aI0
aI0
aI0
aI0
ag3
(g7
S'9|\x8d\xae\x1d\x01\x8e?'
p513
tp514
Rp515
asS'assemblage-420-380'
p516
(lp517
I0
aI0
aI0
aI0
aI0
aI0
aI0
aI0
aI0
aI0
aI0
aI0
aI0
aI0
aI0
aI0
aI0
aI0
aI0
ag3
(g7
S"q\t\xe2\xfb\x8e'\xa7?"
p518
tp519
Rp520
aI0
aI0
aI0
aI0
aI0
aI0
aI0
aI0
aI0
aI0
aI0
aI0
aI0
aI0
aI0
aI0
aI0
aI0
aI0
aI0
aI0
aI0
ag3
(g7
S'\x86\xef\x84y\xf2@\x9c?'
p521
tp522
Rp523
ag3
(g7
S'@\xe3\x0c#\xb8\x91\xa2?'
p524
tp525
Rp526
aI0
aI0
ag3
(g7
S'\x1bD\xdf\xf9\xfce\x82?'
p527
tp528
Rp529
aI0
aI0
aI0
aI0
aI0
aI0
aI0
aI0
aI0
aI0
aI0
aI0
aI0
aI0
aI0
aI0
aI0
ag3
(g7
S'\x0ek\xdd.\xf2\x1f~?'
p530
tp531
Rp532
aI0
aI0
aI0
aI0
aI0
aI0
aI0
aI0
aI0
aI0
aI0
aI0
aI0
aI0
aI0
aI0
aI0
aI0
ag3
(g7
S'i\x91R\x8c\x8bB\xc7?'
p533
tp534
Rp535
aI0
aI0
aI0
aI0
aI0
aI0
aI0
aI0
aI0
ag3
(g7
S'\xc8\xcd\x03\xe5QU\xd8?'
p536
tp537
Rp538
aI0
aI0
aI0
aI0
aI0
aI0
aI0
aI0
aI0
aI0
aI0
aI0
aI0
aI0
aI0
aI0
ag3
(g7
S'\x05\xa4\xee\xb0\xbeB\xc2?'
p539
tp540
Rp541
aI0
aI0
aI0
ag3
(g7
S'[\xf1\xbe\x94\x90@\xc2?'
p542
tp543
Rp544
aI0
aI0
aI0
aI0
aI0
aI0
aI0
ag3
(g7
S'\x92\x19\xb3\xa3\x10Rx?'
p545
tp546
Rp547
asS'assemblage-846-466'
p548
(lp549
I0
aI0
aI0
aI0
aI0
aI0
aI0
aI0
ag3
(g7
S'T\xfd\x06q\xc1l\xc4?'
p550
tp551
Rp552
aI0
aI0
ag3
(g7
S'q%:\r*\t\xc0?'
p553
tp554
Rp555
aI0
aI0
aI0
ag3
(g7
S'\xff71~\xdf\xb9\xa5?'
p556
tp557
Rp558
aI0
aI0
aI0
ag3
(g7
S'\x97\xd5\xf6[H\x17\x91?'
p559
tp560
Rp561
aI0
aI0
aI0
aI0
aI0
aI0
aI0
aI0
aI0
aI0
aI0
aI0
aI0
aI0
aI0
aI0
aI0
ag3
(g7
S'\x9f\xe4|A\x0e\xc5\x83?'
p562
tp563
Rp564
aI0
aI0
aI0
aI0
aI0
aI0
aI0
aI0
ag3
(g7
S'j\x8b\xe204\xfd\xcb?'
p565
tp566
Rp567
aI0
aI0
aI0
aI0
aI0
aI0
aI0
aI0
aI0
aI0
aI0
aI0
aI0
aI0
aI0
aI0
aI0
aI0
aI0
aI0
aI0
aI0
aI0
aI0
aI0
aI0
aI0
aI0
aI0
aI0
aI0
aI0
aI0
aI0
aI0
aI0
ag3
(g7
S'\xf1n/Ipn\xb2?'
p568
tp569
Rp570
aI0
aI0
aI0
aI0
aI0
aI0
aI0
aI0
aI0
ag3
(g7
S'\xcd`\xbehV\xaa\x9e?'
p571
tp572
Rp573
ag3
(g7
S'(*\xd3\x88\xa8N\x9f?'
p574
tp575
Rp576
aI0
aI0
aI0
aI0
aI0
aI0
aI0
aI0
aI0
aI0
aI0
aI0
aI0
ag3
(g7
S'\xd5&\x07[\xd9W\xad?'
p577
tp578
Rp579
aI0
ag3
(g7
S'L\xbd\x1c\x1d\xd2>\xc5?'
p580
tp581
Rp582
aI0
aI0
aI0
ag3
(g7
S'\\\x8e\xe0\xe1\x03Z\xa3?'
p583
tp584
Rp585
aI0
aI0
aI0
aI0
aI0
aI0
aI0
ag3
(g7
S'8\x00$\x8aA`}?'
p586
tp587
Rp588
asS'assemblage-386-616'
p589
(lp590
I0
aI0
aI0
aI0
ag3
(g7
S'\xf6P\x1cR\xc1\x02\xd5?'
p591
tp592
Rp593
aI0
aI0
aI0
aI0
aI0
aI0
aI0
aI0
aI0
aI0
aI0
aI0
aI0
aI0
ag3
(g7
S'{Y\xbf\x8e\xdaM\xdf?'
p594
tp595
Rp596
aI0
aI0
ag3
(g7
S'Gm\xd1\xc1\x04\xa6\x96?'
p597
tp598
Rp599
aI0
aI0
ag3
(g7
S'\xaf!]9\xd3\xd4\x96?'
p600
tp601
Rp602
aI0
aI0
aI0
aI0
aI0
aI0
aI0
aI0
aI0
aI0
aI0
aI0
aI0
aI0
aI0
aI0
aI0
aI0
aI0
aI0
aI0
aI0
aI0
aI0
aI0
aI0
aI0
aI0
aI0
aI0
aI0
aI0
aI0
ag3
(g7
S'\xb7\xb8K,\x13\xe1\xbe?'
p603
tp604
Rp605
aI0
aI0
aI0
aI0
aI0
aI0
aI0
aI0
aI0
aI0
aI0
aI0
aI0
aI0
aI0
aI0
aI0
aI0
aI0
aI0
aI0
aI0
aI0
aI0
aI0
aI0
aI0
aI0
aI0
aI0
aI0
aI0
aI0
aI0
aI0
aI0
aI0
aI0
aI0
aI0
aI0
aI0
aI0
aI0
aI0
aI0
aI0
aI0
aI0
aI0
aI0
aI0
aI0
aI0
aI0
aI0
aI0
aI0
aI0
aI0
aI0
aI0
ag3
(g7
S'V]\x02>\xd2\x8dk?'
p606
tp607
Rp608
as.