(dp0
S'assemblage-622-813'
p1
(lp2
S'assemblage-597-375'
p3
aS'assemblage-206-404'
p4
aS'assemblage-552-931'
p5
aS'assemblage-762-192'
p6
aS'assemblage-824-497'
p7
aS'assemblage-602-364'
p8
aS'assemblage-786-609'
p9
aS'assemblage-427-368'
p10
aS'assemblage-553-938'
p11
aS'assemblage-806-473'
p12
aS'assemblage-555-968'
p13
aS'assemblage-766-207'
p14
aS'assemblage-423-385'
p15
aS'assemblage-748-616'
p16
aS'assemblage-222-397'
p17
aS'assemblage-640-811'
p18
aS'assemblage-420-380'
p19
aS'assemblage-846-466'
p20
aS'assemblage-386-616'
p21
asg3
(lp22
g1
ag4
ag5
ag6
ag7
ag8
ag9
ag10
ag11
ag12
ag13
ag14
ag15
ag16
ag17
ag18
ag19
ag20
ag21
asg4
(lp23
g1
ag3
ag5
ag6
ag7
ag8
ag9
ag10
ag11
ag12
ag13
ag14
ag15
ag16
ag17
ag18
ag19
ag20
ag21
asg5
(lp24
g1
ag3
ag4
ag6
ag7
ag8
ag9
ag10
ag11
ag12
ag13
ag14
ag15
ag16
ag17
ag18
ag19
ag20
ag21
asg6
(lp25
g1
ag3
ag4
ag5
ag7
ag8
ag9
ag10
ag11
ag12
ag13
ag14
ag15
ag16
ag17
ag18
ag19
ag20
ag21
asg21
(lp26
g1
ag3
ag4
ag5
ag6
ag7
ag8
ag9
ag10
ag11
ag12
ag13
ag14
ag15
ag16
ag17
ag18
ag19
ag20
asg10
(lp27
g1
ag3
ag4
ag5
ag6
ag7
ag8
ag9
ag11
ag12
ag13
ag14
ag15
ag16
ag17
ag18
ag19
ag20
ag21
asg8
(lp28
g1
ag3
ag4
ag5
ag6
ag7
ag9
ag10
ag11
ag12
ag13
ag14
ag15
ag16
ag17
ag18
ag19
ag20
ag21
asg12
(lp29
g1
ag3
ag4
ag5
ag6
ag7
ag8
ag9
ag10
ag11
ag13
ag14
ag15
ag16
ag17
ag18
ag19
ag20
ag21
asg13
(lp30
g1
ag3
ag4
ag5
ag6
ag7
ag8
ag9
ag10
ag11
ag12
ag14
ag15
ag16
ag17
ag18
ag19
ag20
ag21
asg7
(lp31
g1
ag3
ag4
ag5
ag6
ag8
ag9
ag10
ag11
ag12
ag13
ag14
ag15
ag16
ag17
ag18
ag19
ag20
ag21
asg15
(lp32
g1
ag3
ag4
ag5
ag6
ag7
ag8
ag9
ag10
ag11
ag12
ag13
ag14
ag16
ag17
ag18
ag19
ag20
ag21
asg16
(lp33
g1
ag3
ag4
ag5
ag6
ag7
ag8
ag9
ag10
ag11
ag12
ag13
ag14
ag15
ag17
ag18
ag19
ag20
ag21
asg17
(lp34
g1
ag3
ag4
ag5
ag6
ag7
ag8
ag9
ag10
ag11
ag12
ag13
ag14
ag15
ag16
ag18
ag19
ag20
ag21
asg19
(lp35
g1
ag3
ag4
ag5
ag6
ag7
ag8
ag9
ag10
ag11
ag12
ag13
ag14
ag15
ag16
ag17
ag18
ag20
ag21
asg14
(lp36
g1
ag3
ag4
ag5
ag6
ag7
ag8
ag9
ag10
ag11
ag12
ag13
ag15
ag16
ag17
ag18
ag19
ag20
ag21
asg18
(lp37
g1
ag3
ag4
ag5
ag6
ag7
ag8
ag9
ag10
ag11
ag12
ag13
ag14
ag15
ag16
ag17
ag19
ag20
ag21
asg11
(lp38
g1
ag3
ag4
ag5
ag6
ag7
ag8
ag9
ag10
ag12
ag13
ag14
ag15
ag16
ag17
ag18
ag19
ag20
ag21
asg20
(lp39
g1
ag3
ag4
ag5
ag6
ag7
ag8
ag9
ag10
ag11
ag12
ag13
ag14
ag15
ag16
ag17
ag18
ag19
ag21
asg9
(lp40
g1
ag3
ag4
ag5
ag6
ag7
ag8
ag10
ag11
ag12
ag13
ag14
ag15
ag16
ag17
ag18
ag19
ag20
ag21
as.