(dp0
S'assemblage-37-57'
p1
(lp2
I0
aI0
aI0
aI0
aI0
aI0
aI0
acnumpy.core.multiarray
scalar
p3
(cnumpy
dtype
p4
(S'f8'
p5
I0
I1
tp6
Rp7
(I3
S'<'
p8
NNNI-1
I-1
I0
tp9
bS'b\xb3\xc4\xd8o\xa6\xef?'
p10
tp11
Rp12
aI0
aI0
aI0
aI0
aI0
aI0
aI0
aI0
aI0
aI0
aI0
ag3
(g7
S'\t\x01\xdcV\xb6\xb5\x86?'
p13
tp14
Rp15
aI0
aI0
aI0
aI0
aI0
asS'assemblage-51-43'
p16
(lp17
I0
aI0
ag3
(g7
S'\xbf\xbb$\x1cr!\xc6?'
p18
tp19
Rp20
aI0
aI0
aI0
aI0
ag3
(g7
S'\x1e\xef\xa8\x06\x8a5\xd0?'
p21
tp22
Rp23
aI0
ag3
(g7
S'\xd4^.}\xc8\x8c\xb5?'
p24
tp25
Rp26
ag3
(g7
S'\xaf4\xb9x\x15\xbc\xc8?'
p27
tp28
Rp29
aI0
ag3
(g7
S'Sd\xed\xb8\xc9 \xd0?'
p30
tp31
Rp32
aI0
aI0
aI0
aI0
ag3
(g7
S'\xc3\xedF\xb7%\xe7b?'
p33
tp34
Rp35
aI0
aI0
aI0
aI0
ag3
(g7
S'\xe7\xf8RhS\x96\xa9?'
p36
tp37
Rp38
aI0
aI0
asS'assemblage-32-5'
p39
(lp40
I0
aI0
aI0
aI0
aI0
aI0
aI0
aI0
aI0
aI0
ag3
(g7
S'\xdeU\x80\xc9N\xbf\xe4?'
p41
tp42
Rp43
aI0
ag3
(g7
S'\xc7\xa4\xfeN9|Z?'
p44
tp45
Rp46
aI0
aI0
aI0
aI0
aI0
aI0
aI0
aI0
aI0
ag3
(g7
S'\xc1\xd90\xda\xf2\xaa\xd6?'
p47
tp48
Rp49
aI0
aI0
asS'assemblage-67-29'
p50
(lp51
I0
aI0
ag3
(g7
S"\xef\xa2\xee{\xe7'\x98?"
p52
tp53
Rp54
aI0
aI0
aI0
aI0
ag3
(g7
S'\xa5n\xee\x10\xe4\x92t?'
p55
tp56
Rp57
aI0
aI0
ag3
(g7
S'a\x90Q\x8d\x80Z\xe2?'
p58
tp59
Rp60
aI0
ag3
(g7
S'\x07\xcf\x0f\xec\xda\xbc\xd9?'
p61
tp62
Rp63
aI0
aI0
aI0
aI0
aI0
aI0
aI0
aI0
aI0
ag3
(g7
S'\xb3\x05\x1dos\x9b=?'
p64
tp65
Rp66
aI0
aI0
asS'assemblage-28-69'
p67
(lp68
I0
aI0
ag3
(g7
S'l!\x0f\x14\x1bu\xbc?'
p69
tp70
Rp71
aI0
aI0
aI0
aI0
ag3
(g7
S'\xf7\xe0p\xc6\x9f\xd2\x8b?'
p72
tp73
Rp74
aI0
aI0
ag3
(g7
S'\xc5<\xc4\xec\xeeI\xb2?'
p75
tp76
Rp77
aI0
ag3
(g7
S'\xdc\xa4Q\xe6M\xce\xe9?'
p78
tp79
Rp80
aI0
aI0
aI0
aI0
ag3
(g7
S'~_\xa2\xcc\x7fY[?'
p81
tp82
Rp83
aI0
aI0
aI0
aI0
aI0
aI0
aI0
asS'assemblage-55-47'
p84
(lp85
I0
aI0
aI0
aI0
aI0
aI0
aI0
aI0
aI0
aI0
aI0
aI0
ag3
(g7
S'9\x83\x8c\xc7\xa4\xd6\xef?'
p86
tp87
Rp88
aI0
aI0
aI0
aI0
ag3
(g7
S'\r\xe5G\xd0\x97\xafv?'
p89
tp90
Rp91
aI0
aI0
aI0
aI0
aI0
aI0
aI0
asS'assemblage-50-41'
p92
(lp93
I0
aI0
aI0
aI0
aI0
aI0
aI0
aI0
aI0
aI0
ag3
(g7
S'\xd5\x1f;D&\xbe\xe9?'
p94
tp95
Rp96
aI0
aI0
aI0
aI0
aI0
aI0
aI0
aI0
aI0
aI0
aI0
ag3
(g7
S'\x8c\\\xb9H\xc7i\xc9?'
p97
tp98
Rp99
aI0
aI0
asS'assemblage-46-35'
p100
(lp101
I0
aI0
aI0
aI0
aI0
aI0
aI0
ag3
(g7
S'#\xfc\xa5\xed\xeb\xff\xef?'
p102
tp103
Rp104
aI0
aI0
aI0
aI0
aI0
aI0
ag3
(g7
S'@\x9b\x99\x17)\xca\xef>'
p105
tp106
Rp107
aI0
aI0
aI0
aI0
aI0
aI0
aI0
aI0
aI0
aI0
asS'assemblage-3-16'
p108
(lp109
I0
aI0
aI0
aI0
aI0
aI0
aI0
ag3
(g7
S'\xa3\x03\x17:l\xff\xef?'
p110
tp111
Rp112
aI0
aI0
aI0
ag3
(g7
S'\x99h\xa4;\x03\xa4\xf4>'
p113
tp114
Rp115
aI0
aI0
aI0
aI0
aI0
aI0
aI0
aI0
aI0
ag3
(g7
S'\xbel\x95\x06o$\x11?'
p116
tp117
Rp118
aI0
aI0
aI0
asS'assemblage-1-73'
p119
(lp120
I0
aI0
aI0
aI0
aI0
aI0
aI0
ag3
(g7
S'\x00\x00\x00\x00\x00\x00\xf0?'
p121
tp122
Rp123
aI0
aI0
aI0
aI0
aI0
aI0
aI0
aI0
aI0
aI0
aI0
aI0
aI0
aI0
aI0
aI0
aI0
as.