(dp0
S'assemblage-337-810'
p1
(lp2
F0.0
aF0.0
aF0.0
aF0.0
aF0.01
aF0.0
aF0.0
aF0.0
aF0.0
aF0.0
aF0.0
aF0.0
aF0.0
aF0.0
aF0.0
aF0.0
aF0.244
aF0.0
aF0.0
aF0.016
aF0.0
aF0.0
aF0.0
aF0.0
aF0.0
aF0.0
aF0.0
aF0.0
aF0.108
aF0.0
aF0.0
aF0.424
aF0.0
aF0.0
aF0.0
aF0.024
aF0.0
aF0.0
aF0.1
aF0.0
aF0.0
aF0.0
aF0.0
aF0.0
aF0.0
aF0.0
aF0.0
aF0.0
aF0.0
aF0.0
aF0.0
aF0.0
aF0.018
aF0.0
aF0.0
aF0.0
aF0.0
aF0.0
aF0.0
aF0.0
aF0.0
aF0.0
aF0.0
aF0.0
aF0.0
aF0.0
aF0.0
aF0.0
aF0.0
aF0.0
aF0.056
asS'assemblage-168-128'
p3
(lp4
F0.0
aF0.0
aF0.036
aF0.0
aF0.262
aF0.0
aF0.0
aF0.0
aF0.0
aF0.0
aF0.0
aF0.0
aF0.058
aF0.0
aF0.0
aF0.0
aF0.134
aF0.024
aF0.0
aF0.0
aF0.0
aF0.364
aF0.0
aF0.0
aF0.0
aF0.0
aF0.0
aF0.0
aF0.0
aF0.0
aF0.0
aF0.0
aF0.0
aF0.0
aF0.0
aF0.0
aF0.0
aF0.0
aF0.062
aF0.0
aF0.0
aF0.0
aF0.0
aF0.0
aF0.0
aF0.024
aF0.0
aF0.0
aF0.0
aF0.0
aF0.0
aF0.0
aF0.0
aF0.0
aF0.0
aF0.0
aF0.0
aF0.0
aF0.0
aF0.0
aF0.0
aF0.0
aF0.0
aF0.0
aF0.0
aF0.0
aF0.0
aF0.0
aF0.0
aF0.0
aF0.036
asS'assemblage-403-489'
p5
(lp6
F0.0
aF0.0
aF0.0
aF0.0
aF0.028
aF0.0
aF0.054
aF0.0
aF0.0
aF0.0
aF0.0
aF0.068
aF0.0
aF0.0
aF0.0
aF0.0
aF0.014
aF0.0
aF0.0
aF0.0
aF0.022
aF0.0
aF0.0
aF0.0
aF0.0
aF0.0
aF0.0
aF0.226
aF0.0
aF0.0
aF0.0
aF0.162
aF0.0
aF0.0
aF0.042
aF0.178
aF0.0
aF0.0
aF0.142
aF0.018
aF0.0
aF0.0
aF0.0
aF0.0
aF0.008
aF0.0
aF0.0
aF0.0
aF0.0
aF0.0
aF0.0
aF0.0
aF0.0
aF0.0
aF0.0
aF0.0
aF0.0
aF0.0
aF0.0
aF0.0
aF0.0
aF0.0
aF0.0
aF0.0
aF0.0
aF0.0
aF0.0
aF0.0
aF0.0
aF0.0
aF0.038
asS'assemblage-462-472'
p7
(lp8
F0.0
aF0.0
aF0.0
aF0.0
aF0.022
aF0.0
aF0.066
aF0.0
aF0.0
aF0.0
aF0.0
aF0.076
aF0.0
aF0.0
aF0.0
aF0.0
aF0.016
aF0.0
aF0.0
aF0.0
aF0.026
aF0.0
aF0.0
aF0.0
aF0.0
aF0.0
aF0.0
aF0.206
aF0.0
aF0.0
aF0.0
aF0.18
aF0.0
aF0.0
aF0.022
aF0.178
aF0.0
aF0.0
aF0.16
aF0.01
aF0.0
aF0.0
aF0.0
aF0.0
aF0.012
aF0.0
aF0.0
aF0.0
aF0.0
aF0.0
aF0.0
aF0.0
aF0.0
aF0.0
aF0.0
aF0.0
aF0.0
aF0.0
aF0.0
aF0.0
aF0.0
aF0.0
aF0.0
aF0.0
aF0.0
aF0.0
aF0.0
aF0.0
aF0.0
aF0.0
aF0.026
asS'assemblage-389-507'
p9
(lp10
F0.0
aF0.0
aF0.0
aF0.0
aF0.63
aF0.0
aF0.0
aF0.0
aF0.0
aF0.0
aF0.0
aF0.0
aF0.0
aF0.0
aF0.0
aF0.0
aF0.03
aF0.0
aF0.0
aF0.0
aF0.0
aF0.0
aF0.0
aF0.0
aF0.0
aF0.0
aF0.0
aF0.0
aF0.0
aF0.0
aF0.0
aF0.008
aF0.0
aF0.0
aF0.0
aF0.172
aF0.0
aF0.0
aF0.046
aF0.006
aF0.0
aF0.0
aF0.0
aF0.0
aF0.0
aF0.0
aF0.0
aF0.0
aF0.0
aF0.0
aF0.0
aF0.0
aF0.0
aF0.0
aF0.0
aF0.0
aF0.0
aF0.052
aF0.0
aF0.0
aF0.0
aF0.0
aF0.0
aF0.0
aF0.0
aF0.0
aF0.0
aF0.0
aF0.0
aF0.0
aF0.056
asS'assemblage-820-776'
p11
(lp12
F0.0
aF0.0
aF0.0
aF0.0
aF0.0
aF0.0
aF0.0
aF0.0
aF0.0
aF0.04
aF0.0
aF0.0
aF0.0
aF0.0
aF0.0
aF0.0
aF0.0
aF0.0
aF0.0
aF0.0
aF0.0
aF0.0
aF0.0
aF0.0
aF0.0
aF0.0
aF0.0
aF0.0
aF0.0
aF0.0
aF0.0
aF0.726
aF0.0
aF0.0
aF0.0
aF0.0
aF0.0
aF0.0
aF0.0
aF0.0
aF0.0
aF0.0
aF0.0
aF0.0
aF0.0
aF0.0
aF0.0
aF0.016
aF0.0
aF0.0
aF0.0
aF0.0
aF0.0
aF0.0
aF0.0
aF0.0
aF0.0
aF0.0
aF0.0
aF0.0
aF0.0
aF0.0
aF0.126
aF0.026
aF0.0
aF0.024
aF0.0
aF0.0
aF0.0
aF0.0
aF0.042
asS'assemblage-105-525'
p13
(lp14
F0.0
aF0.0
aF0.0
aF0.0
aF0.028
aF0.0
aF0.0
aF0.0
aF0.0
aF0.0
aF0.0
aF0.0
aF0.0
aF0.0
aF0.0
aF0.0
aF0.24
aF0.0
aF0.0
aF0.012
aF0.0
aF0.0
aF0.0
aF0.0
aF0.0
aF0.0
aF0.0
aF0.0
aF0.086
aF0.0
aF0.0
aF0.478
aF0.0
aF0.0
aF0.0
aF0.018
aF0.0
aF0.0
aF0.072
aF0.0
aF0.0
aF0.0
aF0.0
aF0.0
aF0.0
aF0.0
aF0.0
aF0.0
aF0.0
aF0.0
aF0.0
aF0.0
aF0.01
aF0.0
aF0.0
aF0.0
aF0.0
aF0.0
aF0.0
aF0.0
aF0.0
aF0.0
aF0.0
aF0.0
aF0.0
aF0.0
aF0.0
aF0.0
aF0.0
aF0.0
aF0.056
asS'assemblage-538-369'
p15
(lp16
F0.0
aF0.0
aF0.0
aF0.0
aF0.0
aF0.0
aF0.0
aF0.0
aF0.0
aF0.0
aF0.0
aF0.0
aF0.0
aF0.0
aF0.0
aF0.0
aF0.108
aF0.0
aF0.0
aF0.0
aF0.0
aF0.0
aF0.0
aF0.0
aF0.0
aF0.004
aF0.0
aF0.0
aF0.0
aF0.0
aF0.0
aF0.326
aF0.0
aF0.0
aF0.0
aF0.272
aF0.0
aF0.0
aF0.0
aF0.0
aF0.0
aF0.0
aF0.0
aF0.0
aF0.0
aF0.0
aF0.0
aF0.0
aF0.0
aF0.0
aF0.0
aF0.0
aF0.0
aF0.15
aF0.0
aF0.0
aF0.0
aF0.068
aF0.0
aF0.0
aF0.0
aF0.0
aF0.0
aF0.0
aF0.0
aF0.0
aF0.0
aF0.0
aF0.0
aF0.016
aF0.056
asS'assemblage-393-512'
p17
(lp18
F0.0
aF0.0
aF0.0
aF0.0
aF0.358
aF0.0
aF0.0
aF0.0
aF0.0
aF0.0
aF0.0
aF0.052
aF0.0
aF0.0
aF0.0
aF0.0
aF0.166
aF0.0
aF0.0
aF0.04
aF0.0
aF0.0
aF0.0
aF0.0
aF0.0
aF0.0
aF0.0
aF0.0
aF0.0
aF0.0
aF0.0
aF0.114
aF0.0
aF0.0
aF0.0
aF0.018
aF0.0
aF0.0
aF0.192
aF0.0
aF0.0
aF0.0
aF0.0
aF0.0
aF0.0
aF0.0
aF0.0
aF0.0
aF0.0
aF0.0
aF0.01
aF0.0
aF0.0
aF0.0
aF0.0
aF0.0
aF0.0
aF0.0
aF0.0
aF0.0
aF0.0
aF0.0
aF0.0
aF0.0
aF0.0
aF0.0
aF0.0
aF0.0
aF0.0
aF0.0
aF0.05
asS'assemblage-564-211'
p19
(lp20
F0.0
aF0.022
aF0.0
aF0.0
aF0.0
aF0.0
aF0.0
aF0.0
aF0.0
aF0.0
aF0.0
aF0.0
aF0.168
aF0.0
aF0.0
aF0.024
aF0.028
aF0.0
aF0.0
aF0.0
aF0.0
aF0.154
aF0.0
aF0.0
aF0.0
aF0.0
aF0.09
aF0.0
aF0.0
aF0.0
aF0.0
aF0.0
aF0.0
aF0.0
aF0.0
aF0.0
aF0.0
aF0.0
aF0.46
aF0.0
aF0.0
aF0.0
aF0.0
aF0.0
aF0.0
aF0.0
aF0.0
aF0.0
aF0.0
aF0.0
aF0.0
aF0.0
aF0.0
aF0.0
aF0.0
aF0.0
aF0.0
aF0.0
aF0.0
aF0.0
aF0.0
aF0.0
aF0.0
aF0.0
aF0.0
aF0.0
aF0.0
aF0.0
aF0.0
aF0.0
aF0.054
asS'assemblage-671-734'
p21
(lp22
F0.0
aF0.0
aF0.0
aF0.0
aF0.098
aF0.016
aF0.0
aF0.0
aF0.0
aF0.0
aF0.0
aF0.0
aF0.0
aF0.0
aF0.0
aF0.13
aF0.432
aF0.0
aF0.0
aF0.022
aF0.0
aF0.0
aF0.0
aF0.022
aF0.0
aF0.0
aF0.03
aF0.0
aF0.0
aF0.0
aF0.0
aF0.096
aF0.0
aF0.0
aF0.0
aF0.0
aF0.0
aF0.0
aF0.0
aF0.0
aF0.0
aF0.0
aF0.0
aF0.0
aF0.0
aF0.0
aF0.126
aF0.0
aF0.0
aF0.0
aF0.0
aF0.0
aF0.0
aF0.0
aF0.0
aF0.0
aF0.0
aF0.0
aF0.0
aF0.0
aF0.0
aF0.0
aF0.0
aF0.0
aF0.0
aF0.0
aF0.0
aF0.0
aF0.0
aF0.0
aF0.028
asS'assemblage-252-585'
p23
(lp24
F0.0
aF0.0
aF0.0
aF0.0
aF0.13
aF0.0
aF0.0
aF0.0
aF0.0
aF0.0
aF0.0
aF0.0
aF0.0
aF0.0
aF0.0
aF0.0
aF0.0
aF0.0
aF0.0
aF0.0
aF0.0
aF0.0
aF0.0
aF0.0
aF0.0
aF0.0
aF0.0
aF0.0
aF0.0
aF0.0
aF0.0
aF0.0
aF0.0
aF0.044
aF0.0
aF0.444
aF0.0
aF0.0
aF0.338
aF0.0
aF0.016
aF0.0
aF0.0
aF0.0
aF0.0
aF0.0
aF0.0
aF0.0
aF0.0
aF0.0
aF0.0
aF0.0
aF0.0
aF0.0
aF0.0
aF0.0
aF0.0
aF0.0
aF0.0
aF0.0
aF0.0
aF0.0
aF0.0
aF0.0
aF0.01
aF0.0
aF0.0
aF0.0
aF0.0
aF0.0
aF0.018
asS'assemblage-239-581'
p25
(lp26
F0.0
aF0.0
aF0.0
aF0.0
aF0.14
aF0.0
aF0.0
aF0.0
aF0.0
aF0.0
aF0.0
aF0.0
aF0.0
aF0.0
aF0.0
aF0.0
aF0.0
aF0.0
aF0.0
aF0.0
aF0.0
aF0.0
aF0.0
aF0.0
aF0.0
aF0.0
aF0.0
aF0.0
aF0.0
aF0.0
aF0.0
aF0.0
aF0.0
aF0.046
aF0.0
aF0.472
aF0.0
aF0.0
aF0.294
aF0.0
aF0.024
aF0.0
aF0.0
aF0.0
aF0.0
aF0.0
aF0.0
aF0.0
aF0.0
aF0.0
aF0.0
aF0.0
aF0.0
aF0.0
aF0.0
aF0.0
aF0.0
aF0.0
aF0.0
aF0.0
aF0.0
aF0.0
aF0.0
aF0.0
aF0.01
aF0.0
aF0.0
aF0.0
aF0.0
aF0.0
aF0.014
asS'assemblage-835-586'
p27
(lp28
F0.0
aF0.0
aF0.0
aF0.0
aF0.188
aF0.0
aF0.0
aF0.0
aF0.0
aF0.0
aF0.0
aF0.0
aF0.0
aF0.0
aF0.0
aF0.0
aF0.22
aF0.0
aF0.0
aF0.0
aF0.0
aF0.0
aF0.0
aF0.0
aF0.0
aF0.0
aF0.0
aF0.0
aF0.328
aF0.0
aF0.0
aF0.026
aF0.0
aF0.0
aF0.0
aF0.0
aF0.0
aF0.0
aF0.016
aF0.0
aF0.0
aF0.0
aF0.0
aF0.0
aF0.0
aF0.0
aF0.0
aF0.0
aF0.096
aF0.0
aF0.0
aF0.0
aF0.0
aF0.02
aF0.0
aF0.0
aF0.0
aF0.0
aF0.0
aF0.0
aF0.0
aF0.068
aF0.0
aF0.0
aF0.0
aF0.0
aF0.0
aF0.0
aF0.0
aF0.0
aF0.038
asS'assemblage-357-802'
p29
(lp30
F0.014
aF0.0
aF0.0
aF0.0
aF0.0
aF0.0
aF0.0
aF0.0
aF0.0
aF0.0
aF0.0
aF0.0
aF0.0
aF0.0
aF0.0
aF0.0
aF0.046
aF0.0
aF0.0
aF0.0
aF0.0
aF0.0
aF0.056
aF0.0
aF0.0
aF0.0
aF0.0
aF0.0
aF0.0
aF0.0
aF0.0
aF0.018
aF0.0
aF0.0
aF0.0
aF0.478
aF0.0
aF0.0
aF0.108
aF0.0
aF0.0
aF0.0
aF0.0
aF0.0
aF0.0
aF0.0
aF0.0
aF0.0
aF0.0
aF0.0
aF0.072
aF0.0
aF0.036
aF0.128
aF0.0
aF0.0
aF0.0
aF0.0
aF0.0
aF0.0
aF0.0
aF0.0
aF0.0
aF0.0
aF0.0
aF0.0
aF0.0
aF0.0
aF0.0
aF0.0
aF0.044
asS'assemblage-668-723'
p31
(lp32
F0.0
aF0.0
aF0.0
aF0.0
aF0.034
aF0.0
aF0.0
aF0.0
aF0.0
aF0.0
aF0.0
aF0.0
aF0.278
aF0.0
aF0.0
aF0.0
aF0.136
aF0.0
aF0.0
aF0.0
aF0.0
aF0.0
aF0.0
aF0.0
aF0.0
aF0.0
aF0.068
aF0.0
aF0.0
aF0.0
aF0.0
aF0.052
aF0.0
aF0.0
aF0.0
aF0.032
aF0.062
aF0.0
aF0.01
aF0.0
aF0.0
aF0.0
aF0.0
aF0.0
aF0.0
aF0.0
aF0.0
aF0.0
aF0.0
aF0.0
aF0.0
aF0.0
aF0.0
aF0.244
aF0.0
aF0.0
aF0.0
aF0.0
aF0.0
aF0.0
aF0.056
aF0.0
aF0.0
aF0.0
aF0.0
aF0.0
aF0.0
aF0.0
aF0.0
aF0.0
aF0.028
asS'assemblage-386-638'
p33
(lp34
F0.0
aF0.0
aF0.0
aF0.0
aF0.012
aF0.0
aF0.0
aF0.0
aF0.0
aF0.0
aF0.0
aF0.0
aF0.046
aF0.0
aF0.0
aF0.0
aF0.4
aF0.0
aF0.0
aF0.0
aF0.0
aF0.058
aF0.0
aF0.0
aF0.0
aF0.0
aF0.0
aF0.0
aF0.258
aF0.024
aF0.058
aF0.0
aF0.0
aF0.0
aF0.0
aF0.0
aF0.0
aF0.0
aF0.062
aF0.0
aF0.0
aF0.0
aF0.0
aF0.0
aF0.0
aF0.0
aF0.0
aF0.0
aF0.0
aF0.0
aF0.0
aF0.0
aF0.0
aF0.0
aF0.0
aF0.0
aF0.0
aF0.0
aF0.0
aF0.0
aF0.022
aF0.0
aF0.0
aF0.0
aF0.0
aF0.0
aF0.0
aF0.0
aF0.0
aF0.0
aF0.06
asS'assemblage-397-507'
p35
(lp36
F0.0
aF0.0
aF0.0
aF0.0
aF0.028
aF0.0
aF0.0
aF0.0
aF0.0
aF0.0
aF0.0
aF0.0
aF0.0
aF0.0
aF0.0
aF0.0
aF0.198
aF0.0
aF0.0
aF0.014
aF0.0
aF0.0
aF0.012
aF0.0
aF0.0
aF0.0
aF0.0
aF0.0
aF0.086
aF0.0
aF0.0
aF0.512
aF0.0
aF0.0
aF0.0
aF0.014
aF0.0
aF0.0
aF0.084
aF0.0
aF0.0
aF0.0
aF0.0
aF0.0
aF0.0
aF0.0
aF0.0
aF0.0
aF0.0
aF0.0
aF0.0
aF0.0
aF0.006
aF0.0
aF0.0
aF0.0
aF0.0
aF0.0
aF0.0
aF0.0
aF0.0
aF0.0
aF0.0
aF0.0
aF0.0
aF0.0
aF0.0
aF0.0
aF0.0
aF0.0
aF0.046
asS'assemblage-610-1007'
p37
(lp38
F0.0
aF0.0
aF0.0
aF0.0
aF0.0
aF0.0
aF0.436
aF0.0
aF0.0
aF0.0
aF0.0
aF0.0
aF0.0
aF0.0
aF0.0
aF0.0
aF0.0
aF0.0
aF0.0
aF0.0
aF0.0
aF0.0
aF0.0
aF0.0
aF0.0
aF0.0
aF0.0
aF0.286
aF0.0
aF0.0
aF0.0
aF0.0
aF0.0
aF0.0
aF0.108
aF0.0
aF0.0
aF0.0
aF0.0
aF0.114
aF0.0
aF0.0
aF0.0
aF0.0
aF0.0
aF0.0
aF0.0
aF0.0
aF0.0
aF0.0
aF0.0
aF0.0
aF0.0
aF0.0
aF0.0
aF0.0
aF0.0
aF0.0
aF0.0
aF0.012
aF0.0
aF0.0
aF0.0
aF0.0
aF0.0
aF0.0
aF0.018
aF0.0
aF0.0
aF0.0
aF0.026
asS'assemblage-979-561'
p39
(lp40
F0.0
aF0.0
aF0.0
aF0.0
aF0.0
aF0.0
aF0.0
aF0.0
aF0.0
aF0.0
aF0.0
aF0.0
aF0.0
aF0.0
aF0.0
aF0.0
aF0.196
aF0.0
aF0.0
aF0.298
aF0.0
aF0.0
aF0.032
aF0.0
aF0.014
aF0.0
aF0.0
aF0.0
aF0.0
aF0.0
aF0.0
aF0.098
aF0.02
aF0.0
aF0.0
aF0.0
aF0.0
aF0.0
aF0.158
aF0.01
aF0.0
aF0.0
aF0.0
aF0.0
aF0.0
aF0.0
aF0.0
aF0.0
aF0.0
aF0.0
aF0.02
aF0.02
aF0.022
aF0.0
aF0.0
aF0.0
aF0.0
aF0.016
aF0.014
aF0.0
aF0.0
aF0.0
aF0.0
aF0.0
aF0.0
aF0.0
aF0.0
aF0.0
aF0.0
aF0.0
aF0.082
as.