(dp0
S'assemblage-337-810'
p1
(lp2
I0
aI0
aI0
aI0
acnumpy.core.multiarray
scalar
p3
(cnumpy
dtype
p4
(S'f8'
p5
I0
I1
tp6
Rp7
(I3
S'<'
p8
NNNI-1
I-1
I0
tp9
bS'\xd1\xe8\xdejy\x0c\x82?'
p10
tp11
Rp12
aI0
aI0
aI0
aI0
aI0
aI0
aI0
aI0
aI0
aI0
aI0
ag3
(g7
S'W|\x12D\x8b\xa9\xce?'
p13
tp14
Rp15
aI0
aI0
ag3
(g7
S'g^\xd9/\x0b\xf2\x8e?'
p16
tp17
Rp18
aI0
aI0
aI0
aI0
aI0
aI0
aI0
aI0
ag3
(g7
S'l\x8c\x94^\x14~\xba?'
p19
tp20
Rp21
aI0
aI0
ag3
(g7
S'r\x07\x9c\xc8\x11\xf6\xda?'
p22
tp23
Rp24
aI0
aI0
aI0
ag3
(g7
S'I\xeb\xdadjo\x97?'
p25
tp26
Rp27
aI0
aI0
ag3
(g7
S'89P\xc7`z\xb9?'
p28
tp29
Rp30
aI0
aI0
aI0
aI0
aI0
aI0
aI0
aI0
aI0
aI0
aI0
aI0
aI0
ag3
(g7
S'\xd7\xff\x80\xfe\xefZ\x91?'
p31
tp32
Rp33
aI0
aI0
aI0
aI0
aI0
aI0
aI0
aI0
aI0
aI0
aI0
aI0
aI0
aI0
aI0
aI0
aI0
ag3
(g7
S'\x9aG/\xcc\xdc\xb4\xaa?'
p34
tp35
Rp36
asS'assemblage-393-512'
p37
(lp38
I0
aI0
aI0
aI0
ag3
(g7
S'\x8f\xc7\xb4D\xbc\xc1\xd6?'
p39
tp40
Rp41
aI0
aI0
aI0
aI0
aI0
aI0
ag3
(g7
S'G\xc8\x02\xb26w\xa9?'
p42
tp43
Rp44
aI0
aI0
aI0
aI0
ag3
(g7
S'\xd7XA\x98\x99\xe0\xc4?'
p45
tp46
Rp47
aI0
aI0
ag3
(g7
S'"\xa3\xe6\xaf\x93X\xa3?'
p48
tp49
Rp50
aI0
aI0
aI0
aI0
aI0
aI0
aI0
aI0
aI0
aI0
aI0
ag3
(g7
S'Z\xb5\x98M\xe1v\xbc?'
p51
tp52
Rp53
aI0
aI0
aI0
ag3
(g7
S'\xba\xca\xf3\xec\xd0\xc3\x90?'
p54
tp55
Rp56
aI0
aI0
ag3
(g7
S'\xbc\x07sL\xa23\xc8?'
p57
tp58
Rp59
aI0
aI0
aI0
aI0
aI0
aI0
aI0
aI0
aI0
aI0
aI0
ag3
(g7
S'\xf0E_?N\xf8\x82?'
p60
tp61
Rp62
aI0
aI0
aI0
aI0
aI0
aI0
aI0
aI0
aI0
aI0
aI0
aI0
aI0
aI0
aI0
aI0
aI0
aI0
aI0
ag3
(g7
S'\x0e-ctI\xc7\xa7?'
p63
tp64
Rp65
asS'assemblage-168-128'
p66
(lp67
I0
aI0
ag3
(g7
S'S\xb0\x07\xb3e\xa4\xa1?'
p68
tp69
Rp70
aI0
ag3
(g7
S'\x85O\x15=\x9f\xb1\xd0?'
p71
tp72
Rp73
aI0
aI0
aI0
aI0
aI0
aI0
aI0
ag3
(g7
S'\xca\xa7\xc1\xbbh\x8c\xad?'
p74
tp75
Rp76
aI0
aI0
aI0
ag3
(g7
S'\x19\x8e\x05\xe2\xd2\x06\xc1?'
p77
tp78
Rp79
ag3
(g7
S'llq\x84~\x12\x97?'
p80
tp81
Rp82
aI0
aI0
aI0
ag3
(g7
S'\x81\x987\xa8D\x85\xd6?'
p83
tp84
Rp85
aI0
aI0
aI0
aI0
aI0
aI0
aI0
aI0
aI0
aI0
aI0
aI0
aI0
aI0
aI0
aI0
ag3
(g7
S'=\x9c\x95\xd7\xa1\xc4\xad?'
p86
tp87
Rp88
aI0
aI0
aI0
aI0
aI0
aI0
ag3
(g7
S'\xc5IF)Q\x93\x97?'
p89
tp90
Rp91
aI0
aI0
aI0
aI0
aI0
aI0
aI0
aI0
aI0
aI0
aI0
aI0
aI0
aI0
aI0
aI0
aI0
aI0
aI0
aI0
aI0
aI0
aI0
aI0
ag3
(g7
S'\xba\xa3\xdc\xc4G>\xa2?'
p92
tp93
Rp94
asS'assemblage-403-489'
p95
(lp96
I0
aI0
aI0
aI0
ag3
(g7
S'\xbb\xab\x8d\x90\xfd\xc8\x9b?'
p97
tp98
Rp99
aI0
ag3
(g7
S'%.2\x87>Q\xaa?'
p100
tp101
Rp102
aI0
aI0
aI0
aI0
ag3
(g7
S'\t\xcb\xd0\xc6\x1bG\xb0?'
p103
tp104
Rp105
aI0
aI0
aI0
aI0
ag3
(g7
S'\t\xd2\xff?]\r\x8a?'
p106
tp107
Rp108
aI0
aI0
aI0
ag3
(g7
S'\xf7\x06s\x02\xe3\xf1\x95?'
p109
tp110
Rp111
aI0
aI0
aI0
aI0
aI0
aI0
ag3
(g7
S'\xef\xe0\xe2m"~\xcc?'
p112
tp113
Rp114
aI0
aI0
aI0
ag3
(g7
S's\x0eWZ\xecI\xc4?'
p115
tp116
Rp117
aI0
aI0
ag3
(g7
S'\xca\xf9\xf0\xd86>\xa4?'
p118
tp119
Rp120
ag3
(g7
S'I\xbeX\xd2m\xad\xc6?'
p121
tp122
Rp123
aI0
aI0
ag3
(g7
S'\xcc\xce\xbc\xb7\xae\x90\xc1?'
p124
tp125
Rp126
ag3
(g7
S'\xfb\x1c\x96\x06Bd\x91?'
p127
tp128
Rp129
aI0
aI0
aI0
aI0
ag3
(g7
S'\x9e\xfeB\x12\xdc\xff|?'
p130
tp131
Rp132
aI0
aI0
aI0
aI0
aI0
aI0
aI0
aI0
aI0
aI0
aI0
aI0
aI0
aI0
aI0
aI0
aI0
aI0
aI0
aI0
aI0
aI0
aI0
aI0
aI0
ag3
(g7
S'@\x9b\x1e\xcf\x00\xe9\xa2?'
p133
tp134
Rp135
asS'assemblage-462-472'
p136
(lp137
I0
aI0
aI0
aI0
ag3
(g7
S'FCL-u\x9d\x96?'
p138
tp139
Rp140
aI0
ag3
(g7
S'XL\x01.q|\xb0?'
p141
tp142
Rp143
aI0
aI0
aI0
aI0
ag3
(g7
S'\xc5fDG-\xa3\xb2?'
p144
tp145
Rp146
aI0
aI0
aI0
aI0
ag3
(g7
S'\x9dwD\xce\x9e\x1e\x8f?'
p147
tp148
Rp149
aI0
aI0
aI0
ag3
(g7
S'{\xcd\x92\xa3\x84f\x99?'
p150
tp151
Rp152
aI0
aI0
aI0
aI0
aI0
aI0
ag3
(g7
S' \xfbd#a\xd0\xc9?'
p153
tp154
Rp155
aI0
aI0
aI0
ag3
(g7
S'#\xbb^\xa9\x98B\xc6?'
p156
tp157
Rp158
aI0
aI0
ag3
(g7
S'L\x17T\xc0\xd6z\x95?'
p159
tp160
Rp161
ag3
(g7
S'\x07*\x08\xf1$}\xc6?'
p162
tp163
Rp164
aI0
aI0
ag3
(g7
S'\x80\x14\r\x9a\x9a\x1b\xc4?'
p165
tp166
Rp167
ag3
(g7
S'\x9e\x14\n}?\xdd\x82?'
p168
tp169
Rp170
aI0
aI0
aI0
aI0
ag3
(g7
S'\xc3|}(\xfe\x9c\x85?'
p171
tp172
Rp173
aI0
aI0
aI0
aI0
aI0
aI0
aI0
aI0
aI0
aI0
aI0
aI0
aI0
aI0
aI0
aI0
aI0
aI0
aI0
aI0
aI0
aI0
aI0
aI0
aI0
ag3
(g7
S'\x01\x93-\xde\xf7\x1e\x9a?'
p174
tp175
Rp176
asS'assemblage-820-776'
p177
(lp178
I0
aI0
aI0
aI0
aI0
aI0
aI0
aI0
aI0
ag3
(g7
S'+\xa2\xbc\x9e\xbf\t\xa4?'
p179
tp180
Rp181
aI0
aI0
aI0
aI0
aI0
aI0
aI0
aI0
aI0
aI0
aI0
aI0
aI0
aI0
aI0
aI0
aI0
aI0
aI0
aI0
aI0
ag3
(g7
S'\x87\x04doK\x0b\xe7?'
p182
tp183
Rp184
aI0
aI0
aI0
aI0
aI0
aI0
aI0
aI0
aI0
aI0
aI0
aI0
aI0
aI0
aI0
ag3
(g7
S'\x83\xa8\x83[g\xcd\x8f?'
p185
tp186
Rp187
aI0
aI0
aI0
aI0
aI0
aI0
aI0
aI0
aI0
aI0
aI0
aI0
aI0
aI0
ag3
(g7
S'\x88\xa2\xddc\xd4f\xbf?'
p188
tp189
Rp190
ag3
(g7
S'\x84\xe6b\xa2\xc8\x80\x99?'
p191
tp192
Rp193
aI0
ag3
(g7
S'7M\x89W\x15\xe6\x96?'
p194
tp195
Rp196
aI0
aI0
aI0
aI0
ag3
(g7
S'\x7f6\xf5\x03*\xb9\xa4?'
p197
tp198
Rp199
asS'assemblage-538-369'
p200
(lp201
I0
aI0
aI0
aI0
aI0
aI0
aI0
aI0
aI0
aI0
aI0
aI0
aI0
aI0
aI0
aI0
ag3
(g7
S'g\x01B\xc4\xd4\xae\xba?'
p202
tp203
Rp204
aI0
aI0
aI0
aI0
aI0
aI0
aI0
aI0
ag3
(g7
S'\x19\x1fi"\x02\xf2l?'
p205
tp206
Rp207
aI0
aI0
aI0
aI0
aI0
ag3
(g7
S'\xc6\xb2#e\x90\x8d\xd4?'
p208
tp209
Rp210
aI0
aI0
aI0
ag3
(g7
S'\x15_|\x9d\xf2\x1c\xd1?'
p211
tp212
Rp213
aI0
aI0
aI0
aI0
aI0
aI0
aI0
aI0
aI0
aI0
aI0
aI0
aI0
aI0
aI0
aI0
aI0
ag3
(g7
S'\xf4\xa2\x0bh\xba\xdf\xc2?'
p214
tp215
Rp216
aI0
aI0
aI0
ag3
(g7
S'\x03\x1b\x8c\xcf\xb1\xa7\xb1?'
p217
tp218
Rp219
aI0
aI0
aI0
aI0
aI0
aI0
aI0
aI0
aI0
aI0
aI0
ag3
(g7
S'\xb9\xfar\x17\x7f\xd5\x8f?'
p220
tp221
Rp222
ag3
(g7
S'\t#\xdfA/\xa4\xaa?'
p223
tp224
Rp225
asS'assemblage-668-723'
p226
(lp227
I0
aI0
aI0
aI0
ag3
(g7
S'\xab\xda\x9b\xa2\x04(\xa1?'
p228
tp229
Rp230
aI0
aI0
aI0
aI0
aI0
aI0
aI0
ag3
(g7
S'F$>\x1e\xb5P\xd1?'
p231
tp232
Rp233
aI0
aI0
aI0
ag3
(g7
S',\xe1\xf8\xfc\xab\x06\xc1?'
p234
tp235
Rp236
aI0
aI0
aI0
aI0
aI0
aI0
aI0
aI0
aI0
ag3
(g7
S'Q\x18\xeeb\x89\xef\xb0?'
p237
tp238
Rp239
aI0
aI0
aI0
aI0
ag3
(g7
S'_\xdek\x9d\x94\xcb\xa8?'
p240
tp241
Rp242
aI0
aI0
aI0
ag3
(g7
S'\xc3\x8aH:\xf9\xda\xa0?'
p243
tp244
Rp245
ag3
(g7
S'\x9c(\xac7\xc1\x1a\xae?'
p246
tp247
Rp248
aI0
ag3
(g7
S'\xe3o\x96\x93\xee^\x82?'
p249
tp250
Rp251
aI0
aI0
aI0
aI0
aI0
aI0
aI0
aI0
aI0
aI0
aI0
aI0
aI0
aI0
ag3
(g7
S'\xe7\xda6|:\xf4\xce?'
p252
tp253
Rp254
aI0
aI0
aI0
aI0
aI0
aI0
ag3
(g7
S'e[k\x06\xb3\xa9\xab?'
p255
tp256
Rp257
aI0
aI0
aI0
aI0
aI0
aI0
aI0
aI0
aI0
ag3
(g7
S'\x07\x9b\x10\x9e\xaa\x80\x9c?'
p258
tp259
Rp260
asS'assemblage-357-802'
p261
(lp262
g3
(g7
S'`5\xebm\xd2\xc1\x8c?'
p263
tp264
Rp265
aI0
aI0
aI0
aI0
aI0
aI0
aI0
aI0
aI0
aI0
aI0
aI0
aI0
aI0
aI0
ag3
(g7
S'\x99\xbc\xbaMh\xf3\xa6?'
p266
tp267
Rp268
aI0
aI0
aI0
aI0
aI0
ag3
(g7
S'\xb5\x1b\xb8@\x9c\xd8\xab?'
p269
tp270
Rp271
aI0
aI0
aI0
aI0
aI0
aI0
aI0
aI0
ag3
(g7
S'\xc4\x91\xd5@\xf0\x13\x91?'
p272
tp273
Rp274
aI0
aI0
aI0
ag3
(g7
S"\x10\xcd1k\xdb'\xde?"
p275
tp276
Rp277
aI0
aI0
ag3
(g7
S'T6\x92F%T\xbb?'
p278
tp279
Rp280
aI0
aI0
aI0
aI0
aI0
aI0
aI0
aI0
aI0
aI0
aI0
ag3
(g7
S'XwJ\x05\xfc\x98\xb1?'
p281
tp282
Rp283
aI0
ag3
(g7
S'l\xb8\x0bzHE\xa1?'
p284
tp285
Rp286
ag3
(g7
S"\x1a\x17z\xb7'\x1b\xc0?"
p287
tp288
Rp289
aI0
aI0
aI0
aI0
aI0
aI0
aI0
aI0
aI0
aI0
aI0
aI0
aI0
aI0
aI0
aI0
ag3
(g7
S'\x9d\xd1\x91\xcb\x8c\x82\xa5?'
p290
tp291
Rp292
asS'assemblage-564-211'
p293
(lp294
I0
ag3
(g7
S'M|\x9e\x16\x8c\x06\x95?'
p295
tp296
Rp297
aI0
aI0
aI0
aI0
aI0
aI0
aI0
aI0
aI0
aI0
ag3
(g7
S'\xf0@\x18\x82O\xfa\xc4?'
p298
tp299
Rp300
aI0
aI0
ag3
(g7
S'\x1b\xfc\xca\xbb\xb21\x98?'
p301
tp302
Rp303
ag3
(g7
S'\xa22cR\x19\x14\x9b?'
p304
tp305
Rp306
aI0
aI0
aI0
aI0
ag3
(g7
S'\xc9\x0339CY\xc3?'
p307
tp308
Rp309
aI0
aI0
aI0
aI0
ag3
(g7
S'\xb3J\xea\x0b\x08\xf8\xb5?'
p310
tp311
Rp312
aI0
aI0
aI0
aI0
aI0
aI0
aI0
aI0
aI0
aI0
aI0
ag3
(g7
S'|\xe9X\x86\xa1T\xdd?'
p313
tp314
Rp315
aI0
aI0
aI0
aI0
aI0
aI0
aI0
aI0
aI0
aI0
aI0
aI0
aI0
aI0
aI0
aI0
aI0
aI0
aI0
aI0
aI0
aI0
aI0
aI0
aI0
aI0
aI0
aI0
aI0
aI0
aI0
ag3
(g7
S'\xf0C\x97\x8d\xa7\xd6\xa9?'
p316
tp317
Rp318
asS'assemblage-389-507'
p319
(lp320
I0
aI0
aI0
aI0
ag3
(g7
S'\xc4xz\x85\x18\xf0\xe3?'
p321
tp322
Rp323
aI0
aI0
aI0
aI0
aI0
aI0
aI0
aI0
aI0
aI0
aI0
ag3
(g7
S'\x03\x04\x18\x14\xdb_\x9d?'
p324
tp325
Rp326
aI0
aI0
aI0
aI0
aI0
aI0
aI0
aI0
aI0
aI0
aI0
aI0
aI0
aI0
ag3
(g7
S'\x9d\xb4\x9f\xd6\x8f\x9c\x7f?'
p327
tp328
Rp329
aI0
aI0
aI0
ag3
(g7
S'\xd3]\xbbF\x91\xa0\xc5?'
p330
tp331
Rp332
aI0
aI0
ag3
(g7
S'\xd4\xbb\xcd\x84A\xe7\xa6?'
p333
tp334
Rp335
ag3
(g7
S'\xd2&\x06^l\xeav?'
p336
tp337
Rp338
aI0
aI0
aI0
aI0
aI0
aI0
aI0
aI0
aI0
aI0
aI0
aI0
aI0
aI0
aI0
aI0
aI0
ag3
(g7
S'iJ*\xd11\x0b\xaa?'
p339
tp340
Rp341
aI0
aI0
aI0
aI0
aI0
aI0
aI0
aI0
aI0
aI0
aI0
aI0
ag3
(g7
S'1;eL\xf5\xb7\xab?'
p342
tp343
Rp344
asS'assemblage-979-561'
p345
(lp346
I0
aI0
aI0
aI0
aI0
aI0
aI0
aI0
aI0
aI0
aI0
aI0
aI0
aI0
aI0
aI0
ag3
(g7
S'\xd4\xb5S@\x14\xb4\xc8?'
p347
tp348
Rp349
aI0
aI0
ag3
(g7
S'\xd0q7H\xf0\xc2\xd2?'
p350
tp351
Rp352
aI0
aI0
ag3
(g7
S'\x9b\xd1\x8d\xda\x91\xe0\x9f?'
p353
tp354
Rp355
aI0
ag3
(g7
S'\xf3f\xc1\x1f\x8e)\x8a?'
p356
tp357
Rp358
aI0
aI0
aI0
aI0
aI0
aI0
ag3
(g7
S'\x1d5\x14\x8c\x83\xe0\xb8?'
p359
tp360
Rp361
ag3
(g7
S'M\x0bYG\x83\x00\x93?'
p362
tp363
Rp364
aI0
aI0
aI0
aI0
aI0
ag3
(g7
S'\xc7z\xcau\x10\xba\xc3?'
p365
tp366
Rp367
ag3
(g7
S'J\xa8\xcf\x89\x89M\x82?'
p368
tp369
Rp370
aI0
aI0
aI0
aI0
aI0
aI0
aI0
aI0
aI0
aI0
ag3
(g7
S'}\xab\xb7cg\xab\x93?'
p371
tp372
Rp373
ag3
(g7
S'\xc7\xc8\xab\xec\xc1Q\x93?'
p374
tp375
Rp376
ag3
(g7
S'\xb8\x92\xb3\xcd\x85\x96\x94?'
p377
tp378
Rp379
aI0
aI0
aI0
aI0
ag3
(g7
S'v\t\x0fe\xddx\x8d?'
p380
tp381
Rp382
ag3
(g7
S'\xc5\x82w\x0e\xad\x83\x89?'
p383
tp384
Rp385
aI0
aI0
aI0
aI0
aI0
aI0
aI0
aI0
aI0
aI0
aI0
ag3
(g7
S'\xfc\xc9\xc5\x80\xaem\xb4?'
p386
tp387
Rp388
asS'assemblage-239-581'
p389
(lp390
I0
aI0
aI0
aI0
ag3
(g7
S'H\xfc\x07\x89sg\xc1?'
p391
tp392
Rp393
aI0
aI0
aI0
aI0
aI0
aI0
aI0
aI0
aI0
aI0
aI0
aI0
aI0
aI0
aI0
aI0
aI0
aI0
aI0
aI0
aI0
aI0
aI0
aI0
aI0
aI0
aI0
aI0
ag3
(g7
S"\xa6\xd2\x80\xc5'g\xa7?"
p394
tp395
Rp396
aI0
ag3
(g7
S'\xe3\x03\ts\x1f\xe7\xdd?'
p397
tp398
Rp399
aI0
aI0
ag3
(g7
S'\xec5\x03\xbd~\x94\xd2?'
p400
tp401
Rp402
aI0
ag3
(g7
S'z\x9f\xbb\xd1D\xf7\x97?'
p403
tp404
Rp405
aI0
aI0
aI0
aI0
aI0
aI0
aI0
aI0
aI0
aI0
aI0
aI0
aI0
aI0
aI0
aI0
aI0
aI0
aI0
aI0
aI0
aI0
aI0
ag3
(g7
S'R\x001\x1bu\x00\x81?'
p406
tp407
Rp408
aI0
aI0
aI0
aI0
aI0
ag3
(g7
S'\x96\xf6\xc7\x9f\x95\x0b\x8a?'
p409
tp410
Rp411
asS'assemblage-835-586'
p412
(lp413
I0
aI0
aI0
aI0
ag3
(g7
S'\x9e\xb7\xc3M\xcd\xc0\xc7?'
p414
tp415
Rp416
aI0
aI0
aI0
aI0
aI0
aI0
aI0
aI0
aI0
aI0
aI0
ag3
(g7
S'd\x8cO\x0f\x19\xe5\xcb?'
p417
tp418
Rp419
aI0
aI0
aI0
aI0
aI0
aI0
aI0
aI0
aI0
aI0
aI0
ag3
(g7
S'\xf1\xa3us\xa7\x9c\xd4?'
p420
tp421
Rp422
aI0
aI0
ag3
(g7
S'<\xf4\xc7\xfa\xf1\xfe\x97?'
p423
tp424
Rp425
aI0
aI0
aI0
aI0
aI0
aI0
ag3
(g7
S'v~\x1c\x86\xff\xea\x8f?'
p426
tp427
Rp428
aI0
aI0
aI0
aI0
aI0
aI0
aI0
aI0
aI0
ag3
(g7
S'\xa6\xb9f\x82\x1f\x0f\xb8?'
p429
tp430
Rp431
aI0
aI0
aI0
aI0
ag3
(g7
S'\xd8\xef\xbc35\xb1\x93?'
p432
tp433
Rp434
aI0
aI0
aI0
aI0
aI0
aI0
aI0
ag3
(g7
S'\xf6g\xd8\xd7\x13\x8d\xb0?'
p435
tp436
Rp437
aI0
aI0
aI0
aI0
aI0
aI0
aI0
aI0
ag3
(g7
S'\xed\xd2\xb0\x1a\xf6_\xa2?'
p438
tp439
Rp440
asS'assemblage-105-525'
p441
(lp442
I0
aI0
aI0
aI0
ag3
(g7
S'\\L\xb0\xa2\x0c\xb7\x9a?'
p443
tp444
Rp445
aI0
aI0
aI0
aI0
aI0
aI0
aI0
aI0
aI0
aI0
aI0
ag3
(g7
S'\x83\xd3t\x95\xed\xc1\xcd?'
p446
tp447
Rp448
aI0
aI0
ag3
(g7
S'\x12nDjW\x1f\x86?'
p449
tp450
Rp451
aI0
aI0
aI0
aI0
aI0
aI0
aI0
aI0
ag3
(g7
S'\x96\\X}\xd0\x11\xb5?'
p452
tp453
Rp454
aI0
aI0
ag3
(g7
S'qI\x1d(\xdd\x87\xde?'
p455
tp456
Rp457
aI0
aI0
aI0
ag3
(g7
S'j"\xd0\xaf\x95\xce\x91?'
p458
tp459
Rp460
aI0
aI0
ag3
(g7
S'\xa3S\x1a\xe8\x92\xa9\xb1?'
p461
tp462
Rp463
aI0
aI0
aI0
aI0
aI0
aI0
aI0
aI0
aI0
aI0
aI0
aI0
aI0
ag3
(g7
S'\xa3,t\xfdz\xa0\x83?'
p464
tp465
Rp466
aI0
aI0
aI0
aI0
aI0
aI0
aI0
aI0
aI0
aI0
aI0
aI0
aI0
aI0
aI0
aI0
aI0
ag3
(g7
S'$Zh\xd0&E\xac?'
p467
tp468
Rp469
asS'assemblage-386-638'
p470
(lp471
I0
aI0
aI0
aI0
ag3
(g7
S'/\x8fW <\x16\x86?'
p472
tp473
Rp474
aI0
aI0
aI0
aI0
aI0
aI0
aI0
ag3
(g7
S'\\\xf5\xecY\xfd\x12\xa6?'
p475
tp476
Rp477
aI0
aI0
aI0
ag3
(g7
S'!\x1a\x81\x8b[\x00\xd9?'
p478
tp479
Rp480
aI0
aI0
aI0
aI0
ag3
(g7
S'A\xf3\x82\x96&\x13\xad?'
p481
tp482
Rp483
aI0
aI0
aI0
aI0
aI0
aI0
ag3
(g7
S'\x07\xfcVO\xef\x84\xd0?'
p484
tp485
Rp486
ag3
(g7
S'#r[u\x7f)\x97?'
p487
tp488
Rp489
ag3
(g7
S'>\xc1\xb8\x82\xbd\x98\xac?'
p490
tp491
Rp492
aI0
aI0
aI0
aI0
aI0
aI0
aI0
ag3
(g7
S'\xe2\x06 Y\xa8\xb1\xae?'
p493
tp494
Rp495
aI0
aI0
aI0
aI0
aI0
aI0
aI0
aI0
aI0
aI0
aI0
aI0
aI0
aI0
aI0
aI0
aI0
aI0
aI0
aI0
aI0
ag3
(g7
S'"c\x9dd\xe8\xa7\x95?'
p496
tp497
Rp498
aI0
aI0
aI0
aI0
aI0
aI0
aI0
aI0
aI0
ag3
(g7
S'\x98\xcf\x01\xc58\xcb\xad?'
p499
tp500
Rp501
asS'assemblage-671-734'
p502
(lp503
I0
aI0
aI0
aI0
ag3
(g7
S'D1\xb4x\x17K\xb8?'
p504
tp505
Rp506
ag3
(g7
S'x\xf5\x80/6\xcc\x8b?'
p507
tp508
Rp509
aI0
aI0
aI0
aI0
aI0
aI0
aI0
aI0
aI0
ag3
(g7
S'IK\xa3\x07I\x11\xc0?'
p510
tp511
Rp512
ag3
(g7
S'\xc9\x91\x14Y\x13`\xdb?'
p513
tp514
Rp515
aI0
aI0
ag3
(g7
S'\xd9r\x0e\xac\x08R\x95?'
p516
tp517
Rp518
aI0
aI0
aI0
ag3
(g7
S'!s\xe2?\xa0\x8b\x94?'
p519
tp520
Rp521
aI0
aI0
ag3
(g7
S'g\x12\xec\x12\xe7p\x9e?'
p522
tp523
Rp524
aI0
aI0
aI0
aI0
ag3
(g7
S'e\xfdy&r\xb2\xb7?'
p525
tp526
Rp527
aI0
aI0
aI0
aI0
aI0
aI0
aI0
aI0
aI0
aI0
aI0
aI0
aI0
aI0
ag3
(g7
S'\xa1v\x80\xc5;\x1e\xc0?'
p528
tp529
Rp530
aI0
aI0
aI0
aI0
aI0
aI0
aI0
aI0
aI0
aI0
aI0
aI0
aI0
aI0
aI0
aI0
aI0
aI0
aI0
aI0
aI0
aI0
aI0
ag3
(g7
S'"\xa16\xce\xfb\xb2\x9b?'
p531
tp532
Rp533
asS'assemblage-397-507'
p534
(lp535
I0
aI0
aI0
aI0
ag3
(g7
S'\x07\xa9\x07}\x9d\x98\x9a?'
p536
tp537
Rp538
aI0
aI0
aI0
aI0
aI0
aI0
aI0
aI0
aI0
aI0
aI0
ag3
(g7
S'\xe4\x8b\xaa\xaa\x81\x81\xc8?'
p539
tp540
Rp541
aI0
aI0
ag3
(g7
S'\x89\xc9\xf2\xbf_\xec\x87?'
p542
tp543
Rp544
aI0
aI0
ag3
(g7
S'\x1f\xdasc\xb5*\x86?'
p545
tp546
Rp547
aI0
aI0
aI0
aI0
aI0
ag3
(g7
S"\x82\xe1xv5'\xb5?"
p548
tp549
Rp550
aI0
aI0
ag3
(g7
S'\x043\x1f\x9a\x9f`\xe0?'
p551
tp552
Rp553
aI0
aI0
aI0
ag3
(g7
S'u\xd9\xb8\x07\xfe\xaa\x8a?'
p554
tp555
Rp556
aI0
aI0
ag3
(g7
S'\xc7\xdaMlz\xe1\xb4?'
p557
tp558
Rp559
aI0
aI0
aI0
aI0
aI0
aI0
aI0
aI0
aI0
aI0
aI0
aI0
aI0
ag3
(g7
S'\xc49\xa1Z\xb8}v?'
p560
tp561
Rp562
aI0
aI0
aI0
aI0
aI0
aI0
aI0
aI0
aI0
aI0
aI0
aI0
aI0
aI0
aI0
aI0
aI0
ag3
(g7
S'|U;\xd7\x96o\xa7?'
p563
tp564
Rp565
asS'assemblage-610-1007'
p566
(lp567
I0
aI0
aI0
aI0
aI0
aI0
ag3
(g7
S'A\xb7 G\x1f\xa0\xdb?'
p568
tp569
Rp570
aI0
aI0
aI0
aI0
aI0
aI0
aI0
aI0
aI0
aI0
aI0
aI0
aI0
aI0
aI0
aI0
aI0
aI0
aI0
aI0
ag3
(g7
S'\xd8\xc2\xbe\xd7\xfd\r\xd2?'
p571
tp572
Rp573
aI0
aI0
aI0
aI0
aI0
aI0
ag3
(g7
S'\xdc~\xd7\x86\xf5\xeb\xba?'
p574
tp575
Rp576
aI0
aI0
aI0
aI0
ag3
(g7
S'\xae\x8a\xcc\xb8H\\\xbc?'
p577
tp578
Rp579
aI0
aI0
aI0
aI0
aI0
aI0
aI0
aI0
aI0
aI0
aI0
aI0
aI0
aI0
aI0
aI0
aI0
aI0
aI0
ag3
(g7
S'\xa3\x15\xf7\x82\x05\xe2\x87?'
p580
tp581
Rp582
aI0
aI0
aI0
aI0
aI0
aI0
ag3
(g7
S'\xb9\x0f\x7f\x137\xf2\x90?'
p583
tp584
Rp585
aI0
aI0
aI0
ag3
(g7
S'\xae\xb2\xe3\xe5\xc1K\x99?'
p586
tp587
Rp588
asS'assemblage-252-585'
p589
(lp590
I0
aI0
aI0
aI0
ag3
(g7
S"\xa4\xf1l'{G\xc0?"
p591
tp592
Rp593
aI0
aI0
aI0
aI0
aI0
aI0
aI0
aI0
aI0
aI0
aI0
aI0
aI0
aI0
aI0
aI0
aI0
aI0
aI0
aI0
aI0
aI0
aI0
aI0
aI0
aI0
aI0
aI0
ag3
(g7
S'Y6%\xb7\xfc\xcc\xa5?'
p594
tp595
Rp596
aI0
ag3
(g7
S'"\xa29\x80\x97\'\xdc?'
p597
tp598
Rp599
aI0
aI0
ag3
(g7
S'\xd3\x1d\xda\x02\xadM\xd5?'
p600
tp601
Rp602
aI0
ag3
(g7
S'\xcd\x9bq:\x8e5\x8d?'
p603
tp604
Rp605
aI0
aI0
aI0
aI0
aI0
aI0
aI0
aI0
aI0
aI0
aI0
aI0
aI0
aI0
aI0
aI0
aI0
aI0
aI0
aI0
aI0
aI0
aI0
ag3
(g7
S'#1\xacH\xd3d\x82?'
p606
tp607
Rp608
aI0
aI0
aI0
aI0
aI0
ag3
(g7
S'?\x10d\x91\xa6\xb2\x91?'
p609
tp610
Rp611
as.