(dp0
S'assemblage-718-730'
p1
(lp2
I0
aI0
aI0
aI0
aI0
aI0
aI0
aI0
aI0
aI0
aI0
aI0
aI0
aI0
acnumpy.core.multiarray
scalar
p3
(cnumpy
dtype
p4
(S'f8'
p5
I0
I1
tp6
Rp7
(I3
S'<'
p8
NNNI-1
I-1
I0
tp9
bS'&\x86\xaa,5I\xa3?'
p10
tp11
Rp12
aI0
aI0
aI0
aI0
aI0
ag3
(g7
S'\xa3\x00G\x9e1:\xa7?'
p13
tp14
Rp15
aI0
aI0
aI0
aI0
aI0
ag3
(g7
S'J\xeb\xb7\xd8\xa2\xad\xc1?'
p16
tp17
Rp18
aI0
aI0
aI0
aI0
aI0
aI0
aI0
aI0
aI0
aI0
aI0
aI0
ag3
(g7
S'H7\xc9w#\xfb\x93?'
p19
tp20
Rp21
aI0
aI0
aI0
aI0
aI0
ag3
(g7
S']\n\xf8\xf3"\xf1\xe3?'
p22
tp23
Rp24
aI0
aI0
aI0
aI0
aI0
aI0
aI0
aI0
aI0
aI0
aI0
aI0
aI0
aI0
aI0
aI0
aI0
aI0
aI0
aI0
aI0
aI0
ag3
(g7
S'\xa3\n;k\xbf}\xbe?'
p25
tp26
Rp27
aI0
aI0
aI0
ag3
(g7
S'\xfc\xb8\xb5\x1bf\x9f\xa0?'
p28
tp29
Rp30
asS'assemblage-118-355'
p31
(lp32
I0
aI0
aI0
aI0
ag3
(g7
S'\xea\xbf\xa00>\x94\xa2?'
p33
tp34
Rp35
aI0
aI0
aI0
aI0
aI0
aI0
ag3
(g7
S'\x13}\xd0"\'\r\xb6?'
p36
tp37
Rp38
aI0
aI0
aI0
aI0
aI0
aI0
aI0
aI0
aI0
ag3
(g7
S'\xf0\x9f\xe6Yf8\xb3?'
p39
tp40
Rp41
aI0
aI0
aI0
aI0
aI0
aI0
aI0
aI0
aI0
aI0
aI0
aI0
aI0
aI0
aI0
aI0
aI0
ag3
(g7
S'\xe2^W\xfeZ\xe9\xc4?'
p42
tp43
Rp44
ag3
(g7
S'F7\xef\x9b\x0bK\x92?'
p45
tp46
Rp47
aI0
aI0
aI0
aI0
ag3
(g7
S'\x9e\x1a\x88Z\xb9\xa8\xe0?'
p48
tp49
Rp50
aI0
aI0
aI0
aI0
aI0
aI0
aI0
aI0
aI0
aI0
aI0
aI0
aI0
aI0
aI0
aI0
aI0
aI0
aI0
aI0
ag3
(g7
S'V\xc9?\x93\xa1\xb1\xae?'
p51
tp52
Rp53
ag3
(g7
S'em\xff<\x05\xc5\x93?'
p54
tp55
Rp56
aI0
aI0
aI0
aI0
ag3
(g7
S'\xbcd\x05\xfcs\xe8\xa4?'
p57
tp58
Rp59
asS'assemblage-660-894'
p60
(lp61
I0
aI0
aI0
aI0
aI0
aI0
aI0
aI0
aI0
aI0
aI0
aI0
aI0
aI0
ag3
(g7
S'd\x0ezP\xab\x01\x8f?'
p62
tp63
Rp64
aI0
aI0
aI0
aI0
aI0
ag3
(g7
S'\xe4\xc8F&\x1b\x99\xad?'
p65
tp66
Rp67
aI0
aI0
aI0
aI0
aI0
ag3
(g7
S'\x9d\xc5D\x01|(\xc0?'
p68
tp69
Rp70
aI0
aI0
aI0
aI0
aI0
aI0
aI0
aI0
aI0
aI0
aI0
aI0
ag3
(g7
S'=\x00Y\xda2\xba\x94?'
p71
tp72
Rp73
aI0
aI0
aI0
aI0
aI0
ag3
(g7
S'\x05Z\xf9e\x02g\xe5?'
p74
tp75
Rp76
aI0
aI0
aI0
aI0
aI0
aI0
aI0
aI0
aI0
aI0
aI0
aI0
aI0
aI0
aI0
aI0
aI0
aI0
aI0
aI0
aI0
aI0
ag3
(g7
S'7\n\x94jC\x99\xb6?'
p77
tp78
Rp79
aI0
aI0
aI0
ag3
(g7
S'8G\xd7\x12\x8f\xee\xa3?'
p80
tp81
Rp82
asS'assemblage-368-489'
p83
(lp84
I0
aI0
aI0
aI0
aI0
ag3
(g7
S'q\x01\x0b\xc6D)\xba?'
p85
tp86
Rp87
aI0
aI0
ag3
(g7
S'\xfc0`]\x94A\xa1?'
p88
tp89
Rp90
aI0
aI0
aI0
aI0
aI0
aI0
aI0
aI0
aI0
aI0
aI0
aI0
aI0
aI0
aI0
aI0
aI0
aI0
aI0
aI0
aI0
aI0
aI0
aI0
aI0
aI0
aI0
aI0
aI0
aI0
aI0
aI0
aI0
aI0
aI0
aI0
ag3
(g7
S'\x89\x81\xe2+\xd6\x1a\xe0?'
p91
tp92
Rp93
aI0
aI0
ag3
(g7
S'\x8f\xdc\x86DG~\xae?'
p94
tp95
Rp96
aI0
aI0
aI0
aI0
aI0
aI0
aI0
aI0
ag3
(g7
S'\xf78\x06\xbf\x1c\xc4\xcf?'
p97
tp98
Rp99
aI0
aI0
aI0
aI0
aI0
aI0
aI0
aI0
ag3
(g7
S'a\xe9\x9c\x83\xb0Z\xa1?'
p100
tp101
Rp102
aI0
aI0
aI0
aI0
aI0
ag3
(g7
S'\x03\xd2%\xf6Zf\xa3?'
p103
tp104
Rp105
asS'assemblage-128-978'
p106
(lp107
I0
aI0
aI0
aI0
aI0
aI0
aI0
aI0
aI0
aI0
aI0
ag3
(g7
S'\xffz\xcd\x91:d\xa2?'
p108
tp109
Rp110
aI0
aI0
aI0
aI0
aI0
aI0
aI0
aI0
aI0
aI0
aI0
aI0
aI0
aI0
aI0
aI0
aI0
aI0
aI0
aI0
aI0
aI0
aI0
aI0
aI0
aI0
aI0
ag3
(g7
S'\x11\xa6\xe0\xb5\x1f\x0b\xc0?'
p111
tp112
Rp113
aI0
aI0
aI0
aI0
aI0
ag3
(g7
S'\xea\x9d]\xdf-\xe6\xe8?'
p114
tp115
Rp116
aI0
aI0
aI0
aI0
aI0
aI0
aI0
aI0
aI0
aI0
aI0
aI0
aI0
aI0
ag3
(g7
S' \xd7\xca\xd5\xea\x91\xa4?'
p117
tp118
Rp119
aI0
aI0
aI0
aI0
aI0
aI0
aI0
aI0
aI0
aI0
aI0
ag3
(g7
S'\xc1\xeb\x7f\xedtk\xa0?'
p120
tp121
Rp122
asS'assemblage-344-500'
p123
(lp124
I0
aI0
aI0
aI0
aI0
ag3
(g7
S'\xfc\xfe\xc59\xd2\x87\xb7?'
p125
tp126
Rp127
aI0
aI0
ag3
(g7
S'\x1b\x85\xe5\x9f/\xe8\x9b?'
p128
tp129
Rp130
aI0
aI0
aI0
aI0
aI0
aI0
aI0
aI0
aI0
aI0
aI0
aI0
aI0
aI0
aI0
aI0
aI0
aI0
aI0
aI0
aI0
aI0
aI0
aI0
aI0
aI0
aI0
aI0
aI0
aI0
aI0
aI0
aI0
aI0
aI0
aI0
ag3
(g7
S'\x15\xc3\x95n\xfbe\xe0?'
p131
tp132
Rp133
aI0
aI0
ag3
(g7
S'\xfa(br\x85W\xa5?'
p134
tp135
Rp136
aI0
aI0
aI0
aI0
aI0
aI0
aI0
aI0
ag3
(g7
S'\xe6\x02\xd5|)7\xd1?'
p137
tp138
Rp139
aI0
aI0
aI0
aI0
aI0
aI0
aI0
aI0
ag3
(g7
S'PFU\xabr\x14\xa3?'
p140
tp141
Rp142
aI0
aI0
aI0
aI0
aI0
ag3
(g7
S'\xca\x08\xcf\x97\xbc\x14\xa3?'
p143
tp144
Rp145
asS'assemblage-347-771'
p146
(lp147
I0
aI0
aI0
aI0
aI0
aI0
aI0
aI0
aI0
aI0
aI0
ag3
(g7
S'T\xdc\xa10"v\x8e?'
p148
tp149
Rp150
aI0
aI0
aI0
aI0
aI0
aI0
aI0
ag3
(g7
S'\xceI12/\xa9\x9e?'
p151
tp152
Rp153
aI0
ag3
(g7
S'\x95\xd9S!\xd3\xab\xe0?'
p154
tp155
Rp156
aI0
aI0
aI0
aI0
aI0
aI0
aI0
aI0
aI0
aI0
aI0
aI0
aI0
aI0
aI0
aI0
aI0
ag3
(g7
S'\xde\xa0\x9eW\x8df\xbd?'
p157
tp158
Rp159
aI0
aI0
aI0
aI0
aI0
ag3
(g7
S'*[\x1d\xd0\xf9\xf5\xc7?'
p160
tp161
Rp162
aI0
aI0
aI0
ag3
(g7
S'4!\xa5\x8fYr\x95?'
p163
tp164
Rp165
aI0
aI0
aI0
aI0
aI0
aI0
ag3
(g7
S'\xd7\x067\xea\xd3\xfb\x91?'
p166
tp167
Rp168
aI0
aI0
aI0
aI0
aI0
aI0
aI0
aI0
aI0
ag3
(g7
S'm^\xd7/t\x06\xaf?'
p169
tp170
Rp171
aI0
aI0
ag3
(g7
S'\x15\xb6rP\x18\xe7\xa3?'
p172
tp173
Rp174
aI0
aI0
ag3
(g7
S'\x8c\xcbh\xaf\x91`\x8d?'
p175
tp176
Rp177
asS'assemblage-131-377'
p178
(lp179
I0
aI0
aI0
aI0
aI0
aI0
aI0
aI0
aI0
aI0
aI0
ag3
(g7
S'\x9c\x87\x02\xf0\xe6\xfd\xbe?'
p180
tp181
Rp182
aI0
aI0
aI0
aI0
aI0
aI0
aI0
aI0
aI0
ag3
(g7
S'b\xa2B\xa2\xf5\x96\xb6?'
p183
tp184
Rp185
aI0
aI0
aI0
aI0
aI0
aI0
aI0
aI0
aI0
aI0
aI0
aI0
aI0
aI0
aI0
aI0
aI0
ag3
(g7
S'\xbb\x0bV\xb24\xb9\xbf?'
p186
tp187
Rp188
ag3
(g7
S'\xa4\x15\x81\x18\xdc;\x82?'
p189
tp190
Rp191
aI0
aI0
aI0
aI0
ag3
(g7
S'\xc1\x18\xcfNK\xfb\xe1?'
p192
tp193
Rp194
aI0
aI0
aI0
aI0
aI0
aI0
aI0
aI0
aI0
aI0
aI0
aI0
aI0
aI0
aI0
aI0
aI0
aI0
aI0
aI0
ag3
(g7
S'\xfe7[\x11\xffE\xa8?'
p195
tp196
Rp197
ag3
(g7
S'\xf2\xee\x7f\xc9\xbc\xa2\x9f?'
p198
tp199
Rp200
aI0
aI0
aI0
aI0
ag3
(g7
S'\x13f\xef7XW\xa2?'
p201
tp202
Rp203
asS'assemblage-354-625'
p204
(lp205
I0
aI0
aI0
aI0
aI0
aI0
aI0
aI0
aI0
aI0
aI0
aI0
aI0
aI0
aI0
aI0
aI0
aI0
aI0
aI0
ag3
(g7
S'i\x16\xa11_\xf2\xac?'
p206
tp207
Rp208
aI0
aI0
aI0
aI0
aI0
aI0
ag3
(g7
S'\xfd\xa3\xfb\xf3A\xd6\xd1?'
p209
tp210
Rp211
aI0
aI0
aI0
aI0
aI0
aI0
ag3
(g7
S'c@`\xabD\xb1\xb1?'
p212
tp213
Rp214
aI0
aI0
aI0
aI0
aI0
aI0
aI0
aI0
aI0
aI0
ag3
(g7
S'\xe8\xeas\x98\xf2\x15\xd9?'
p215
tp216
Rp217
aI0
ag3
(g7
S'f\xc9O\xecl\xb4\xaf?'
p218
tp219
Rp220
aI0
aI0
ag3
(g7
S'\xb2I];\xa9\xb9\xc2?'
p221
tp222
Rp223
aI0
aI0
aI0
aI0
aI0
aI0
aI0
aI0
aI0
aI0
aI0
aI0
aI0
aI0
aI0
aI0
aI0
aI0
aI0
aI0
aI0
ag3
(g7
S'\x1c\x87h\x80\xbb\xa9\x8b?'
p224
tp225
Rp226
asS'assemblage-420-895'
p227
(lp228
I0
aI0
ag3
(g7
S'\x80\xdf\xfbMv\x91\x9f?'
p229
tp230
Rp231
aI0
aI0
aI0
aI0
aI0
aI0
aI0
aI0
ag3
(g7
S'\x8d\xf0\xe5GC\xdd\xd3?'
p232
tp233
Rp234
aI0
aI0
ag3
(g7
S'@\xbd\t>\x90\xef\xd2?'
p235
tp236
Rp237
aI0
aI0
aI0
aI0
aI0
aI0
aI0
ag3
(g7
S'!\xa9*\xc9"m\x9b?'
p238
tp239
Rp240
aI0
aI0
aI0
aI0
aI0
aI0
aI0
aI0
aI0
aI0
aI0
aI0
aI0
aI0
aI0
aI0
ag3
(g7
S'\xe0&\x05\xd2\\\x92\xd1?'
p241
tp242
Rp243
aI0
aI0
aI0
aI0
aI0
aI0
aI0
aI0
aI0
aI0
aI0
aI0
aI0
aI0
aI0
aI0
aI0
aI0
aI0
aI0
aI0
aI0
aI0
aI0
ag3
(g7
S'j\xcf\xb6j\x87\x7f\x90?'
p244
tp245
Rp246
aI0
aI0
aI0
aI0
aI0
aI0
aI0
ag3
(g7
S'\x1cM\xec@\xc9\x00\xb0?'
p247
tp248
Rp249
asS'assemblage-158-689'
p250
(lp251
I0
aI0
aI0
aI0
aI0
aI0
aI0
aI0
aI0
aI0
ag3
(g7
S'8g\x1d\xe4\xa8\xb9d?'
p252
tp253
Rp254
ag3
(g7
S'\x01\x0cE\x11Od\xa3?'
p255
tp256
Rp257
aI0
aI0
aI0
aI0
aI0
aI0
aI0
aI0
aI0
aI0
aI0
aI0
aI0
aI0
aI0
aI0
aI0
aI0
aI0
aI0
aI0
aI0
aI0
aI0
aI0
aI0
aI0
ag3
(g7
S'\x02q\xe8s\\\xe6\xbb?'
p258
tp259
Rp260
aI0
aI0
aI0
aI0
aI0
ag3
(g7
S'\xec\xb6\xc3\xac\x94\xf3\xe8?'
p261
tp262
Rp263
aI0
aI0
aI0
aI0
aI0
aI0
aI0
aI0
aI0
aI0
aI0
aI0
aI0
aI0
ag3
(g7
S'9\\i\xd3\x85{\xac?'
p264
tp265
Rp266
aI0
aI0
aI0
aI0
aI0
aI0
aI0
aI0
aI0
aI0
aI0
ag3
(g7
S',\x01\x1e\xf6\xe6\x81\x9b?'
p267
tp268
Rp269
asS'assemblage-187-481'
p270
(lp271
I0
aI0
aI0
aI0
aI0
aI0
aI0
aI0
aI0
aI0
aI0
ag3
(g7
S'\x8a\xff17J\x15\xe7?'
p272
tp273
Rp274
aI0
aI0
aI0
aI0
aI0
aI0
aI0
aI0
aI0
aI0
ag3
(g7
S'0\x9d\x19{\xc5.\xa9?'
p275
tp276
Rp277
aI0
aI0
aI0
aI0
aI0
aI0
aI0
aI0
aI0
aI0
ag3
(g7
S'\x94\xf9\xd6\xabn\xdc\xa5?'
p278
tp279
Rp280
aI0
aI0
aI0
aI0
aI0
aI0
aI0
aI0
aI0
aI0
aI0
aI0
aI0
aI0
aI0
ag3
(g7
S'\x82=\x1e\x91\xf1$\xc0?'
p281
tp282
Rp283
aI0
aI0
ag3
(g7
S'\x08\xb7\x9c\xd9\x16m\x9f?'
p284
tp285
Rp286
aI0
aI0
aI0
aI0
aI0
aI0
aI0
aI0
aI0
aI0
aI0
aI0
aI0
aI0
aI0
aI0
aI0
aI0
ag3
(g7
S'se\xf4\x11d\x7f\x8a?'
p287
tp288
Rp289
ag3
(g7
S'\x84\xf7M\xf2H\x1e\xa0?'
p290
tp291
Rp292
asS'assemblage-534-699'
p293
(lp294
I0
aI0
aI0
aI0
aI0
aI0
aI0
ag3
(g7
S'+\xccpr\x03j\x91?'
p295
tp296
Rp297
aI0
aI0
aI0
ag3
(g7
S'\xbbb\xf3\x01\x8bP\xb3?'
p298
tp299
Rp300
aI0
aI0
aI0
aI0
aI0
aI0
aI0
aI0
ag3
(g7
S'\x06Y\x0e{^%\xe9?'
p301
tp302
Rp303
aI0
aI0
aI0
aI0
aI0
aI0
aI0
aI0
aI0
aI0
aI0
aI0
aI0
aI0
aI0
aI0
aI0
aI0
ag3
(g7
S';\xcf6n\x00h\x87?'
p304
tp305
Rp306
aI0
aI0
aI0
aI0
aI0
aI0
aI0
aI0
aI0
aI0
aI0
ag3
(g7
S' \xf7\xa6\xc7\xe8\xff\x9b?'
p307
tp308
Rp309
aI0
aI0
aI0
aI0
aI0
aI0
aI0
aI0
ag3
(g7
S'WM\x17\xe1\xf9f\xad?'
p310
tp311
Rp312
aI0
aI0
aI0
aI0
aI0
aI0
aI0
aI0
aI0
aI0
aI0
ag3
(g7
S'\x15/\xa0\x11T\xde\xa3?'
p313
tp314
Rp315
asS'assemblage-656-900'
p316
(lp317
I0
aI0
aI0
aI0
aI0
aI0
aI0
aI0
aI0
aI0
aI0
aI0
aI0
aI0
aI0
aI0
aI0
aI0
aI0
aI0
ag3
(g7
S'\xdd\x95\xce\xa2[\x95\xac?'
p318
tp319
Rp320
aI0
aI0
aI0
aI0
aI0
aI0
ag3
(g7
S'h\xfc\x95:?\x00\xd3?'
p321
tp322
Rp323
aI0
aI0
aI0
aI0
aI0
aI0
ag3
(g7
S'k\x97Dn\xe6\x85\xb2?'
p324
tp325
Rp326
aI0
aI0
aI0
aI0
aI0
aI0
aI0
aI0
aI0
aI0
ag3
(g7
S'pW\x95\xfcO\xae\xd9?'
p327
tp328
Rp329
aI0
ag3
(g7
S'a{5\xa9\xc7\xc5\xb5?'
p330
tp331
Rp332
aI0
aI0
ag3
(g7
S'\xd21~\xae\xed\t\xb7?'
p333
tp334
Rp335
aI0
aI0
aI0
aI0
aI0
aI0
aI0
aI0
aI0
aI0
aI0
aI0
aI0
aI0
aI0
aI0
aI0
aI0
aI0
aI0
aI0
ag3
(g7
S'4\x8f\x07\x0f"\x06\x92?'
p336
tp337
Rp338
asS'assemblage-889-374'
p339
(lp340
I0
aI0
aI0
aI0
aI0
aI0
aI0
aI0
aI0
aI0
aI0
aI0
aI0
aI0
aI0
aI0
aI0
aI0
aI0
aI0
aI0
aI0
aI0
aI0
aI0
aI0
aI0
aI0
ag3
(g7
S'2\xb5\xdf\x10%\xe7z?'
p341
tp342
Rp343
aI0
aI0
aI0
aI0
aI0
aI0
aI0
aI0
aI0
aI0
aI0
aI0
aI0
aI0
aI0
aI0
ag3
(g7
S'3\xb1w\x1c\xb7\x0e\xed?'
p344
tp345
Rp346
aI0
aI0
aI0
aI0
ag3
(g7
S'9\xab\xc7\xacn\xc5\x86?'
p347
tp348
Rp349
aI0
aI0
ag3
(g7
S'\xf8\xe4\x10\xab\xc9\x01\xa5?'
p350
tp351
Rp352
aI0
aI0
aI0
aI0
aI0
aI0
aI0
aI0
aI0
aI0
aI0
aI0
aI0
aI0
aI0
aI0
aI0
aI0
ag3
(g7
S'\xa5\xe0\xf2\x8e\xf2\r\xa5?'
p353
tp354
Rp355
asS'assemblage-359-943'
p356
(lp357
I0
aI0
aI0
aI0
aI0
aI0
aI0
aI0
aI0
aI0
aI0
aI0
aI0
aI0
aI0
aI0
aI0
aI0
aI0
aI0
aI0
aI0
aI0
aI0
aI0
aI0
aI0
aI0
ag3
(g7
S'%\xa7\x03;\xa2\xd4\xb7?'
p358
tp359
Rp360
aI0
aI0
ag3
(g7
S'[\x08\xd8\xa3\xe3\xf6\xa6?'
p361
tp362
Rp363
aI0
aI0
aI0
aI0
ag3
(g7
S'h\x14-\x84\x95X\xc0?'
p364
tp365
Rp366
aI0
aI0
aI0
aI0
ag3
(g7
S'\xa0\xde\x90\xc6\xce\xbd\x9a?'
p367
tp368
Rp369
ag3
(g7
S':F\xec\x18\x8b\x0c\x95?'
p370
tp371
Rp372
aI0
aI0
ag3
(g7
S'\x82\x1e_\xc5W\x84\xe5?'
p373
tp374
Rp375
aI0
aI0
aI0
aI0
aI0
aI0
aI0
aI0
aI0
aI0
aI0
aI0
aI0
aI0
aI0
aI0
aI0
aI0
aI0
aI0
aI0
aI0
aI0
aI0
aI0
aI0
ag3
(g7
S'\xe6\x9eYHc]\xa0?'
p376
tp377
Rp378
asS'assemblage-709-731'
p379
(lp380
I0
aI0
aI0
aI0
aI0
aI0
aI0
aI0
aI0
aI0
aI0
aI0
aI0
aI0
aI0
aI0
aI0
aI0
aI0
aI0
ag3
(g7
S'\xba]{[q_\xa4?'
p381
tp382
Rp383
aI0
aI0
aI0
aI0
aI0
aI0
ag3
(g7
S'\x9f\xc1\xd6\x0b\xc7\xa7\xd0?'
p384
tp385
Rp386
aI0
aI0
aI0
aI0
aI0
aI0
ag3
(g7
S'n>\x94\x9f\xc8\xdc\xae?'
p387
tp388
Rp389
aI0
aI0
aI0
aI0
aI0
aI0
aI0
aI0
aI0
aI0
ag3
(g7
S'`\x90-\xd2rt\xdb?'
p390
tp391
Rp392
aI0
ag3
(g7
S'\x1eS\x85a\xfd\xac\xaf?'
p393
tp394
Rp395
aI0
aI0
ag3
(g7
S'\xb8\x1e\x98\x0f\x08\t\xc2?'
p396
tp397
Rp398
aI0
aI0
aI0
aI0
aI0
aI0
aI0
aI0
aI0
aI0
aI0
aI0
aI0
aI0
aI0
aI0
aI0
aI0
aI0
aI0
aI0
ag3
(g7
S'$\xee\xe5&\x90.\x9b?'
p399
tp400
Rp401
asS'assemblage-897-363'
p402
(lp403
I0
aI0
aI0
aI0
aI0
aI0
aI0
aI0
aI0
aI0
aI0
aI0
aI0
aI0
aI0
aI0
aI0
aI0
aI0
aI0
aI0
aI0
aI0
aI0
aI0
aI0
aI0
ag3
(g7
S'\xfac\xac\xb9\xa7\xb7\x94?'
p404
tp405
Rp406
ag3
(g7
S'\xaa-\xbd\xf6\xa1L\xa1?'
p407
tp408
Rp409
aI0
aI0
ag3
(g7
S'l\xd2\xaa\xa6\xe8\xd6\x85?'
p410
tp411
Rp412
aI0
aI0
aI0
aI0
ag3
(g7
S'\x17\xb2\x83]4\xc0\x8a?'
p413
tp414
Rp415
ag3
(g7
S'\xc1e\\\xb2\x17\xd0\x8a?'
p416
tp417
Rp418
aI0
aI0
aI0
aI0
aI0
aI0
aI0
ag3
(g7
S'i\x07{\x11\xc0T\xe8?'
p419
tp420
Rp421
aI0
aI0
aI0
aI0
aI0
aI0
aI0
aI0
aI0
aI0
aI0
aI0
aI0
aI0
aI0
aI0
ag3
(g7
S'\xce\xea"\x05=\x94\xbe?'
p422
tp423
Rp424
aI0
aI0
aI0
aI0
aI0
aI0
aI0
aI0
aI0
ag3
(g7
S'\x92`\xbf\xd7Z\x07\xa6?'
p425
tp426
Rp427
asS'assemblage-761-903'
p428
(lp429
I0
aI0
aI0
aI0
aI0
aI0
aI0
aI0
aI0
aI0
aI0
ag3
(g7
S'\xd5\x16\xd9\x99\xc6b\x92?'
p430
tp431
Rp432
aI0
aI0
aI0
aI0
aI0
aI0
aI0
aI0
ag3
(g7
S'\x16c[\x7f\x1b\x06\xa9?'
p433
tp434
Rp435
ag3
(g7
S'\x95EC\x9e\xa2D\xb3?'
p436
tp437
Rp438
aI0
aI0
aI0
aI0
aI0
aI0
aI0
aI0
aI0
aI0
aI0
aI0
aI0
ag3
(g7
S'\xbb\xd8\x0b\xec\x05\x0e\xb0?'
p439
tp440
Rp441
aI0
aI0
aI0
aI0
aI0
aI0
aI0
aI0
aI0
aI0
aI0
aI0
aI0
ag3
(g7
S'\xea\xce\x88\xf5-\t\xdc?'
p442
tp443
Rp444
aI0
aI0
aI0
aI0
aI0
aI0
aI0
aI0
aI0
aI0
ag3
(g7
S'm\xed\x92\xee!\xb6\xd4?'
p445
tp446
Rp447
aI0
aI0
aI0
aI0
aI0
aI0
aI0
aI0
aI0
aI0
aI0
ag3
(g7
S'\xeb\xd9J\xb8\xaa\n\xab?'
p448
tp449
Rp450
asS'assemblage-144-970'
p451
(lp452
I0
aI0
aI0
aI0
aI0
aI0
aI0
aI0
aI0
aI0
aI0
ag3
(g7
S'\xbb\xc7P9\xda\x1d\xa1?'
p453
tp454
Rp455
aI0
aI0
aI0
aI0
aI0
aI0
aI0
aI0
aI0
aI0
aI0
aI0
aI0
aI0
aI0
aI0
aI0
aI0
aI0
aI0
aI0
aI0
aI0
aI0
aI0
aI0
aI0
ag3
(g7
S'\x7fDM\x1em\x9e\xbc?'
p456
tp457
Rp458
aI0
aI0
aI0
aI0
aI0
ag3
(g7
S'6\xe7\xc7\xbf\xe9B\xe9?'
p459
tp460
Rp461
aI0
aI0
aI0
aI0
aI0
aI0
aI0
aI0
aI0
aI0
aI0
aI0
aI0
aI0
ag3
(g7
S'\xff\xa2\xc8\xda\x95\xaf\xa8?'
p462
tp463
Rp464
aI0
aI0
aI0
aI0
aI0
aI0
aI0
aI0
aI0
aI0
aI0
ag3
(g7
S'\x0f!\xde\xec*W\x9d?'
p465
tp466
Rp467
as.