(dp0
S'assemblage-15-2'
p1
(lp2
I0
aI0
aI0
acnumpy.core.multiarray
scalar
p3
(cnumpy
dtype
p4
(S'f8'
p5
I0
I1
tp6
Rp7
(I3
S'<'
p8
NNNI-1
I-1
I0
tp9
bS'.\x1eL\x1e\xdf_\xf5>'
p10
tp11
Rp12
aI0
aI0
aI0
aI0
aI0
aI0
aI0
aI0
aI0
aI0
aI0
aI0
aI0
aI0
ag3
(g7
S'\xc0i[\x9a\xc7\xd0\xe6?'
p13
tp14
Rp15
aI0
aI0
aI0
aI0
aI0
aI0
aI0
aI0
ag3
(g7
S'. C\xe2\xf8w\xfc>'
p16
tp17
Rp18
aI0
aI0
aI0
aI0
aI0
aI0
aI0
aI0
aI0
aI0
aI0
aI0
aI0
aI0
aI0
ag3
(g7
S'bs6\xdf\xb2\n\xd2?'
p19
tp20
Rp21
aI0
aI0
aI0
aI0
ag3
(g7
S'\x04\\\xb1/1\x90\xfa>'
p22
tp23
Rp24
aI0
aI0
aI0
aI0
ag3
(g7
S'\xfd\xd7\xc5t\x83>x?'
p25
tp26
Rp27
aI0
aI0
aI0
aI0
aI0
aI0
aI0
aI0
aI0
aI0
aI0
aI0
aI0
aI0
aI0
aI0
aI0
aI0
aI0
aI0
aI0
aI0
aI0
aI0
aI0
aI0
aI0
aI0
aI0
aI0
aI0
aI0
ag3
(g7
S'\xd5\xec*\xff\xa1w\xf9>'
p28
tp29
Rp30
aI0
aI0
aI0
aI0
aI0
aI0
aI0
aI0
aI0
aI0
aI0
aI0
aI0
aI0
aI0
aI0
asS'assemblage-11-3'
p31
(lp32
I0
aI0
ag3
(g7
S'r\xac\xed\x1f\xc7\xd8@?'
p33
tp34
Rp35
aI0
ag3
(g7
S'\x04\x81\x83"\xd4\x93\x1d?'
p36
tp37
Rp38
aI0
aI0
aI0
aI0
aI0
aI0
aI0
aI0
aI0
aI0
aI0
aI0
ag3
(g7
S'\xc5h\x9e\x95m\x13\x10?'
p39
tp40
Rp41
ag3
(g7
S'R(-\xf0\xdbe\xdf?'
p42
tp43
Rp44
aI0
aI0
aI0
aI0
ag3
(g7
S'&\xb3\xdf\xba\xeei,?'
p45
tp46
Rp47
aI0
aI0
aI0
aI0
aI0
aI0
aI0
aI0
aI0
aI0
aI0
aI0
aI0
aI0
aI0
aI0
aI0
aI0
ag3
(g7
S'W\x12l\xe2\x17}<?'
p48
tp49
Rp50
ag3
(g7
S'\xc4\x88\xea\xe8\x07\xab\xd6?'
p51
tp52
Rp53
aI0
aI0
aI0
aI0
aI0
aI0
aI0
aI0
aI0
ag3
(g7
S'f\xf9_\x10\xbd\xdc\xc3?'
p54
tp55
Rp56
aI0
aI0
aI0
aI0
ag3
(g7
S'\x10y,\x81e\x06\x0c?'
p57
tp58
Rp59
aI0
aI0
aI0
aI0
aI0
aI0
aI0
ag3
(g7
S'\xab\xd1\xbb\xd1&l??'
p60
tp61
Rp62
aI0
aI0
aI0
aI0
aI0
aI0
aI0
aI0
aI0
aI0
ag3
(g7
S'\xe5`\xd9x\x1cJ*?'
p63
tp64
Rp65
aI0
aI0
aI0
aI0
aI0
aI0
aI0
aI0
aI0
aI0
ag3
(g7
S'>V3t\xd2\x18\x0f?'
p66
tp67
Rp68
aI0
aI0
aI0
aI0
aI0
aI0
aI0
aI0
aI0
aI0
aI0
aI0
aI0
aI0
asS'assemblage-11-2'
p69
(lp70
I0
aI0
ag3
(g7
S'\xcd\x82ab\xd8\xdd.?'
p71
tp72
Rp73
aI0
aI0
aI0
aI0
aI0
aI0
aI0
aI0
aI0
aI0
ag3
(g7
S'\xbem\x96\x08z\tY?'
p74
tp75
Rp76
aI0
aI0
aI0
aI0
ag3
(g7
S'\xca\x91\xeeL\xb8E\xe1?'
p77
tp78
Rp79
aI0
aI0
aI0
aI0
aI0
aI0
aI0
aI0
aI0
aI0
aI0
aI0
aI0
aI0
aI0
aI0
aI0
aI0
aI0
aI0
aI0
aI0
aI0
aI0
ag3
(g7
S'\xc3\xca\x91"\x02=\xd4?'
p80
tp81
Rp82
aI0
aI0
aI0
aI0
aI0
aI0
aI0
aI0
aI0
ag3
(g7
S'\x9e@}n\xc7Z\xc2?'
p83
tp84
Rp85
aI0
aI0
aI0
aI0
aI0
aI0
aI0
aI0
aI0
ag3
(g7
S',\xf4\xd9H\x87\xc9\x0c?'
p86
tp87
Rp88
aI0
aI0
ag3
(g7
S')Z{\xc7q\xe26?'
p89
tp90
Rp91
aI0
aI0
aI0
aI0
aI0
aI0
aI0
aI0
aI0
aI0
aI0
aI0
aI0
aI0
aI0
aI0
aI0
aI0
aI0
aI0
aI0
aI0
aI0
aI0
aI0
ag3
(g7
S'Q\xd2\x8d\x0ei\xc1\x10?'
p92
tp93
Rp94
aI0
aI0
aI0
aI0
aI0
ag3
(g7
S'\xb0\xa5\x06\xc23v4?'
p95
tp96
Rp97
aI0
ag3
(g7
S'\x08\xad\x0c\x1e\x8aP\x11?'
p98
tp99
Rp100
aI0
aI0
asS'assemblage-12-4'
p101
(lp102
g3
(g7
S'l\xfc\xd6\x0b\x17\xb5\x04?'
p103
tp104
Rp105
aI0
aI0
aI0
aI0
aI0
aI0
aI0
aI0
aI0
aI0
aI0
aI0
aI0
aI0
aI0
aI0
aI0
ag3
(g7
S'\x135\xc8?B\xfb\xe9?'
p106
tp107
Rp108
aI0
aI0
aI0
aI0
aI0
ag3
(g7
S'\xcd\x7f\xb1\xc8\xb4\xd6\x02?'
p109
tp110
Rp111
aI0
aI0
aI0
aI0
ag3
(g7
S'p\x0b\xd6\x9b\x18\xb0\x04?'
p112
tp113
Rp114
aI0
aI0
aI0
aI0
aI0
aI0
aI0
aI0
ag3
(g7
S'\xca\xcbW\xf4\x07h\x06?'
p115
tp116
Rp117
aI0
aI0
aI0
aI0
ag3
(g7
S'\xf3\x93\xc5\xc7\xac\x16\xc3?'
p118
tp119
Rp120
aI0
aI0
aI0
aI0
aI0
aI0
aI0
aI0
aI0
ag3
(g7
S'\x9ekIU\x9c\xd2\xa2?'
p121
tp122
Rp123
aI0
aI0
aI0
aI0
aI0
aI0
aI0
aI0
aI0
aI0
aI0
aI0
aI0
aI0
aI0
aI0
aI0
ag3
(g7
S'0\xe9p\x89\x08_/?'
p124
tp125
Rp126
aI0
aI0
aI0
aI0
aI0
aI0
aI0
aI0
aI0
aI0
aI0
aI0
aI0
ag3
(g7
S"<\x8a'*\xa1\xbfg?"
p127
tp128
Rp129
aI0
aI0
aI0
aI0
aI0
aI0
aI0
aI0
aI0
aI0
aI0
aI0
aI0
aI0
aI0
ag3
(g7
S'\xc4b\x96b\x15\x89\x05?'
p130
tp131
Rp132
aI0
asS'assemblage-28-1'
p133
(lp134
I0
aI0
aI0
aI0
aI0
aI0
aI0
aI0
aI0
aI0
aI0
aI0
aI0
aI0
aI0
aI0
aI0
aI0
ag3
(g7
S';\xbe\xdb^\xdd\xba\xe3?'
p135
tp136
Rp137
aI0
aI0
aI0
aI0
aI0
aI0
aI0
aI0
aI0
aI0
aI0
aI0
aI0
ag3
(g7
S'9Kkp\xfc\x0c\x11?'
p138
tp139
Rp140
aI0
aI0
aI0
aI0
aI0
aI0
aI0
ag3
(g7
S'\xb4q\xc1\xec\n\x98\x0e?'
p141
tp142
Rp143
aI0
aI0
ag3
(g7
S'$\x8e>\xc1\x08\x9c\xd8?'
p144
tp145
Rp146
aI0
ag3
(g7
S'\x93=\xc7`\xce\x0c\x12?'
p147
tp148
Rp149
aI0
aI0
aI0
aI0
aI0
aI0
ag3
(g7
S'\xef-\x07\xd7\x1f\xa2$?'
p150
tp151
Rp152
aI0
aI0
aI0
aI0
ag3
(g7
S'\xe7\xa6\x0fY\xddX\x10?'
p153
tp154
Rp155
aI0
aI0
aI0
aI0
aI0
aI0
aI0
aI0
aI0
aI0
aI0
aI0
aI0
aI0
aI0
aI0
aI0
aI0
aI0
aI0
aI0
aI0
aI0
aI0
aI0
aI0
ag3
(g7
S'![\xc9\xe0di\x1d?'
p156
tp157
Rp158
aI0
aI0
aI0
aI0
aI0
aI0
aI0
aI0
aI0
aI0
aI0
aI0
aI0
aI0
aI0
aI0
aI0
aI0
asS'assemblage-12-1'
p159
(lp160
I0
aI0
ag3
(g7
S'\x02\x07\xa4 J\x1c@?'
p161
tp162
Rp163
aI0
aI0
aI0
aI0
aI0
aI0
aI0
aI0
aI0
ag3
(g7
S'\x98\x8d\x86\xd2p\x9c4?'
p164
tp165
Rp166
aI0
aI0
ag3
(g7
S'\xce\xdb\xe0(\x96`\x0e?'
p167
tp168
Rp169
aI0
aI0
ag3
(g7
S'\x90:"\x17z\xa1\xed?'
p170
tp171
Rp172
aI0
aI0
aI0
aI0
aI0
aI0
aI0
aI0
aI0
aI0
aI0
aI0
aI0
aI0
ag3
(g7
S'\xdb\xc9E\xf5\xf7\x8f\x0f?'
p173
tp174
Rp175
aI0
aI0
aI0
aI0
aI0
aI0
aI0
aI0
aI0
ag3
(g7
S'\x84\x142\x1c4\x1f\xac?'
p176
tp177
Rp178
aI0
aI0
ag3
(g7
S'b\x83\x12\xa7\xde\x8eS?'
p179
tp180
Rp181
aI0
aI0
aI0
aI0
aI0
aI0
ag3
(g7
S'\xe3\xc4>`@\xf8\x90?'
p182
tp183
Rp184
ag3
(g7
S'\xc2\xa5\xf9\x9c\xe4\xae8?'
p185
tp186
Rp187
aI0
aI0
aI0
aI0
aI0
aI0
aI0
aI0
aI0
aI0
ag3
(g7
S'`\xb4\xa1r\x1c~0?'
p188
tp189
Rp190
ag3
(g7
S'\x01\x83\xa9K\x99\x14A?'
p191
tp192
Rp193
aI0
aI0
aI0
aI0
aI0
aI0
aI0
aI0
aI0
aI0
aI0
aI0
aI0
aI0
aI0
aI0
aI0
aI0
aI0
aI0
aI0
aI0
aI0
aI0
aI0
aI0
aI0
aI0
aI0
aI0
ag3
(g7
S'\x9a}.\x04o\xf97?'
p194
tp195
Rp196
aI0
aI0
aI0
aI0
aI0
asS'assemblage-12-2'
p197
(lp198
I0
aI0
aI0
aI0
aI0
aI0
aI0
aI0
aI0
aI0
aI0
aI0
aI0
aI0
aI0
aI0
ag3
(g7
S'\xb7Q\x93=\xda\x8f2?'
p199
tp200
Rp201
aI0
ag3
(g7
S'x\xd6\x0cI\x9e&\xe4?'
p202
tp203
Rp204
aI0
aI0
aI0
aI0
aI0
aI0
aI0
aI0
aI0
aI0
aI0
aI0
aI0
aI0
aI0
aI0
aI0
ag3
(g7
S'1d.\xaa9\xa6\r?'
p205
tp206
Rp207
aI0
aI0
aI0
aI0
aI0
aI0
ag3
(g7
S'2\x85"\x86K\xab\xd7?'
p208
tp209
Rp210
aI0
ag3
(g7
S'\xb0N\xc6\xaf\xac\x941?'
p211
tp212
Rp213
aI0
aI0
aI0
aI0
aI0
aI0
aI0
aI0
aI0
aI0
aI0
aI0
aI0
ag3
(g7
S'X\x05\x8a\xc2\x04\xccR?'
p214
tp215
Rp216
aI0
aI0
aI0
aI0
aI0
aI0
aI0
aI0
aI0
aI0
aI0
aI0
aI0
aI0
aI0
aI0
aI0
aI0
ag3
(g7
S'w\xa4\xb82\xaa\xda\x0c?'
p217
tp218
Rp219
aI0
aI0
aI0
aI0
aI0
aI0
aI0
aI0
aI0
aI0
aI0
aI0
aI0
aI0
aI0
aI0
aI0
ag3
(g7
S'\xd0\x98\x9e\xfc\x1bJ\n?'
p220
tp221
Rp222
aI0
aI0
aI0
aI0
aI0
aI0
asS'assemblage-2-3'
p223
(lp224
g3
(g7
S'S3\x90\xd4\x8ec\x06?'
p225
tp226
Rp227
aI0
aI0
aI0
aI0
aI0
aI0
aI0
aI0
aI0
aI0
aI0
aI0
aI0
aI0
aI0
aI0
aI0
ag3
(g7
S'\xe9\x0c\xac\xd2M-\xe9?'
p228
tp229
Rp230
aI0
aI0
aI0
aI0
aI0
aI0
aI0
aI0
aI0
aI0
ag3
(g7
S'+\xec\x94\xfa\x9f1\x04?'
p231
tp232
Rp233
aI0
aI0
aI0
aI0
aI0
ag3
(g7
S'\xcf:\x8cC\xee\xc6\x04?'
p234
tp235
Rp236
aI0
aI0
aI0
aI0
aI0
aI0
aI0
ag3
(g7
S'\t\xb0sf\x85\xcb\xc4?'
p237
tp238
Rp239
ag3
(g7
S'\xd2S\xd5\xba\x97\xd6\x14?'
p240
tp241
Rp242
aI0
aI0
aI0
aI0
aI0
aI0
aI0
aI0
ag3
(g7
S'y\xa4G\xeb(0\xa9?'
p243
tp244
Rp245
aI0
ag3
(g7
S'#V*p\x15\xd3\x14?'
p246
tp247
Rp248
aI0
aI0
aI0
aI0
aI0
aI0
aI0
aI0
aI0
aI0
aI0
aI0
aI0
aI0
aI0
aI0
aI0
aI0
aI0
aI0
aI0
aI0
aI0
aI0
aI0
aI0
aI0
aI0
aI0
ag3
(g7
S'\xb4\xe8.\xc8k\xa1c?'
p249
tp250
Rp251
aI0
aI0
aI0
aI0
aI0
aI0
aI0
aI0
aI0
aI0
aI0
aI0
aI0
ag3
(g7
S'\xe0#\xc13\r\xcf\x16?'
p252
tp253
Rp254
aI0
ag3
(g7
S'\x16\x82\x0bhA\xca\x05?'
p255
tp256
Rp257
aI0
asS'assemblage-3-2'
p258
(lp259
I0
aI0
aI0
aI0
aI0
aI0
ag3
(g7
S'\xf9\xc6\x12|\xce6,?'
p260
tp261
Rp262
aI0
aI0
aI0
aI0
aI0
aI0
aI0
aI0
aI0
aI0
aI0
ag3
(g7
S'\xcar\xd2\x1cV\x0b\xde?'
p263
tp264
Rp265
ag3
(g7
S'\xee\xbd\x98\xca\xd9c\x0c?'
p266
tp267
Rp268
aI0
aI0
aI0
aI0
aI0
aI0
aI0
aI0
ag3
(g7
S'\x92\xcf\xf0\xab\xcf\xe7&?'
p269
tp270
Rp271
aI0
aI0
aI0
aI0
aI0
aI0
aI0
aI0
ag3
(g7
S'\xe4\xae\xe9\x06/4y?'
p272
tp273
Rp274
aI0
aI0
aI0
aI0
aI0
ag3
(g7
S'c\n\xd3\xe9\x95\x81\xe0?'
p275
tp276
Rp277
aI0
aI0
aI0
ag3
(g7
S'\xae~&\xa7\xf4<r?'
p278
tp279
Rp280
aI0
aI0
ag3
(g7
S'\x95\x89Z\xea\xf1\xf1b?'
p281
tp282
Rp283
aI0
aI0
aI0
aI0
aI0
aI0
aI0
aI0
ag3
(g7
S'\x8f\xf8B\xd4\xf0\xe3 ?'
p284
tp285
Rp286
aI0
ag3
(g7
S'k\xd27\xa1\xc4EE?'
p287
tp288
Rp289
aI0
aI0
aI0
aI0
aI0
aI0
aI0
aI0
ag3
(g7
S'4\xd8\xa9\x13\xac\xbf\r?'
p290
tp291
Rp292
aI0
aI0
aI0
aI0
aI0
aI0
aI0
aI0
aI0
aI0
aI0
aI0
ag3
(g7
S'\xf3j\xbe.\xa3\xc3_?'
p293
tp294
Rp295
aI0
aI0
aI0
aI0
aI0
aI0
ag3
(g7
S'\xda\x8c\x9d{\x83\xba\x10?'
p296
tp297
Rp298
aI0
aI0
ag3
(g7
S'\xfef\x0c\x07E\xe95?'
p299
tp300
Rp301
aI0
aI0
aI0
aI0
aI0
aI0
aI0
aI0
aI0
asS'assemblage-1-4'
p302
(lp303
I0
aI0
aI0
aI0
aI0
aI0
aI0
aI0
aI0
aI0
aI0
aI0
aI0
ag3
(g7
S'\xbc\xa2 \x02n\xe01?'
p304
tp305
Rp306
aI0
aI0
ag3
(g7
S'\xac\x84\xdb\xafDd\x10?'
p307
tp308
Rp309
aI0
ag3
(g7
S'\xe60\x1d\x034\x03\xe4?'
p310
tp311
Rp312
aI0
aI0
aI0
ag3
(g7
S'\xf0\xe6\xfe:\x93U\x0b?'
p313
tp314
Rp315
aI0
aI0
aI0
aI0
aI0
ag3
(g7
S'-\xa7j\xdf\xa1\x11\xfa>'
p316
tp317
Rp318
ag3
(g7
S':\x90\xff\x9e)L\xeb>'
p319
tp320
Rp321
aI0
ag3
(g7
S'\x176\xa8\xa32>\xe9>'
p322
tp323
Rp324
aI0
aI0
aI0
aI0
aI0
ag3
(g7
S'\xcb\\\xafh9\x9e!?'
p325
tp326
Rp327
aI0
aI0
aI0
aI0
aI0
ag3
(g7
S'\xa0\xe4!=\xb1\x17\xd4?'
p328
tp329
Rp330
aI0
ag3
(g7
S'\xf8\xbeH\xca\xf1\xb4&?'
p331
tp332
Rp333
aI0
ag3
(g7
S'R\xbe\xb1g\xaf\xabQ?'
p334
tp335
Rp336
aI0
aI0
ag3
(g7
S'\xe0\xc1\xa6\xf8\xd20^?'
p337
tp338
Rp339
aI0
aI0
ag3
(g7
S'\x86\xd9\x11\xbb\x9d\x0c\xad?'
p340
tp341
Rp342
aI0
aI0
aI0
aI0
aI0
ag3
(g7
S'\xe5\x8aD6\xc5l\xfb>'
p343
tp344
Rp345
aI0
aI0
ag3
(g7
S'\xaa\x83\x81\xcd\x92\x01\xfb>'
p346
tp347
Rp348
aI0
ag3
(g7
S's\xacy,E\xc3\xe9>'
p349
tp350
Rp351
aI0
ag3
(g7
S"'I\xe9\xb0\x04\xed/?"
p352
tp353
Rp354
aI0
aI0
aI0
aI0
aI0
aI0
aI0
aI0
aI0
aI0
aI0
aI0
aI0
aI0
ag3
(g7
S'\x05\xd2\xe0{Ps\xe9>'
p355
tp356
Rp357
aI0
aI0
ag3
(g7
S'\xd6\xdbf}\x8ct\xed>'
p358
tp359
Rp360
ag3
(g7
S'\xfeI\x13+\x9e\xf9I?'
p361
tp362
Rp363
aI0
ag3
(g7
S'ut\x17\xab\xebm\xee>'
p364
tp365
Rp366
aI0
aI0
aI0
aI0
aI0
ag3
(g7
S'8\xef\xc5\x90o\x9c\xe9>'
p367
tp368
Rp369
aI0
aI0
ag3
(g7
S',\x967sj\xc6\r?'
p370
tp371
Rp372
aI0
ag3
(g7
S'\xeefO\xe3\x03d\xfc>'
p373
tp374
Rp375
aI0
aI0
aI0
aI0
asS'assemblage-21-4'
p376
(lp377
I0
aI0
aI0
aI0
aI0
aI0
aI0
aI0
aI0
aI0
aI0
aI0
aI0
aI0
aI0
aI0
aI0
aI0
ag3
(g7
S'\xbe\x14\xa7,\xea_\xed?'
p378
tp379
Rp380
aI0
aI0
aI0
aI0
aI0
aI0
aI0
aI0
aI0
aI0
aI0
aI0
aI0
aI0
aI0
aI0
aI0
aI0
aI0
aI0
aI0
aI0
aI0
aI0
ag3
(g7
S'V\xac\xbb\x08l&\xaf?'
p381
tp382
Rp383
aI0
aI0
ag3
(g7
S'\x89V\xda\x15\xa0\xadd?'
p384
tp385
Rp386
aI0
aI0
aI0
aI0
aI0
aI0
ag3
(g7
S'8\xbb\xe3VbY\x92?'
p387
tp388
Rp389
ag3
(g7
S'\xecf\xc6\x8c\xdb5Q?'
p390
tp391
Rp392
aI0
aI0
aI0
aI0
aI0
aI0
aI0
aI0
aI0
aI0
aI0
ag3
(g7
S'0\xfb\xea\xd1\x88\xb9:?'
p393
tp394
Rp395
aI0
aI0
aI0
aI0
aI0
aI0
aI0
aI0
aI0
aI0
aI0
aI0
aI0
aI0
aI0
aI0
aI0
aI0
aI0
aI0
aI0
aI0
aI0
aI0
aI0
aI0
aI0
aI0
aI0
aI0
ag3
(g7
S',(s\x86L\xc56?'
p396
tp397
Rp398
aI0
aI0
aI0
aI0
aI0
asS'assemblage-21-3'
p399
(lp400
I0
aI0
ag3
(g7
S'DD\xc0`X\x168?'
p401
tp402
Rp403
aI0
aI0
aI0
aI0
aI0
aI0
aI0
aI0
aI0
aI0
aI0
aI0
aI0
aI0
aI0
ag3
(g7
S'*\xddt\x83\x80\x86\xdd?'
p404
tp405
Rp406
aI0
aI0
aI0
aI0
aI0
aI0
aI0
aI0
aI0
aI0
aI0
aI0
aI0
aI0
aI0
aI0
aI0
aI0
aI0
aI0
ag3
(g7
S'\xbam[s\x97\x13\r?'
p407
tp408
Rp409
aI0
aI0
aI0
ag3
(g7
S'\x08o\x81H\n\x11\xd9?'
p410
tp411
Rp412
aI0
aI0
aI0
aI0
aI0
aI0
aI0
aI0
aI0
ag3
(g7
S'\xea3Ezr\xfc\xc2?'
p413
tp414
Rp415
aI0
aI0
aI0
aI0
aI0
aI0
aI0
aI0
aI0
aI0
aI0
aI0
aI0
aI0
aI0
aI0
aI0
aI0
aI0
aI0
aI0
ag3
(g7
S'\xd9\xb8&v*\xff3?'
p416
tp417
Rp418
ag3
(g7
S'{A@\xe0\xaf&\x0f?'
p419
tp420
Rp421
aI0
aI0
aI0
aI0
aI0
aI0
aI0
aI0
aI0
aI0
aI0
aI0
aI0
aI0
aI0
aI0
aI0
aI0
aI0
aI0
aI0
aI0
aI0
aI0
aI0
aI0
asS'assemblage-28-3'
p422
(lp423
I0
aI0
ag3
(g7
S'\xda`\xf2\xe4\xe4C_?'
p424
tp425
Rp426
aI0
aI0
aI0
aI0
aI0
aI0
aI0
aI0
ag3
(g7
S'd\xee(\x06\xaf-\x10?'
p427
tp428
Rp429
ag3
(g7
S'\xe54\xb2\xc4\x91\xbc\x10?'
p430
tp431
Rp432
aI0
aI0
aI0
aI0
aI0
ag3
(g7
S'>6f\x88\xcf\xe8\xec?'
p433
tp434
Rp435
aI0
ag3
(g7
S'\x13a\xa4%(\x99\x1f?'
p436
tp437
Rp438
aI0
aI0
aI0
aI0
aI0
aI0
aI0
aI0
aI0
aI0
aI0
aI0
aI0
aI0
aI0
aI0
aI0
aI0
aI0
aI0
aI0
aI0
ag3
(g7
S'\xe7\xcd\x18\x0f\xe7O\xb2?'
p439
tp440
Rp441
aI0
aI0
ag3
(g7
S'ae\x00\xeb!\x1dm?'
p442
tp443
Rp444
aI0
aI0
aI0
aI0
aI0
aI0
ag3
(g7
S'\x1e\xe2>\x98\xe1\xc6\x92?'
p445
tp446
Rp447
ag3
(g7
S'\xa5\xc0\xa75\xb3\x91&?'
p448
tp449
Rp450
aI0
aI0
aI0
aI0
aI0
ag3
(g7
S'\x7f\x94\xe1\xd8\xd6\x011?'
p451
tp452
Rp453
aI0
aI0
aI0
aI0
aI0
ag3
(g7
S'\xed"tm\x9b-S?'
p454
tp455
Rp456
aI0
ag3
(g7
S'l\xc9\x13`\x8f%??'
p457
tp458
Rp459
aI0
aI0
aI0
ag3
(g7
S'{\x16\x0c>\xcfU\x10?'
p460
tp461
Rp462
aI0
aI0
aI0
aI0
aI0
aI0
aI0
aI0
aI0
aI0
aI0
aI0
aI0
aI0
aI0
aI0
ag3
(g7
S'y=\xb1D\xb0\x9b+?'
p463
tp464
Rp465
aI0
aI0
aI0
aI0
aI0
aI0
aI0
aI0
aI0
aI0
aI0
aI0
aI0
asS'assemblage-25-4'
p466
(lp467
I0
aI0
aI0
aI0
aI0
aI0
aI0
aI0
ag3
(g7
S'\x0b\xc4\xdf\xe0\xd6\x1d\xff>'
p468
tp469
Rp470
ag3
(g7
S'\xff\xbb\xa3\xb4\x11\x8f\x0e?'
p471
tp472
Rp473
aI0
aI0
aI0
aI0
aI0
aI0
ag3
(g7
S'\xde\x11\xa5C]\x9a\x0b?'
p474
tp475
Rp476
aI0
ag3
(g7
S'\x9f\x962\x88(\x8c\xe1?'
p477
tp478
Rp479
aI0
aI0
aI0
aI0
aI0
aI0
aI0
aI0
aI0
aI0
aI0
ag3
(g7
S'W\xcf?0t\xf6\x0e?'
p480
tp481
Rp482
aI0
aI0
aI0
ag3
(g7
S'D\xe7\x0f\x13y!\x0c?'
p483
tp484
Rp485
aI0
aI0
ag3
(g7
S'\xdazZ\xd1\xdd\tb?'
p486
tp487
Rp488
aI0
aI0
aI0
aI0
aI0
ag3
(g7
S'\xd4\xc1l\xe8K\x99\xdc?'
p489
tp490
Rp491
aI0
ag3
(g7
S'\xd2\x8b}\x15\xe2`\x16?'
p492
tp493
Rp494
aI0
ag3
(g7
S'\xc4\xeb\xa9\x82&)J?'
p495
tp496
Rp497
aI0
aI0
aI0
aI0
aI0
aI0
aI0
aI0
aI0
aI0
aI0
ag3
(g7
S'~\xb6P\x1a{,,?'
p498
tp499
Rp500
aI0
ag3
(g7
S'vb\xb2\x87\xba:#?'
p501
tp502
Rp503
aI0
aI0
aI0
aI0
aI0
aI0
aI0
aI0
aI0
aI0
aI0
aI0
aI0
aI0
aI0
aI0
aI0
aI0
aI0
aI0
aI0
ag3
(g7
S'J\xc6\xb0\xec\xd3\x94a?'
p504
tp505
Rp506
aI0
aI0
aI0
aI0
aI0
aI0
aI0
aI0
aI0
ag3
(g7
S'H5\xc9\xdf\x80\xae\x14?'
p507
tp508
Rp509
aI0
aI0
aI0
aI0
aI0
aI0
aI0
aI0
aI0
asS'assemblage-6-2'
p510
(lp511
I0
aI0
ag3
(g7
S'\x94\xcc\r\x8f0\x0bM?'
p512
tp513
Rp514
aI0
aI0
aI0
aI0
aI0
aI0
aI0
aI0
ag3
(g7
S'\xf0\xfb\xcby-\x1f,?'
p515
tp516
Rp517
ag3
(g7
S'1\xd7;r=L\x1a?'
p518
tp519
Rp520
aI0
aI0
aI0
aI0
aI0
ag3
(g7
S'\xceT\x14\xd2\x97!\xed?'
p521
tp522
Rp523
aI0
aI0
aI0
aI0
aI0
aI0
aI0
aI0
aI0
aI0
aI0
aI0
aI0
aI0
aI0
aI0
aI0
aI0
aI0
aI0
aI0
aI0
aI0
aI0
ag3
(g7
S'\xdc\x9f\xd3\xacc\xbe\xaf?'
p524
tp525
Rp526
aI0
aI0
ag3
(g7
S'h\x89\x97C\xae\x9fa?'
p527
tp528
Rp529
aI0
aI0
aI0
aI0
aI0
aI0
ag3
(g7
S'\xd66>\xac\xfah\x98?'
p530
tp531
Rp532
ag3
(g7
S'\x19^\xeb\xb6S\xc6C?'
p533
tp534
Rp535
aI0
aI0
aI0
aI0
aI0
ag3
(g7
S'"\xb5n\x17\xd3\x9d\x0c?'
p536
tp537
Rp538
aI0
aI0
aI0
aI0
ag3
(g7
S"'\xddn\x1aZ\x19C?"
p539
tp540
Rp541
ag3
(g7
S'\x14\x19\xd4xh\xeb3?'
p542
tp543
Rp544
aI0
aI0
aI0
aI0
aI0
aI0
aI0
aI0
aI0
aI0
aI0
aI0
aI0
aI0
aI0
aI0
aI0
aI0
aI0
aI0
aI0
aI0
aI0
aI0
aI0
aI0
aI0
ag3
(g7
S'\xa1\x87\xf1\xb2>2\x0c?'
p545
tp546
Rp547
aI0
aI0
aI0
aI0
aI0
aI0
aI0
aI0
asS'assemblage-7-3'
p548
(lp549
I0
aI0
aI0
aI0
aI0
aI0
aI0
aI0
aI0
aI0
aI0
aI0
aI0
aI0
aI0
aI0
aI0
aI0
ag3
(g7
S'&\xe4\xcb\r7>\xdd?'
p550
tp551
Rp552
aI0
aI0
aI0
aI0
aI0
aI0
aI0
aI0
aI0
aI0
aI0
aI0
aI0
aI0
aI0
aI0
aI0
aI0
aI0
aI0
aI0
aI0
aI0
aI0
ag3
(g7
S'+\x96%\xa2\x83c\xd9?'
p553
tp554
Rp555
aI0
aI0
aI0
aI0
aI0
aI0
aI0
aI0
aI0
ag3
(g7
S'\x9e)\x84\x14g\xef\xc2?'
p556
tp557
Rp558
aI0
aI0
aI0
aI0
aI0
aI0
aI0
aI0
aI0
aI0
aI0
aI0
ag3
(g7
S'SPf\xf3}\x88;?'
p559
tp560
Rp561
aI0
aI0
aI0
aI0
aI0
aI0
aI0
aI0
aI0
aI0
aI0
aI0
aI0
aI0
aI0
aI0
aI0
aI0
aI0
aI0
aI0
aI0
aI0
aI0
aI0
aI0
aI0
aI0
aI0
aI0
aI0
aI0
aI0
aI0
aI0
aI0
asS'assemblage-20-3'
p562
(lp563
I0
aI0
ag3
(g7
S'\x00)\x84G\x8d#`?'
p564
tp565
Rp566
aI0
aI0
aI0
aI0
aI0
aI0
aI0
ag3
(g7
S'\xe7\xd4\xcdG:\xbc\r?'
p567
tp568
Rp569
ag3
(g7
S'\xaetS?\x8a54?'
p570
tp571
Rp572
ag3
(g7
S'\x8ea\xb9D@6\x0e?'
p573
tp574
Rp575
aI0
aI0
aI0
aI0
aI0
ag3
(g7
S'#pw\x13P\xf0\xec?'
p576
tp577
Rp578
aI0
ag3
(g7
S'9\nT\x1fsx\x12?'
p579
tp580
Rp581
aI0
aI0
aI0
aI0
aI0
aI0
aI0
aI0
aI0
aI0
aI0
aI0
aI0
aI0
aI0
aI0
aI0
aI0
aI0
aI0
aI0
aI0
ag3
(g7
S'j\x90/@\x01\xd4\xb0?'
p582
tp583
Rp584
aI0
aI0
ag3
(g7
S'\xd1lg\x13\x8cXk?'
p585
tp586
Rp587
aI0
aI0
ag3
(g7
S'~2k_3,\x1b?'
p588
tp589
Rp590
aI0
aI0
aI0
ag3
(g7
S';\x082\x10\xcb\x1f\x98?'
p591
tp592
Rp593
ag3
(g7
S'(0\xa3\xda\x8fn=?'
p594
tp595
Rp596
aI0
aI0
aI0
aI0
aI0
ag3
(g7
S'$;\xf6u[\x03\x1c?'
p597
tp598
Rp599
aI0
aI0
aI0
aI0
ag3
(g7
S'\x01\xb7\nu/\x92\x1e?'
p600
tp601
Rp602
ag3
(g7
S'\xb5\x8a\xe3}#\xe1@?'
p603
tp604
Rp605
aI0
ag3
(g7
S'uB\xa9z\\!%?'
p606
tp607
Rp608
ag3
(g7
S'}\xads-\xeb\x1f\x0c?'
p609
tp610
Rp611
aI0
aI0
ag3
(g7
S'\xc4c\\H\xd2\xa2\x1c?'
p612
tp613
Rp614
aI0
ag3
(g7
S'\xd7?\x95\x87\xde\xc7#?'
p615
tp616
Rp617
aI0
aI0
aI0
aI0
aI0
aI0
aI0
ag3
(g7
S'\xb8\xcd\x06l\xd4\xf3\r?'
p618
tp619
Rp620
aI0
aI0
aI0
aI0
aI0
aI0
aI0
aI0
aI0
aI0
aI0
aI0
aI0
aI0
aI0
aI0
aI0
aI0
aI0
aI0
asS'assemblage-20-1'
p621
(lp622
I0
aI0
aI0
aI0
aI0
aI0
ag3
(g7
S'\x94\xbe\xae\x14b\x0f\r?'
p623
tp624
Rp625
aI0
aI0
aI0
aI0
aI0
aI0
aI0
aI0
aI0
aI0
aI0
ag3
(g7
S'K\xd7\x13\xc8\xa6-\xdc?'
p626
tp627
Rp628
aI0
aI0
aI0
aI0
aI0
aI0
aI0
aI0
aI0
aI0
aI0
aI0
aI0
aI0
aI0
aI0
aI0
aI0
ag3
(g7
S'\xe0\x9a\x00Xa\x00\x82?'
p629
tp630
Rp631
aI0
aI0
aI0
aI0
aI0
ag3
(g7
S'\xc5\x03\xbc.z|\xe1?'
p632
tp633
Rp634
aI0
aI0
aI0
ag3
(g7
S'\xd4cp\x03\xb6 k?'
p635
tp636
Rp637
aI0
aI0
aI0
ag3
(g7
S'+J"\xacg\x8b\x10?'
p638
tp639
Rp640
aI0
aI0
aI0
aI0
ag3
(g7
S'\xe8(\xb7\xde\x8a\xc9\x13?'
p641
tp642
Rp643
aI0
aI0
aI0
aI0
ag3
(g7
S'\n\xc0)#~PI?'
p644
tp645
Rp646
aI0
aI0
aI0
aI0
aI0
ag3
(g7
S'\x99\xd3M\x81\xe30\x10?'
p647
tp648
Rp649
aI0
aI0
aI0
aI0
aI0
aI0
aI0
aI0
aI0
aI0
aI0
aI0
ag3
(g7
S'\xc3\xdf\xf3T\xb2\xfe\x10?'
p650
tp651
Rp652
aI0
aI0
ag3
(g7
S's\xb7\x83\xe7\xcb\xa0[?'
p653
tp654
Rp655
aI0
aI0
aI0
aI0
aI0
aI0
aI0
aI0
aI0
ag3
(g7
S'{\xad0\xeaid6?'
p656
tp657
Rp658
aI0
aI0
aI0
aI0
aI0
aI0
aI0
aI0
aI0
asS'assemblage-18-4'
p659
(lp660
I0
aI0
ag3
(g7
S'\xde\xae\xec\x8d<\xf2L?'
p661
tp662
Rp663
aI0
aI0
aI0
aI0
aI0
aI0
aI0
aI0
ag3
(g7
S'zq\xef\x9c\x04\x92\xfb>'
p664
tp665
Rp666
ag3
(g7
S'\xa0\xc8$:L\xe8\xfe>'
p667
tp668
Rp669
ag3
(g7
S'9\x96\x96\xb86\xc9$?'
p670
tp671
Rp672
aI0
aI0
aI0
aI0
ag3
(g7
S'V\x94\\\xc0\xdb"\xe6?'
p673
tp674
Rp675
aI0
aI0
aI0
aI0
ag3
(g7
S"\xcd^'\r\x98\x08\xff>"
p676
tp677
Rp678
aI0
aI0
aI0
aI0
aI0
aI0
aI0
aI0
aI0
aI0
aI0
aI0
aI0
aI0
aI0
aI0
aI0
aI0
ag3
(g7
S'J*U\xd9\xa5\xb90?'
p679
tp680
Rp681
ag3
(g7
S'B\x7fP\xcc\x0e\xb1\xcb?'
p682
tp683
Rp684
aI0
aI0
ag3
(g7
S'C\xc3\xb97\x1boZ?'
p685
tp686
Rp687
aI0
aI0
aI0
aI0
aI0
aI0
ag3
(g7
S'"\x15sB\x9a\xc1\xb6?'
p688
tp689
Rp690
ag3
(g7
S'\xb6-\xba>\\\x81*?'
p691
tp692
Rp693
aI0
aI0
aI0
aI0
aI0
ag3
(g7
S'\x92N\x93(\xf6\xc5"?'
p694
tp695
Rp696
aI0
aI0
aI0
aI0
ag3
(g7
S'\x96\x8d\xcf\xb5<)\xff>'
p697
tp698
Rp699
ag3
(g7
S'\xdb-\x8d\\\x11RA?'
p700
tp701
Rp702
aI0
ag3
(g7
S'\xb6\xa6\xfd\xfex\x9c4?'
p703
tp704
Rp705
aI0
aI0
aI0
ag3
(g7
S'3\xb7\x11\xbc\xb1\xe0\x0e?'
p706
tp707
Rp708
ag3
(g7
S'\x9a\xe2W\xfd\xf5\x04\x00?'
p709
tp710
Rp711
ag3
(g7
S'\xa5\x9fH\r|\x9a\xfd>'
p712
tp713
Rp714
aI0
aI0
aI0
aI0
aI0
aI0
aI0
aI0
aI0
aI0
aI0
aI0
aI0
aI0
aI0
aI0
aI0
aI0
aI0
aI0
aI0
aI0
aI0
aI0
aI0
aI0
aI0
aI0
asS'assemblage-16-2'
p715
(lp716
I0
aI0
aI0
aI0
aI0
aI0
aI0
aI0
aI0
aI0
aI0
aI0
aI0
aI0
aI0
aI0
aI0
aI0
ag3
(g7
S'\xaa\x19oqP\xfd\xe8?'
p717
tp718
Rp719
aI0
aI0
aI0
aI0
aI0
aI0
aI0
aI0
aI0
aI0
aI0
aI0
aI0
aI0
aI0
aI0
aI0
aI0
aI0
aI0
aI0
aI0
aI0
aI0
ag3
(g7
S'\x82\x01lm*}\xca?'
p720
tp721
Rp722
aI0
aI0
aI0
aI0
aI0
aI0
aI0
aI0
aI0
ag3
(g7
S'\xa8\xcak\xcf\xe0\xb2\x8a?'
p723
tp724
Rp725
aI0
aI0
aI0
aI0
aI0
aI0
aI0
aI0
aI0
aI0
aI0
aI0
aI0
aI0
aI0
aI0
aI0
aI0
aI0
aI0
aI0
aI0
ag3
(g7
S'\x11\xd3\xffZ]E\x06?'
p726
tp727
Rp728
aI0
aI0
aI0
aI0
aI0
aI0
aI0
aI0
aI0
aI0
aI0
aI0
aI0
aI0
ag3
(g7
S'[\xab7\rh\x01\x07?'
p729
tp730
Rp731
aI0
aI0
aI0
ag3
(g7
S'.\xb5C\nz\xc4\x11?'
p732
tp733
Rp734
aI0
aI0
aI0
aI0
aI0
aI0
ag3
(g7
S'\x10]T\x82\x16\xee\x01?'
p735
tp736
Rp737
asS'assemblage-19-1'
p738
(lp739
I0
ag3
(g7
S'2Yx\x16\xa8~\xf0>'
p740
tp741
Rp742
aI0
aI0
aI0
aI0
ag3
(g7
S'\x80\xf3\xa1\xa1\n="?'
p743
tp744
Rp745
ag3
(g7
S'\xfd\xfcbq\x1e\x8b\xf1>'
p746
tp747
Rp748
aI0
aI0
aI0
aI0
aI0
aI0
ag3
(g7
S'\xec\x88\x86\x80\xfci\xf1>'
p749
tp750
Rp751
aI0
ag3
(g7
S'\\e\xa0\xbc\x94\x1f\n?'
p752
tp753
Rp754
aI0
ag3
(g7
S'\xd9\x04\xf6YL\xb6\xe4?'
p755
tp756
Rp757
aI0
aI0
ag3
(g7
S'6\xdba_\xafZ\xf2>'
p758
tp759
Rp760
aI0
aI0
aI0
aI0
ag3
(g7
S'\x1d\xb1\xa2\x94\xfa\x80\xf5>'
p761
tp762
Rp763
ag3
(g7
S'\xbdg\xbd\x04\x82d\xf1>'
p764
tp765
Rp766
aI0
aI0
aI0
aI0
aI0
aI0
ag3
(g7
S'\x8b\xcbm\xed+\x93\xf1>'
p767
tp768
Rp769
ag3
(g7
S'\xec\x9d\xac1\xf26\x02?'
p770
tp771
Rp772
aI0
ag3
(g7
S'\xa2K\x9e\xb7\x84\x11a?'
p773
tp774
Rp775
aI0
aI0
aI0
ag3
(g7
S'/\xc7\xcc`\xce\xc3\x06?'
p776
tp777
Rp778
aI0
ag3
(g7
S'\x8d\x85\xf5\xf6#T\xd5?'
p779
tp780
Rp781
aI0
ag3
(g7
S'\x02\x94\x1b+?"\n?'
p782
tp783
Rp784
aI0
ag3
(g7
S'\xc0\xa2\xcfv\xb2pQ?'
p785
tp786
Rp787
aI0
aI0
aI0
aI0
ag3
(g7
S'\xf8\xc4\xb2\x8d\xa5\xfc\xf1>'
p788
tp789
Rp790
ag3
(g7
S'\xe8\xc9\x9c\x89\xfaa\x8d?'
p791
tp792
Rp793
aI0
aI0
aI0
aI0
aI0
ag3
(g7
S'\xb2\xee\xca\xda\xe1a ?'
p794
tp795
Rp796
aI0
ag3
(g7
S'x`<$\xfck,?'
p797
tp798
Rp799
aI0
aI0
aI0
aI0
aI0
aI0
aI0
aI0
aI0
aI0
aI0
aI0
aI0
aI0
aI0
aI0
aI0
ag3
(g7
S'M\x98car0\xf3>'
p800
tp801
Rp802
aI0
aI0
aI0
ag3
(g7
S'F\xba\x9eET\x02S?'
p803
tp804
Rp805
aI0
ag3
(g7
S'\xb4\x0f$e\xac\xe7F?'
p806
tp807
Rp808
ag3
(g7
S'\xb18*\x1e\\\xdb\xf0>'
p809
tp810
Rp811
aI0
aI0
aI0
aI0
aI0
aI0
ag3
(g7
S'<\xbcND\x18?\x18?'
p812
tp813
Rp814
aI0
aI0
ag3
(g7
S'\xbf\xebI\x0c\xe6(\x10?'
p815
tp816
Rp817
aI0
aI0
aI0
aI0
aI0
ag3
(g7
S'3\x8a;n4s\xf2>'
p818
tp819
Rp820
asS'assemblage-4-4'
p821
(lp822
I0
aI0
aI0
aI0
aI0
ag3
(g7
S'\xfb\xd2l\xe5\t\xf9\x1a?'
p823
tp824
Rp825
aI0
aI0
aI0
aI0
aI0
aI0
aI0
aI0
aI0
aI0
aI0
aI0
ag3
(g7
S'^v\x0e\x8euV\xe0?'
p826
tp827
Rp828
aI0
aI0
aI0
aI0
aI0
aI0
ag3
(g7
S'\x11\x9f\x07\xd6\xd8\x067?'
p829
tp830
Rp831
aI0
aI0
ag3
(g7
S'X\x8c\x9fO\xab\xfd-?'
p832
tp833
Rp834
aI0
aI0
aI0
aI0
aI0
aI0
aI0
aI0
ag3
(g7
S'\xecN\x9fZ\xde\x96a?'
p835
tp836
Rp837
aI0
aI0
aI0
aI0
aI0
ag3
(g7
S"\xd94'(\xdf\xa7\xde?"
p838
tp839
Rp840
aI0
aI0
aI0
ag3
(g7
S'\x91\xa2\xeaA\xaa\x9a{?'
p841
tp842
Rp843
aI0
aI0
ag3
(g7
S'z)9/\xfb\x15Z?'
p844
tp845
Rp846
aI0
aI0
aI0
aI0
aI0
aI0
aI0
aI0
ag3
(g7
S'\x83\xaa8]\x9f\x87B?'
p847
tp848
Rp849
aI0
aI0
aI0
aI0
aI0
aI0
aI0
aI0
aI0
aI0
aI0
aI0
aI0
aI0
aI0
aI0
aI0
aI0
aI0
aI0
aI0
aI0
aI0
ag3
(g7
S'\x1e\x8b\xdb|\xab(:?'
p850
tp851
Rp852
aI0
aI0
aI0
aI0
aI0
aI0
aI0
aI0
aI0
ag3
(g7
S'\x10\xd6\xdbH\xcb5\x0f?'
p853
tp854
Rp855
aI0
aI0
aI0
aI0
aI0
aI0
aI0
aI0
aI0
as.