(dp0
S'assemblage-781-776'
p1
(lp2
F0.0
aF0.0
aF0.0
aF0.0
aF0.0
aF0.0
aF0.0
aF0.0
aF0.0
aF0.0
aF0.0
aF0.012
aF0.0
aF0.0
aF0.0
aF0.238
aF0.0
aF0.0
aF0.0
aF0.0
aF0.012
aF0.0
aF0.0
aF0.02
aF0.04
aF0.0
aF0.0
aF0.0
aF0.0
aF0.192
aF0.0
aF0.0
aF0.0
aF0.028
aF0.386
aF0.0
aF0.0
aF0.0
aF0.0
aF0.0
aF0.0
aF0.0
aF0.044
aF0.0
aF0.0
aF0.028
asS'assemblage-489-915'
p3
(lp4
F0.018
aF0.172
aF0.0
aF0.0
aF0.0
aF0.0
aF0.04
aF0.0
aF0.0
aF0.166
aF0.0
aF0.0
aF0.0
aF0.0
aF0.036
aF0.0
aF0.0
aF0.0
aF0.0
aF0.0
aF0.0
aF0.0
aF0.0
aF0.0
aF0.0
aF0.0
aF0.056
aF0.0
aF0.0
aF0.0
aF0.0
aF0.0
aF0.0
aF0.0
aF0.0
aF0.0
aF0.0
aF0.0
aF0.0
aF0.49
aF0.0
aF0.0
aF0.0
aF0.0
aF0.0
aF0.022
asS'assemblage-120-520'
p5
(lp6
F0.0
aF0.148
aF0.0
aF0.0
aF0.0
aF0.0
aF0.0
aF0.0
aF0.0
aF0.032
aF0.012
aF0.0
aF0.0
aF0.0
aF0.0
aF0.0
aF0.054
aF0.0
aF0.0
aF0.0
aF0.0
aF0.014
aF0.0
aF0.0
aF0.0
aF0.0
aF0.0
aF0.0
aF0.0
aF0.0
aF0.0
aF0.0
aF0.0
aF0.0
aF0.0
aF0.0
aF0.018
aF0.0
aF0.0
aF0.708
aF0.0
aF0.0
aF0.0
aF0.0
aF0.0
aF0.014
asS'assemblage-210-589'
p7
(lp8
F0.0
aF0.034
aF0.0
aF0.0
aF0.0
aF0.0
aF0.0
aF0.0
aF0.0
aF0.016
aF0.0
aF0.0
aF0.0
aF0.0
aF0.0
aF0.0
aF0.042
aF0.0
aF0.024
aF0.0
aF0.0
aF0.0
aF0.0
aF0.0
aF0.0
aF0.0
aF0.0
aF0.0
aF0.0
aF0.0
aF0.0
aF0.0
aF0.0
aF0.0
aF0.014
aF0.0
aF0.0
aF0.76
aF0.0
aF0.092
aF0.0
aF0.0
aF0.0
aF0.0
aF0.0
aF0.018
asS'assemblage-153-925'
p9
(lp10
F0.0
aF0.05
aF0.0
aF0.0
aF0.0
aF0.0
aF0.0
aF0.0
aF0.0
aF0.02
aF0.0
aF0.0
aF0.0
aF0.0
aF0.0
aF0.0
aF0.056
aF0.0
aF0.02
aF0.0
aF0.0
aF0.0
aF0.0
aF0.0
aF0.0
aF0.0
aF0.0
aF0.0
aF0.0
aF0.0
aF0.0
aF0.0
aF0.0
aF0.0
aF0.012
aF0.0
aF0.0
aF0.728
aF0.0
aF0.106
aF0.0
aF0.0
aF0.0
aF0.0
aF0.0
aF0.008
asS'assemblage-382-196'
p11
(lp12
F0.0
aF0.0
aF0.0
aF0.0
aF0.0
aF0.0
aF0.0
aF0.0
aF0.0
aF0.0
aF0.0
aF0.0
aF0.0
aF0.0
aF0.0
aF0.416
aF0.0
aF0.0
aF0.0
aF0.0
aF0.034
aF0.0
aF0.0
aF0.104
aF0.0
aF0.0
aF0.0
aF0.0
aF0.0
aF0.0
aF0.0
aF0.0
aF0.0
aF0.0
aF0.412
aF0.0
aF0.0
aF0.0
aF0.0
aF0.0
aF0.0
aF0.0
aF0.0
aF0.0
aF0.0
aF0.034
asS'assemblage-697-453'
p13
(lp14
F0.0
aF0.068
aF0.0
aF0.0
aF0.0
aF0.0
aF0.0
aF0.0
aF0.0
aF0.016
aF0.0
aF0.0
aF0.0
aF0.0
aF0.084
aF0.0
aF0.0
aF0.0
aF0.0
aF0.0
aF0.0
aF0.0
aF0.0
aF0.0
aF0.0
aF0.0
aF0.0
aF0.0
aF0.0
aF0.0
aF0.0
aF0.0
aF0.0
aF0.0
aF0.0
aF0.0
aF0.0
aF0.0
aF0.0
aF0.792
aF0.0
aF0.0
aF0.0
aF0.0
aF0.0
aF0.04
asS'assemblage-907-151'
p15
(lp16
F0.0
aF0.0
aF0.0
aF0.0
aF0.0
aF0.0
aF0.0
aF0.0
aF0.0
aF0.0
aF0.0
aF0.0
aF0.0
aF0.0
aF0.0
aF0.33
aF0.0
aF0.036
aF0.0
aF0.0
aF0.0
aF0.0
aF0.0
aF0.0
aF0.0
aF0.0
aF0.0
aF0.0
aF0.0
aF0.0
aF0.0
aF0.0
aF0.0
aF0.0
aF0.542
aF0.0
aF0.0
aF0.084
aF0.0
aF0.0
aF0.0
aF0.0
aF0.0
aF0.0
aF0.0
aF0.008
asS'assemblage-601-539'
p17
(lp18
F0.0
aF0.034
aF0.0
aF0.174
aF0.348
aF0.0
aF0.0
aF0.0
aF0.01
aF0.016
aF0.204
aF0.0
aF0.0
aF0.0
aF0.0
aF0.066
aF0.058
aF0.0
aF0.0
aF0.0
aF0.0
aF0.0
aF0.0
aF0.0
aF0.0
aF0.0
aF0.0
aF0.0
aF0.0
aF0.0
aF0.0
aF0.0
aF0.0
aF0.0
aF0.0
aF0.0
aF0.0
aF0.0
aF0.0
aF0.056
aF0.0
aF0.0
aF0.0
aF0.0
aF0.0
aF0.034
asS'assemblage-907-165'
p19
(lp20
F0.0
aF0.0
aF0.026
aF0.0
aF0.0
aF0.0
aF0.0
aF0.0
aF0.0
aF0.0
aF0.0
aF0.0
aF0.0
aF0.0
aF0.0
aF0.178
aF0.0
aF0.272
aF0.0
aF0.0
aF0.0
aF0.0
aF0.0
aF0.0
aF0.0
aF0.0
aF0.0
aF0.066
aF0.0
aF0.0
aF0.0
aF0.0
aF0.0
aF0.0
aF0.438
aF0.0
aF0.0
aF0.0
aF0.0
aF0.0
aF0.0
aF0.0
aF0.0
aF0.0
aF0.0
aF0.02
asS'assemblage-151-925'
p21
(lp22
F0.0
aF0.218
aF0.0
aF0.0
aF0.0
aF0.0
aF0.0
aF0.032
aF0.0
aF0.0
aF0.216
aF0.0
aF0.0
aF0.0
aF0.0
aF0.112
aF0.014
aF0.35
aF0.0
aF0.0
aF0.0
aF0.0
aF0.0
aF0.0
aF0.0
aF0.0
aF0.0
aF0.0
aF0.0
aF0.0
aF0.016
aF0.0
aF0.0
aF0.0
aF0.0
aF0.0
aF0.0
aF0.01
aF0.0
aF0.006
aF0.0
aF0.0
aF0.0
aF0.0
aF0.0
aF0.026
asS'assemblage-385-184'
p23
(lp24
F0.0
aF0.0
aF0.0
aF0.0
aF0.0
aF0.0
aF0.0
aF0.0
aF0.0
aF0.0
aF0.0
aF0.038
aF0.0
aF0.0
aF0.0
aF0.054
aF0.0
aF0.014
aF0.0
aF0.0
aF0.0
aF0.0
aF0.0
aF0.0
aF0.0
aF0.0
aF0.0
aF0.0
aF0.0
aF0.76
aF0.0
aF0.0
aF0.0
aF0.0
aF0.106
aF0.0
aF0.0
aF0.0
aF0.0
aF0.0
aF0.0
aF0.0
aF0.0
aF0.0
aF0.0
aF0.028
asS'assemblage-498-925'
p25
(lp26
F0.0
aF0.522
aF0.0
aF0.0
aF0.0
aF0.0
aF0.0
aF0.0
aF0.0
aF0.238
aF0.0
aF0.0
aF0.0
aF0.0
aF0.0
aF0.0
aF0.0
aF0.0
aF0.0
aF0.0
aF0.0
aF0.0
aF0.0
aF0.0
aF0.0
aF0.0
aF0.172
aF0.0
aF0.0
aF0.0
aF0.0
aF0.0
aF0.0
aF0.0
aF0.0
aF0.0
aF0.0
aF0.0
aF0.0
aF0.042
aF0.0
aF0.0
aF0.0
aF0.0
aF0.0
aF0.026
asS'assemblage-601-535'
p27
(lp28
F0.0
aF0.298
aF0.0
aF0.016
aF0.0
aF0.0
aF0.0
aF0.0
aF0.0
aF0.014
aF0.0
aF0.0
aF0.0
aF0.0
aF0.0
aF0.0
aF0.086
aF0.0
aF0.0
aF0.0
aF0.0
aF0.0
aF0.0
aF0.0
aF0.0
aF0.0
aF0.0
aF0.0
aF0.0
aF0.0
aF0.0
aF0.0
aF0.0
aF0.0
aF0.0
aF0.0
aF0.0
aF0.554
aF0.0
aF0.0
aF0.0
aF0.0
aF0.0
aF0.0
aF0.0
aF0.032
asS'assemblage-781-185'
p29
(lp30
F0.0
aF0.0
aF0.008
aF0.0
aF0.0
aF0.0
aF0.0
aF0.0
aF0.0
aF0.0
aF0.0
aF0.0
aF0.0
aF0.0
aF0.0
aF0.126
aF0.0
aF0.34
aF0.0
aF0.0
aF0.0
aF0.0
aF0.0
aF0.0
aF0.0
aF0.0
aF0.0
aF0.07
aF0.0
aF0.0
aF0.0
aF0.0
aF0.0
aF0.0
aF0.444
aF0.0
aF0.0
aF0.0
aF0.0
aF0.0
aF0.0
aF0.0
aF0.0
aF0.0
aF0.0
aF0.012
asS'assemblage-569-984'
p31
(lp32
F0.0
aF0.0
aF0.018
aF0.0
aF0.0
aF0.0
aF0.0
aF0.0
aF0.0
aF0.0
aF0.0
aF0.0
aF0.0
aF0.0
aF0.0
aF0.142
aF0.0
aF0.264
aF0.0
aF0.0
aF0.0
aF0.0
aF0.0
aF0.0
aF0.0
aF0.0
aF0.0
aF0.08
aF0.0
aF0.0
aF0.0
aF0.0
aF0.0
aF0.0
aF0.47
aF0.0
aF0.0
aF0.0
aF0.0
aF0.0
aF0.0
aF0.0
aF0.0
aF0.0
aF0.0
aF0.026
asS'assemblage-776-769'
p33
(lp34
F0.0
aF0.0
aF0.0
aF0.0
aF0.0
aF0.0
aF0.0
aF0.0
aF0.0
aF0.0
aF0.0
aF0.044
aF0.0
aF0.0
aF0.0
aF0.032
aF0.0
aF0.008
aF0.0
aF0.0
aF0.0
aF0.0
aF0.0
aF0.0
aF0.0
aF0.0
aF0.0
aF0.0
aF0.0
aF0.828
aF0.0
aF0.0
aF0.0
aF0.0
aF0.076
aF0.0
aF0.0
aF0.0
aF0.0
aF0.0
aF0.0
aF0.0
aF0.0
aF0.0
aF0.0
aF0.012
asS'assemblage-606-537'
p35
(lp36
F0.0
aF0.04
aF0.0
aF0.144
aF0.358
aF0.0
aF0.0
aF0.0
aF0.004
aF0.006
aF0.252
aF0.0
aF0.0
aF0.0
aF0.0
aF0.038
aF0.05
aF0.0
aF0.0
aF0.0
aF0.0
aF0.0
aF0.0
aF0.0
aF0.0
aF0.0
aF0.0
aF0.0
aF0.0
aF0.0
aF0.0
aF0.0
aF0.0
aF0.0
aF0.0
aF0.0
aF0.0
aF0.0
aF0.0
aF0.07
aF0.0
aF0.0
aF0.0
aF0.0
aF0.0
aF0.038
asS'assemblage-393-273'
p37
(lp38
F0.086
aF0.012
aF0.0
aF0.0
aF0.0
aF0.0
aF0.0
aF0.0
aF0.0
aF0.034
aF0.0
aF0.0
aF0.0
aF0.018
aF0.0
aF0.0
aF0.0
aF0.0
aF0.0
aF0.0
aF0.0
aF0.0
aF0.0
aF0.0
aF0.0
aF0.0
aF0.0
aF0.0
aF0.0
aF0.0
aF0.0
aF0.0
aF0.0
aF0.0
aF0.0
aF0.0
aF0.0
aF0.0
aF0.0
aF0.818
aF0.0
aF0.0
aF0.0
aF0.0
aF0.0
aF0.032
asS'assemblage-603-636'
p39
(lp40
F0.0
aF0.0
aF0.0
aF0.0
aF0.0
aF0.0
aF0.0
aF0.0
aF0.0
aF0.0
aF0.0
aF0.0
aF0.0
aF0.0
aF0.0
aF0.772
aF0.0
aF0.032
aF0.0
aF0.0
aF0.0
aF0.0
aF0.0
aF0.0
aF0.0
aF0.0
aF0.0
aF0.0
aF0.0
aF0.0
aF0.0
aF0.0
aF0.0
aF0.0
aF0.128
aF0.0
aF0.0
aF0.04
aF0.0
aF0.0
aF0.0
aF0.0
aF0.0
aF0.0
aF0.0
aF0.028
asS'assemblage-393-178'
p41
(lp42
F0.0
aF0.0
aF0.0
aF0.0
aF0.0
aF0.0
aF0.0
aF0.0
aF0.0
aF0.0
aF0.0
aF0.0
aF0.0
aF0.0
aF0.0
aF0.106
aF0.0
aF0.0
aF0.0
aF0.0
aF0.022
aF0.0
aF0.0
aF0.0
aF0.0
aF0.0
aF0.0
aF0.0
aF0.0
aF0.0
aF0.0
aF0.0
aF0.0
aF0.072
aF0.616
aF0.0
aF0.0
aF0.0
aF0.0
aF0.0
aF0.0
aF0.0
aF0.148
aF0.0
aF0.0
aF0.036
asS'assemblage-579-642'
p43
(lp44
F0.0
aF0.0
aF0.0
aF0.0
aF0.0
aF0.0
aF0.0
aF0.0
aF0.0
aF0.0
aF0.0
aF0.0
aF0.0
aF0.0
aF0.0
aF0.076
aF0.0
aF0.624
aF0.0
aF0.0
aF0.08
aF0.0
aF0.014
aF0.0
aF0.0
aF0.0
aF0.0
aF0.0
aF0.0
aF0.0
aF0.0
aF0.028
aF0.0
aF0.0
aF0.072
aF0.0
aF0.0
aF0.09
aF0.0
aF0.0
aF0.0
aF0.0
aF0.0
aF0.0
aF0.0
aF0.016
asS'assemblage-599-537'
p45
(lp46
F0.0
aF0.25
aF0.0
aF0.0
aF0.0
aF0.0
aF0.0
aF0.048
aF0.0
aF0.018
aF0.152
aF0.0
aF0.0
aF0.0
aF0.0
aF0.122
aF0.01
aF0.338
aF0.0
aF0.0
aF0.0
aF0.0
aF0.0
aF0.0
aF0.0
aF0.0
aF0.0
aF0.0
aF0.0
aF0.0
aF0.018
aF0.0
aF0.0
aF0.0
aF0.0
aF0.0
aF0.0
aF0.008
aF0.0
aF0.0
aF0.0
aF0.0
aF0.0
aF0.0
aF0.0
aF0.036
asS'assemblage-943-508'
p47
(lp48
F0.0
aF0.122
aF0.0
aF0.0
aF0.0
aF0.0
aF0.134
aF0.0
aF0.0
aF0.448
aF0.0
aF0.0
aF0.0
aF0.0
aF0.108
aF0.0
aF0.0
aF0.0
aF0.0
aF0.0
aF0.0
aF0.0
aF0.0
aF0.0
aF0.0
aF0.0
aF0.0
aF0.0
aF0.0
aF0.0
aF0.0
aF0.0
aF0.0
aF0.0
aF0.0
aF0.0
aF0.0
aF0.0
aF0.0
aF0.158
aF0.0
aF0.0
aF0.0
aF0.0
aF0.0
aF0.03
asS'assemblage-726-448'
p49
(lp50
F0.0
aF0.116
aF0.0
aF0.0
aF0.0
aF0.0
aF0.0
aF0.0
aF0.0
aF0.014
aF0.0
aF0.0
aF0.0
aF0.0
aF0.07
aF0.0
aF0.0
aF0.0
aF0.0
aF0.0
aF0.0
aF0.0
aF0.0
aF0.0
aF0.0
aF0.0
aF0.0
aF0.0
aF0.0
aF0.0
aF0.0
aF0.0
aF0.0
aF0.0
aF0.0
aF0.0
aF0.0
aF0.0
aF0.0
aF0.76
aF0.0
aF0.0
aF0.0
aF0.0
aF0.0
aF0.04
asS'assemblage-224-589'
p51
(lp52
F0.0
aF0.048
aF0.0
aF0.15
aF0.392
aF0.0
aF0.0
aF0.0
aF0.012
aF0.008
aF0.266
aF0.0
aF0.0
aF0.0
aF0.0
aF0.03
aF0.028
aF0.0
aF0.0
aF0.0
aF0.0
aF0.0
aF0.0
aF0.0
aF0.0
aF0.0
aF0.0
aF0.0
aF0.008
aF0.0
aF0.0
aF0.0
aF0.0
aF0.0
aF0.0
aF0.0
aF0.0
aF0.0
aF0.0
aF0.046
aF0.0
aF0.0
aF0.0
aF0.0
aF0.0
aF0.012
asS'assemblage-384-269'
p53
(lp54
F0.068
aF0.012
aF0.0
aF0.0
aF0.0
aF0.0
aF0.0
aF0.0
aF0.0
aF0.058
aF0.0
aF0.0
aF0.0
aF0.016
aF0.0
aF0.0
aF0.0
aF0.0
aF0.0
aF0.0
aF0.0
aF0.0
aF0.0
aF0.0
aF0.0
aF0.0
aF0.0
aF0.0
aF0.0
aF0.0
aF0.0
aF0.0
aF0.0
aF0.0
aF0.0
aF0.0
aF0.0
aF0.0
aF0.0
aF0.806
aF0.0
aF0.0
aF0.0
aF0.0
aF0.0
aF0.04
asS'assemblage-575-975'
p55
(lp56
F0.0
aF0.0
aF0.0
aF0.0
aF0.0
aF0.0
aF0.0
aF0.0
aF0.0
aF0.0
aF0.0
aF0.0
aF0.0
aF0.0
aF0.0
aF0.746
aF0.0
aF0.026
aF0.0
aF0.0
aF0.0
aF0.0
aF0.0
aF0.0
aF0.0
aF0.0
aF0.0
aF0.0
aF0.0
aF0.0
aF0.0
aF0.0
aF0.0
aF0.0
aF0.14
aF0.0
aF0.0
aF0.058
aF0.0
aF0.0
aF0.0
aF0.0
aF0.0
aF0.0
aF0.0
aF0.03
asS'assemblage-159-926'
p57
(lp58
F0.0
aF0.284
aF0.0
aF0.0
aF0.0
aF0.0
aF0.0
aF0.042
aF0.0
aF0.0
aF0.174
aF0.0
aF0.0
aF0.0
aF0.0
aF0.102
aF0.024
aF0.314
aF0.0
aF0.0
aF0.0
aF0.0
aF0.0
aF0.0
aF0.0
aF0.0
aF0.0
aF0.0
aF0.0
aF0.0
aF0.01
aF0.0
aF0.0
aF0.0
aF0.0
aF0.0
aF0.0
aF0.014
aF0.0
aF0.0
aF0.0
aF0.0
aF0.0
aF0.0
aF0.0
aF0.036
as.