ccopy_reg
_reconstructor
p0
(cnetworkx.classes.graph
Graph
p1
c__builtin__
object
p2
Ntp3
Rp4
(dp5
S'node'
p6
(dp7
S'assemblage-781-776'
p8
(dp9
S'name'
p10
g8
ssS'assemblage-489-915'
p11
(dp12
g10
g11
ssS'assemblage-120-520'
p13
(dp14
g10
g13
ssS'assemblage-210-589'
p15
(dp16
g10
g15
ssS'assemblage-153-925'
p17
(dp18
g10
g17
ssS'assemblage-382-196'
p19
(dp20
g10
g19
ssS'assemblage-697-453'
p21
(dp22
g10
g21
ssS'assemblage-907-151'
p23
(dp24
g10
g23
ssS'assemblage-601-539'
p25
(dp26
g10
g25
ssS'assemblage-907-165'
p27
(dp28
g10
g27
ssS'assemblage-151-925'
p29
(dp30
g10
g29
ssS'assemblage-385-184'
p31
(dp32
g10
g31
ssS'assemblage-498-925'
p33
(dp34
g10
g33
ssS'assemblage-601-535'
p35
(dp36
g10
g35
ssS'assemblage-781-185'
p37
(dp38
g10
g37
ssS'assemblage-569-984'
p39
(dp40
g10
g39
ssS'assemblage-776-769'
p41
(dp42
g10
g41
ssS'assemblage-606-537'
p43
(dp44
g10
g43
ssS'assemblage-726-448'
p45
(dp46
g10
g45
ssS'assemblage-603-636'
p47
(dp48
g10
g47
ssS'assemblage-393-178'
p49
(dp50
g10
g49
ssS'assemblage-579-642'
p51
(dp52
g10
g51
ssS'assemblage-599-537'
p53
(dp54
g10
g53
ssS'assemblage-943-508'
p55
(dp56
g10
g55
ssS'assemblage-393-273'
p57
(dp58
g10
g57
ssS'assemblage-224-589'
p59
(dp60
g10
g59
ssS'assemblage-159-926'
p61
(dp62
g10
g61
ssS'assemblage-575-975'
p63
(dp64
g10
g63
ssS'assemblage-384-269'
p65
(dp66
g10
g65
sssS'graph'
p67
(dp68
S'is_directed'
p69
I00
ssS'edge'
p70
(dp71
g8
(dp72
g11
(dp73
S'weight'
p74
S'UUMMMMUMMUMDMMUDMMMMDMMDDMUMMDMMMDDMMMMUMMDMMD'
p75
ssg13
(dp76
g74
S'MUMMMMMMMUUDMMMDUMMMDUMDDMMMMDMMMDDMUMMUMMDMMD'
p77
ssg15
(dp78
g74
S'MUMMMMMMMUMDMMMDUMUMDMMDDMMMMDMMMDDMMUMUMMDMMD'
p79
ssg17
(dp80
g74
S'MUMMMMMMMUMDMMMDUMUMDMMDDMMMMDMMMDDMMUMUMMDMMD'
p81
ssg19
(dp82
g74
S'MMMMMMMMMMMDMMMUMMMMUMMUDMMMMDMMMDUMMMMMMMDMMU'
p83
ssg21
(dp84
g74
S'MUMMMMMMMUMDMMUDMMMMDMMDDMMMMDMMMDDMMMMUMMDMMU'
p85
ssg23
(dp86
g74
S'MMMMMMMMMMMDMMMUMUMMDMMDDMMMMDMMMDUMMUMMMMDMMD'
p87
ssg25
(dp88
g74
S'MUMUUMMMUUUDMMMDUMMMDMMDDMMMMDMMMDDMMMMUMMDMMU'
p89
ssg27
(dp90
g74
S'MMUMMMMMMMMDMMMDMUMMDMMDDMMUMDMMMDUMMMMMMMDMMD'
p91
ssg29
(dp92
g74
S'MUMMMMMUMMUDMMMDUUMMDMMDDMMMMDUMMDDMMUMUMMDMMM'
p93
ssg31
(dp94
g74
S'MMMMMMMMMMMUMMMDMUMMDMMDDMMMMUMMMDDMMMMMMMDMMM'
p95
ssg33
(dp96
g74
S'MUMMMMMMMUMDMMMDMMMMDMMDDMUMMDMMMDDMMMMUMMDMMD'
p97
ssg35
(dp98
g74
S'MUMUMMMMMUMDMMMDUMMMDMMDDMMMMDMMMDDMMUMMMMDMMU'
p99
ssg37
(dp100
g74
S'MMUMMMMMMMMDMMMDMUMMDMMDDMMUMDMMMDUMMMMMMMDMMD'
p101
ssg39
(dp102
g74
S'MMUMMMMMMMMDMMMDMUMMDMMDDMMUMDMMMDUMMMMMMMDMMM'
p103
ssg41
(dp104
g74
S'MMMMMMMMMMMUMMMDMUMMDMMDDMMMMUMMMDDMMMMMMMDMMD'
p105
ssg43
(dp106
g74
S'MUMUUMMMUUUDMMMDUMMMDMMDDMMMMDMMMDDMMMMUMMDMMU'
p107
ssg45
(dp108
g74
S'MUMMMMMMMUMDMMUDMMMMDMMDDMMMMDMMMDDMMMMUMMDMMU'
p109
ssg47
(dp110
g74
S'MMMMMMMMMMMDMMMUMUMMDMMDDMMMMDMMMDDMMUMMMMDMMM'
p111
ssg49
(dp112
g74
S'MMMMMMMMMMMDMMMDMMMMUMMDDMMMMDMMMUUMMMMMMMUMMU'
p113
ssg51
(dp114
g74
S'MMMMMMMMMMMDMMMDMUMMUMUDDMMMMDMUMDDMMUMMMMDMMD'
p115
ssg53
(dp116
g74
S'MUMMMMMUMUUDMMMDUUMMDMMDDMMMMDUMMDDMMUMMMMDMMU'
p117
ssg55
(dp118
g74
S'MUMMMMUMMUMDMMUDMMMMDMMDDMMMMDMMMDDMMMMUMMDMMM'
p119
ssg57
(dp120
g74
S'UUMMMMMMMUMDMUMDMMMMDMMDDMMMMDMMMDDMMMMUMMDMMU'
p121
ssg59
(dp122
g74
S'MUMUUMMMUUUDMMMDUMMMDMMDDMMMUDMMMDDMMMMUMMDMMD'
p123
ssg61
(dp124
g74
S'MUMMMMMUMMUDMMMDUUMMDMMDDMMMMDUMMDDMMUMMMMDMMU'
p125
ssg63
(dp126
g74
S'MMMMMMMMMMMDMMMUMUMMDMMDDMMMMDMMMDDMMUMMMMDMMM'
p127
ssg65
(dp128
g74
S'UUMMMMMMMUMDMUMDMMMMDMMDDMMMMDMMMDDMMMMUMMDMMU'
p129
sssg11
(dp130
g8
g73
sg13
(dp131
g74
S'DDMMMMDMMDUMMMDMUMMMMUMMMMDMMMMMMMMMUMMUMMMMMD'
p132
ssg15
(dp133
g74
S'DDMMMMDMMDMMMMDMUMUMMMMMMMDMMMMMMMUMMUMDMMMMMD'
p134
ssg17
(dp135
g74
S'DDMMMMDMMDMMMMDMUMUMMMMMMMDMMMMMMMUMMUMDMMMMMD'
p136
ssg19
(dp137
g74
S'DDMMMMDMMDMMMMDUMMMMUMMUMMDMMMMMMMUMMMMDMMMMMU'
p138
ssg21
(dp139
g74
S'DDMMMMDMMDMMMMUMMMMMMMMMMMDMMMMMMMMMMMMUMMMMMU'
p140
ssg23
(dp141
g74
S'DDMMMMDMMDMMMMDUMUMMMMMMMMDMMMMMMMUMMUMDMMMMMD'
p142
ssg25
(dp143
g74
S'DDMUUMDMUDUMMMDUUMMMMMMMMMDMMMMMMMMMMMMDMMMMMU'
p144
ssg27
(dp145
g74
S'DDUMMMDMMDMMMMDUMUMMMMMMMMDUMMMMMMUMMMMDMMMMMM'
p146
ssg29
(dp147
g74
S'DUMMMMDUMDUMMMDUUUMMMMMMMMDMMMUMMMMMMUMDMMMMMU'
p148
ssg31
(dp149
g74
S'DDMMMMDMMDMUMMDUMUMMMMMMMMDMMUMMMMUMMMMDMMMMMU'
p150
ssg33
(dp151
g74
S'DUMMMMDMMUMMMMDMMMMMMMMMMMUMMMMMMMMMMMMDMMMMMU'
p152
ssg35
(dp153
g74
S'DUMUMMDMMDMMMMDMUMMMMMMMMMDMMMMMMMMMMUMDMMMMMU'
p154
ssg37
(dp155
g74
S'DDUMMMDMMDMMMMDUMUMMMMMMMMDUMMMMMMUMMMMDMMMMMD'
p156
ssg39
(dp157
g74
S'DDUMMMDMMDMMMMDUMUMMMMMMMMDUMMMMMMUMMMMDMMMMMU'
p158
ssg41
(dp159
g74
S'DDMMMMDMMDMUMMDUMUMMMMMMMMDMMUMMMMUMMMMDMMMMMD'
p160
ssg43
(dp161
g74
S'DDMUUMDMUDUMMMDUUMMMMMMMMMDMMMMMMMMMMMMDMMMMMU'
p162
ssg45
(dp163
g74
S'DDMMMMDMMDMMMMUMMMMMMMMMMMDMMMMMMMMMMMMUMMMMMU'
p164
ssg47
(dp165
g74
S'DDMMMMDMMDMMMMDUMUMMMMMMMMDMMMMMMMUMMUMDMMMMMU'
p166
ssg49
(dp167
g74
S'DDMMMMDMMDMMMMDUMMMMUMMMMMDMMMMMMUUMMMMDMMUMMU'
p168
ssg51
(dp169
g74
S'DDMMMMDMMDMMMMDUMUMMUMUMMMDMMMMUMMUMMUMDMMMMMD'
p170
ssg53
(dp171
g74
S'DUMMMMDUMDUMMMDUUUMMMMMMMMDMMMUMMMMMMUMDMMMMMU'
p172
ssg55
(dp173
g74
S'DDMMMMUMMUMMMMUMMMMMMMMMMMDMMMMMMMMMMMMDMMMMMU'
p174
ssg57
(dp175
g74
S'UDMMMMDMMDMMMUDMMMMMMMMMMMDMMMMMMMMMMMMUMMMMMU'
p176
ssg59
(dp177
g74
S'DDMUUMDMUDUMMMDUUMMMMMMMMMDMUMMMMMMMMMMDMMMMMD'
p178
ssg61
(dp179
g74
S'DUMMMMDUMDUMMMDUUUMMMMMMMMDMMMUMMMMMMUMDMMMMMU'
p180
ssg63
(dp181
g74
S'DDMMMMDMMDMMMMDUMUMMMMMMMMDMMMMMMMUMMUMDMMMMMU'
p182
ssg65
(dp183
g74
S'UDMMMMDMMDMMMUDMMMMMMMMMMMDMMMMMMMMMMMMUMMMMMU'
p184
sssg13
(dp185
g8
g76
sg11
g131
sg41
(dp186
g74
S'MDMMMMMMMDDUMMMUDUMMMDMMMMMMMUMMMMUMDMMDMMMMMD'
p187
ssg15
(dp188
g74
S'MDMMMMMMMDDMMMMMDMUMMDMMMMMMMMMMMMUMDUMDMMMMMU'
p189
ssg17
(dp190
g74
S'MDMMMMMMMDDMMMMMMMUMMDMMMMMMMMMMMMUMDUMDMMMMMD'
p191
ssg19
(dp192
g74
S'MDMMMMMMMDDMMMMUDMMMUDMUMMMMMMMMMMUMDMMDMMMMMU'
p193
ssg21
(dp194
g74
S'MDMMMMMMMDDMMMUMDMMMMDMMMMMMMMMMMMMMDMMUMMMMMU'
p195
ssg23
(dp196
g74
S'MDMMMMMMMDDMMMMUDUMMMDMMMMMMMMMMMMUMDUMDMMMMMD'
p197
ssg25
(dp198
g74
S'MDMUUMMMUDUMMMMUMMMMMDMMMMMMMMMMMMMMDMMDMMMMMU'
p199
ssg27
(dp200
g74
S'MDUMMMMMMDDMMMMUDUMMMDMMMMMUMMMMMMUMDMMDMMMMMU'
p201
ssg29
(dp202
g74
S'MUMMMMMUMDUMMMMUDUMMMDMMMMMMMMUMMMMMDUMDMMMMMU'
p203
ssg31
(dp204
g74
S'MDMMMMMMMDDUMMMUDUMMMDMMMMMMMUMMMMUMDMMDMMMMMU'
p205
ssg33
(dp206
g74
S'MUMMMMMMMUDMMMMMDMMMMDMMMMUMMMMMMMMMDMMDMMMMMU'
p207
ssg35
(dp208
g74
S'MUMUMMMMMDDMMMMMUMMMMDMMMMMMMMMMMMMMDUMDMMMMMU'
p209
ssg37
(dp210
g74
S'MDUMMMMMMDDMMMMUDUMMMDMMMMMUMMMMMMUMDMMDMMMMMD'
p211
ssg39
(dp212
g74
S'MDUMMMMMMDDMMMMUDUMMMDMMMMMUMMMMMMUMDMMDMMMMMU'
p213
ssg43
(dp214
g74
S'MDMUUMMMUDUMMMMUMMMMMDMMMMMMMMMMMMMMDMMDMMMMMU'
p215
ssg45
(dp216
g74
S'MDMMMMMMMDDMMMUMDMMMMDMMMMMMMMMMMMMMDMMUMMMMMU'
p217
ssg47
(dp218
g74
S'MDMMMMMMMDDMMMMUDUMMMDMMMMMMMMMMMMUMDUMDMMMMMU'
p219
ssg49
(dp220
g74
S'MDMMMMMMMDDMMMMUDMMMUDMMMMMMMMMMMUUMDMMDMMUMMU'
p221
ssg51
(dp222
g74
S'MDMMMMMMMDDMMMMUDUMMUDUMMMMMMMMUMMUMDUMDMMMMMM'
p223
ssg53
(dp224
g74
S'MUMMMMMUMDUMMMMUDUMMMDMMMMMMMMUMMMMMDUMDMMMMMU'
p225
ssg55
(dp226
g74
S'MDMMMMUMMUDMMMUMDMMMMDMMMMMMMMMMMMMMDMMDMMMMMU'
p227
ssg57
(dp228
g74
S'UDMMMMMMMMDMMUMMDMMMMDMMMMMMMMMMMMMMDMMUMMMMMU'
p229
ssg59
(dp230
g74
S'MDMUUMMMUDUMMMMUDMMMMDMMMMMMUMMMMMMMDMMDMMMMMD'
p231
ssg61
(dp232
g74
S'MUMMMMMUMDUMMMMUDUMMMDMMMMMMMMUMMMMMDUMDMMMMMU'
p233
ssg63
(dp234
g74
S'MDMMMMMMMDDMMMMUDUMMMDMMMMMMMMMMMMUMDUMDMMMMMU'
p235
ssg65
(dp236
g74
S'UDMMMMMMMUDMMUMMDMMMMDMMMMMMMMMMMMMMDMMUMMMMMU'
p237
sssg15
(dp238
g8
g78
sg11
g133
sg13
g188
sg17
(dp239
g74
S'MUMMMMMMMUMMMMMMUMDMMMMMMMMMMMMMMMDMMDMUMMMMMD'
p240
ssg19
(dp241
g74
S'MDMMMMMMMDMMMMMUDMDMUMMUMMMMMMMMMMUMMDMDMMMMMU'
p242
ssg21
(dp243
g74
S'MUMMMMMMMMMMMMUMDMDMMMMMMMMMMMMMMMDMMDMUMMMMMU'
p244
ssg23
(dp245
g74
S'MDMMMMMMMDMMMMMUDUDMMMMMMMMMMMMMMMUMMDMDMMMMMD'
p246
ssg25
(dp247
g74
S'MMMUUMMMUMUMMMMUUMDMMMMMMMMMMMMMMMDMMDMDMMMMMU'
p248
ssg27
(dp249
g74
S'MDUMMMMMMDMMMMMUDUDMMMMMMMMUMMMMMMUMMDMDMMMMMM'
p250
ssg29
(dp251
g74
S'MUMMMMMUMDUMMMMUDUDMMMMMMMMMMMUMMMDMMDMDMMMMMU'
p252
ssg31
(dp253
g74
S'MDMMMMMMMDMUMMMUDUDMMMMMMMMMMUMMMMUMMDMDMMMMMU'
p254
ssg33
(dp255
g74
S'MUMMMMMMMUMMMMMMDMDMMMMMMMUMMMMMMMDMMDMDMMMMMU'
p256
ssg35
(dp257
g74
S'MUMUMMMMMMMMMMMMUMDMMMMMMMMMMMMMMMDMMDMDMMMMMU'
p258
ssg37
(dp259
g74
S'MDUMMMMMMDMMMMMUDUDMMMMMMMMUMMMMMMUMMDMDMMMMMD'
p260
ssg39
(dp261
g74
S'MDUMMMMMMDMMMMMUDUDMMMMMMMMUMMMMMMUMMDMDMMMMMU'
p262
ssg41
(dp263
g74
S'MDMMMMMMMDMUMMMUDUDMMMMMMMMMMUMMMMUMMDMDMMMMMD'
p264
ssg43
(dp265
g74
S'MUMUUMMMUDUMMMMUUMDMMMMMMMMMMMMMMMDMMDMDMMMMMU'
p266
ssg45
(dp267
g74
S'MUMMMMMMMMMMMMUMDMDMMMMMMMMMMMMMMMDMMDMUMMMMMU'
p268
ssg47
(dp269
g74
S'MDMMMMMMMDMMMMMUDUDMMMMMMMMMMMMMMMUMMDMDMMMMMU'
p270
ssg49
(dp271
g74
S'MDMMMMMMMDMMMMMUDMDMUMMMMMMMMMMMMUUMMDMDMMUMMU'
p272
ssg51
(dp273
g74
S'MDMMMMMMMDMMMMMUDUDMUMUMMMMMMMMUMMUMMDMDMMMMMM'
p274
ssg53
(dp275
g74
S'MUMMMMMUMMUMMMMUDUDMMMMMMMMMMMUMMMDMMDMDMMMMMU'
p276
ssg55
(dp277
g74
S'MUMMMMUMMUMMMMUMDMDMMMMMMMMMMMMMMMDMMDMUMMMMMU'
p278
ssg57
(dp279
g74
S'UDMMMMMMMUMMMUMMDMDMMMMMMMMMMMMMMMDMMDMUMMMMMU'
p280
ssg59
(dp281
g74
S'MUMUUMMMUDUMMMMUDMDMMMMMMMMMUMMMMMDMMDMDMMMMMD'
p282
ssg61
(dp283
g74
S'MUMMMMMUMDUMMMMUDUDMMMMMMMMMMMUMMMDMMDMDMMMMMU'
p284
ssg63
(dp285
g74
S'MDMMMMMMMDMMMMMUDUDMMMMMMMMMMMMMMMUMMDMDMMMMMU'
p286
ssg65
(dp287
g74
S'UDMMMMMMMUMMMUMMDMDMMMMMMMMMMMMMMMDMMDMUMMMMMU'
p288
sssg17
(dp289
g8
g80
sg11
g135
sg13
g190
sg15
g239
sg19
(dp290
g74
S'MDMMMMMMMDMMMMMUDMDMUMMUMMMMMMMMMMUMMDMDMMMMMU'
p291
ssg21
(dp292
g74
S'MUMMMMMMMDMMMMUMDMDMMMMMMMMMMMMMMMDMMDMUMMMMMU'
p293
ssg23
(dp294
g74
S'MDMMMMMMMDMMMMMUDUDMMMMMMMMMMMMMMMUMMDMDMMMMMU'
p295
ssg25
(dp296
g74
S'MDMUUMMMUDUMMMMUMMDMMMMMMMMMMMMMMMDMMDMDMMMMMU'
p297
ssg27
(dp298
g74
S'MDUMMMMMMDMMMMMUDUDMMMMMMMMUMMMMMMUMMDMDMMMMMU'
p299
ssg29
(dp300
g74
S'MUMMMMMUMDUMMMMUDUDMMMMMMMMMMMUMMMDMMDMDMMMMMU'
p301
ssg31
(dp302
g74
S'MDMMMMMMMDMUMMMUDUDMMMMMMMMMMUMMMMUMMDMDMMMMMU'
p303
ssg33
(dp304
g74
S'MUMMMMMMMUMMMMMMDMDMMMMMMMUMMMMMMMDMMDMDMMMMMU'
p305
ssg35
(dp306
g74
S'MUMUMMMMMDMMMMMMUMDMMMMMMMMMMMMMMMDMMDMDMMMMMU'
p307
ssg37
(dp308
g74
S'MDUMMMMMMDMMMMMUDUDMMMMMMMMUMMMMMMUMMDMDMMMMMU'
p309
ssg39
(dp310
g74
S'MDUMMMMMMDMMMMMUDUDMMMMMMMMUMMMMMMUMMDMDMMMMMU'
p311
ssg41
(dp312
g74
S'MDMMMMMMMDMUMMMUDUDMMMMMMMMMMUMMMMUMMDMDMMMMMU'
p313
ssg43
(dp314
g74
S'MDMUUMMMUDUMMMMUDMDMMMMMMMMMMMMMMMDMMDMDMMMMMU'
p315
ssg45
(dp316
g74
S'MUMMMMMMMDMMMMUMDMDMMMMMMMMMMMMMMMDMMDMUMMMMMU'
p317
ssg47
(dp318
g74
S'MDMMMMMMMDMMMMMUDUDMMMMMMMMMMMMMMMUMMDMDMMMMMU'
p319
ssg49
(dp320
g74
S'MDMMMMMMMDMMMMMUDMDMUMMMMMMMMMMMMUUMMDMDMMUMMU'
p321
ssg51
(dp322
g74
S'MDMMMMMMMDMMMMMUDUDMUMUMMMMMMMMUMMUMMDMDMMMMMU'
p323
ssg53
(dp324
g74
S'MUMMMMMUMMUMMMMUDUDMMMMMMMMMMMUMMMDMMDMDMMMMMU'
p325
ssg55
(dp326
g74
S'MUMMMMUMMUMMMMUMDMDMMMMMMMMMMMMMMMDMMDMUMMMMMU'
p327
ssg57
(dp328
g74
S'UDMMMMMMMUMMMUMMDMDMMMMMMMMMMMMMMMDMMDMUMMMMMU'
p329
ssg59
(dp330
g74
S'MMMUUMMMUDUMMMMUDMDMMMMMMMMMUMMMMMDMMDMDMMMMMU'
p331
ssg61
(dp332
g74
S'MUMMMMMUMDUMMMMUDUDMMMMMMMMMMMUMMMDMMDMDMMMMMU'
p333
ssg63
(dp334
g74
S'MDMMMMMMMDMMMMMUDUDMMMMMMMMMMMMMMMUMMDMDMMMMMU'
p335
ssg65
(dp336
g74
S'UDMMMMMMMUMMMUMMDMDMMMMMMMMMMMMMMMDMMDMUMMMMMU'
p337
sssg19
(dp338
g8
g82
sg11
g137
sg13
g192
sg15
g241
sg17
g290
sg21
(dp339
g74
S'MUMMMMMMMUMMMMUDMMMMDMMDMMMMMMMMMMDMMMMUMMMMMU'
p340
ssg23
(dp341
g74
S'MMMMMMMMMMMMMMMDMUMMDMMDMMMMMMMMMMUMMUMMMMMMMD'
p342
ssg25
(dp343
g74
S'MUMUUMMMUUUMMMMDUMMMDMMDMMMMMMMMMMDMMMMUMMMMMM'
p344
ssg27
(dp345
g74
S'MMUMMMMMMMMMMMMDMUMMDMMDMMMUMMMMMMUMMMMMMMMMMD'
p346
ssg29
(dp347
g74
S'MUMMMMMUMMUMMMMDUUMMDMMDMMMMMMUMMMDMMUMUMMMMMD'
p348
ssg31
(dp349
g74
S'MMMMMMMMMMMUMMMDMUMMDMMDMMMMMUMMMMDMMMMMMMMMMD'
p350
ssg33
(dp351
g74
S'MUMMMMMMMUMMMMMDMMMMDMMDMMUMMMMMMMDMMMMUMMMMMD'
p352
ssg35
(dp353
g74
S'MUMUMMMMMUMMMMMDUMMMDMMDMMMMMMMMMMDMMUMMMMMMMM'
p354
ssg37
(dp355
g74
S'MMUMMMMMMMMMMMMDMUMMDMMDMMMUMMMMMMUMMMMMMMMMMD'
p356
ssg39
(dp357
g74
S'MMUMMMMMMMMMMMMDMUMMDMMDMMMUMMMMMMUMMMMMMMMMMD'
p358
ssg41
(dp359
g74
S'MMMMMMMMMMMUMMMDMUMMDMMDMMMMMUMMMMDMMMMMMMMMMD'
p360
ssg43
(dp361
g74
S'MUMUUMMMUUUMMMMDUMMMDMMDMMMMMMMMMMDMMMMUMMMMMM'
p362
ssg45
(dp363
g74
S'MUMMMMMMMUMMMMUDMMMMDMMDMMMMMMMMMMDMMMMUMMMMMU'
p364
ssg47
(dp365
g74
S'MMMMMMMMMMMMMMMUMUMMDMMDMMMMMMMMMMDMMUMMMMMMMD'
p366
ssg49
(dp367
g74
S'MMMMMMMMMMMMMMMDMMMMDMMDMMMMMMMMMUUMMMMMMMUMMM'
p368
ssg51
(dp369
g74
S'MMMMMMMMMMMMMMMDMUMMUMUDMMMMMMMUMMDMMUMMMMMMMD'
p370
ssg53
(dp371
g74
S'MUMMMMMUMUUMMMMDUUMMDMMDMMMMMMUMMMDMMUMMMMMMMM'
p372
ssg55
(dp373
g74
S'MUMMMMUMMUMMMMUDMMMMDMMDMMMMMMMMMMDMMMMUMMMMMD'
p374
ssg57
(dp375
g74
S'UUMMMMMMMUMMMUMDMMMMDMMDMMMMMMMMMMDMMMMUMMMMMD'
p376
ssg59
(dp377
g74
S'MUMUUMMMUUUMMMMDUMMMDMMDMMMMUMMMMMDMMMMUMMMMMD'
p378
ssg61
(dp379
g74
S'MUMMMMMUMMUMMMMDUUMMDMMDMMMMMMUMMMDMMUMMMMMMMM'
p380
ssg63
(dp381
g74
S'MMMMMMMMMMMMMMMUMUMMDMMDMMMMMMMMMMDMMUMMMMMMMD'
p382
ssg65
(dp383
g74
S'UUMMMMMMMUMMMUMDMMMMDMMDMMMMMMMMMMDMMMMUMMMMMM'
p384
sssg21
(dp385
g8
g84
sg11
g139
sg13
g194
sg15
g243
sg17
g292
sg19
g339
sg23
(dp386
g74
S'MDMMMMMMMDMMMMDUMUMMMMMMMMMMMMMMMMUMMUMDMMMMMD'
p387
ssg25
(dp388
g74
S'MDMUUMMMUMUMMMDUUMMMMMMMMMMMMMMMMMMMMMMDMMMMMD'
p389
ssg27
(dp390
g74
S'MDUMMMMMMDMMMMDUMUMMMMMMMMMUMMMMMMUMMMMDMMMMMD'
p391
ssg29
(dp392
g74
S'MUMMMMMUMDUMMMDUUUMMMMMMMMMMMMUMMMMMMUMDMMMMMD'
p393
ssg31
(dp394
g74
S'MDMMMMMMMDMUMMDUMUMMMMMMMMMMMUMMMMUMMMMDMMMMMD'
p395
ssg33
(dp396
g74
S'MUMMMMMMMUMMMMDMMMMMMMMMMMUMMMMMMMMMMMMDMMMMMD'
p397
ssg35
(dp398
g74
S'MUMUMMMMMMMMMMDMUMMMMMMMMMMMMMMMMMMMMUMDMMMMMD'
p399
ssg37
(dp400
g74
S'MDUMMMMMMDMMMMDUMUMMMMMMMMMUMMMMMMUMMMMDMMMMMD'
p401
ssg39
(dp402
g74
S'MDUMMMMMMDMMMMDUMUMMMMMMMMMUMMMMMMUMMMMDMMMMMD'
p403
ssg41
(dp404
g74
S'MDMMMMMMMDMUMMDUMUMMMMMMMMMMMUMMMMUMMMMDMMMMMD'
p405
ssg43
(dp406
g74
S'MDMUUMMMUDUMMMDUUMMMMMMMMMMMMMMMMMMMMMMDMMMMMM'
p407
ssg45
(dp408
g74
S'MUMMMMMMMDMMMMDMMMMMMMMMMMMMMMMMMMMMMMMDMMMMMM'
p409
ssg47
(dp410
g74
S'MDMMMMMMMDMMMMDUMUMMMMMMMMMMMMMMMMUMMUMDMMMMMD'
p411
ssg49
(dp412
g74
S'MDMMMMMMMDMMMMDUMMMMUMMMMMMMMMMMMUUMMMMDMMUMMM'
p413
ssg51
(dp414
g74
S'MDMMMMMMMDMMMMDUMUMMUMUMMMMMMMMUMMUMMUMDMMMMMD'
p415
ssg53
(dp416
g74
S'MUMMMMMUMMUMMMDUUUMMMMMMMMMMMMUMMMMMMUMDMMMMMD'
p417
ssg55
(dp418
g74
S'MUMMMMUMMUMMMMUMMMMMMMMMMMMMMMMMMMMMMMMDMMMMMD'
p419
ssg57
(dp420
g74
S'UDMMMMMMMUMMMUDMMMMMMMMMMMMMMMMMMMMMMMMUMMMMMD'
p421
ssg59
(dp422
g74
S'MDMUUMMMUDUMMMDUUMMMMMMMMMMMUMMMMMMMMMMDMMMMMD'
p423
ssg61
(dp424
g74
S'MUMMMMMUMDUMMMDUUUMMMMMMMMMMMMUMMMMMMUMDMMMMMD'
p425
ssg63
(dp426
g74
S'MDMMMMMMMDMMMMDUMUMMMMMMMMMMMMMMMMUMMUMDMMMMMD'
p427
ssg65
(dp428
g74
S'UDMMMMMMMUMMMUDMMMMMMMMMMMMMMMMMMMMMMMMUMMMMMM'
p429
sssg23
(dp430
g8
g86
sg11
g141
sg13
g196
sg15
g245
sg17
g294
sg19
g341
sg21
g386
sg25
(dp431
g74
S'MUMUUMMMUUUMMMMDUDMMMMMMMMMMMMMMMMDMMDMUMMMMMU'
p432
ssg27
(dp433
g74
S'MMUMMMMMMMMMMMMDMUMMMMMMMMMUMMMMMMDMMDMMMMMMMU'
p434
ssg29
(dp435
g74
S'MUMMMMMUMMUMMMMDUUMMMMMMMMMMMMUMMMDMMDMUMMMMMU'
p436
ssg31
(dp437
g74
S'MMMMMMMMMMMUMMMDMDMMMMMMMMMMMUMMMMDMMDMMMMMMMU'
p438
ssg33
(dp439
g74
S'MUMMMMMMMUMMMMMDMDMMMMMMMMUMMMMMMMDMMDMUMMMMMU'
p440
ssg35
(dp441
g74
S'MUMUMMMMMUMMMMMDUDMMMMMMMMMMMMMMMMDMMUMMMMMMMU'
p442
ssg37
(dp443
g74
S'MMUMMMMMMMMMMMMDMUMMMMMMMMMUMMMMMMDMMDMMMMMMMU'
p444
ssg39
(dp445
g74
S'MMUMMMMMMMMMMMMDMUMMMMMMMMMUMMMMMMDMMDMMMMMMMU'
p446
ssg41
(dp447
g74
S'MMMMMMMMMMMUMMMDMDMMMMMMMMMMMUMMMMDMMDMMMMMMMU'
p448
ssg43
(dp449
g74
S'MUMUUMMMUUUMMMMDUDMMMMMMMMMMMMMMMMDMMDMUMMMMMU'
p450
ssg45
(dp451
g74
S'MUMMMMMMMUMMMMUDMDMMMMMMMMMMMMMMMMDMMDMUMMMMMU'
p452
ssg47
(dp453
g74
S'MMMMMMMMMMMMMMMUMDMMMMMMMMMMMMMMMMDMMDMMMMMMMU'
p454
ssg49
(dp455
g74
S'MMMMMMMMMMMMMMMDMDMMUMMMMMMMMMMMMUUMMDMMMMUMMU'
p456
ssg51
(dp457
g74
S'MMMMMMMMMMMMMMMDMUMMUMUMMMMMMMMUMMDMMUMMMMMMMU'
p458
ssg53
(dp459
g74
S'MUMMMMMUMUUMMMMDUUMMMMMMMMMMMMUMMMDMMDMMMMMMMU'
p460
ssg55
(dp461
g74
S'MUMMMMUMMUMMMMUDMDMMMMMMMMMMMMMMMMDMMDMUMMMMMU'
p462
ssg57
(dp463
g74
S'UUMMMMMMMUMMMUMDMDMMMMMMMMMMMMMMMMDMMDMUMMMMMU'
p464
ssg59
(dp465
g74
S'MUMUUMMMUUUMMMMDUDMMMMMMMMMMUMMMMMDMMDMUMMMMMU'
p466
ssg61
(dp467
g74
S'MUMMMMMUMMUMMMMDUUMMMMMMMMMMMMUMMMDMMDMMMMMMMU'
p468
ssg63
(dp469
g74
S'MMMMMMMMMMMMMMMUMDMMMMMMMMMMMMMMMMDMMDMMMMMMMU'
p470
ssg65
(dp471
g74
S'UUMMMMMMMUMMMUMDMDMMMMMMMMMMMMMMMMDMMDMUMMMMMU'
p472
sssg25
(dp473
g8
g88
sg11
g143
sg13
g198
sg15
g247
sg17
g296
sg19
g343
sg21
g388
sg23
g431
sg27
(dp474
g74
S'MDUDDMMMDDDMMMMUDUMMMMMMMMMUMMMMMMUMMMMDMMMMMD'
p475
ssg29
(dp476
g74
S'MUMDDMMUDDUMMMMUDUMMMMMMMMMMMMUMMMMMMUMDMMMMMD'
p477
ssg31
(dp478
g74
S'MDMDDMMMDDDUMMMDDUMMMMMMMMMMMUMMMMUMMMMDMMMMMD'
p479
ssg33
(dp480
g74
S'MUMDDMMMDUDMMMMDDMMMMMMMMMUMMMMMMMMMMMMDMMMMMD'
p481
ssg35
(dp482
g74
S'MUMDDMMMDMDMMMMDUMMMMMMMMMMMMMMMMMMMMUMDMMMMMM'
p483
ssg37
(dp484
g74
S'MDUDDMMMDDDMMMMUDUMMMMMMMMMUMMMMMMUMMMMDMMMMMD'
p485
ssg39
(dp486
g74
S'MDUDDMMMDDDMMMMUDUMMMMMMMMMUMMMMMMUMMMMDMMMMMD'
p487
ssg41
(dp488
g74
S'MDMDDMMMDDDUMMMDDUMMMMMMMMMMMUMMMMUMMMMDMMMMMD'
p489
ssg43
(dp490
g74
S'MUMDMMMMDDUMMMMDDMMMMMMMMMMMMMMMMMMMMMMUMMMMMU'
p491
ssg45
(dp492
g74
S'MUMDDMMMDMDMMMUDDMMMMMMMMMMMMMMMMMMMMMMUMMMMMU'
p493
ssg47
(dp494
g74
S'MDMDDMMMDDDMMMMUDUMMMMMMMMMMMMMMMMUMMUMDMMMMMD'
p495
ssg49
(dp496
g74
S'MDMDDMMMDDDMMMMUDMMMUMMMMMMMMMMMMUUMMMMDMMUMMU'
p497
ssg51
(dp498
g74
S'MDMDDMMMDDDMMMMUDUMMUMUMMMMMMMMUMMUMMUMDMMMMMD'
p499
ssg53
(dp500
g74
S'MUMDDMMUDMDMMMMUDUMMMMMMMMMMMMUMMMMMMUMDMMMMMM'
p501
ssg55
(dp502
g74
S'MUMDDMUMDUDMMMUDDMMMMMMMMMMMMMMMMMMMMMMUMMMMMM'
p503
ssg57
(dp504
g74
S'UDMDDMMMDUDMMUMDDMMMMMMMMMMMMMMMMMMMMMMUMMMMMM'
p505
ssg59
(dp506
g74
S'MUMDUMMMUDUMMMMDDMMMMMMMMMMMUMMMMMMMMMMDMMMMMD'
p507
ssg61
(dp508
g74
S'MUMDDMMUDDDMMMMUDUMMMMMMMMMMMMUMMMMMMUMDMMMMMM'
p509
ssg63
(dp510
g74
S'MDMDDMMMDDDMMMMUDUMMMMMMMMMMMMMMMMUMMUMDMMMMMD'
p511
ssg65
(dp512
g74
S'UDMDDMMMDUDMMUMDDMMMMMMMMMMMMMMMMMMMMMMUMMMMMU'
p513
sssg27
(dp514
g8
g90
sg11
g145
sg13
g200
sg15
g249
sg17
g298
sg19
g345
sg21
g390
sg23
g433
sg25
g474
sg29
(dp515
g74
S'MUDMMMMUMMUMMMMDUUMMMMMMMMMDMMUMMMDMMUMUMMMMMU'
p516
ssg31
(dp517
g74
S'MMDMMMMMMMMUMMMDMDMMMMMMMMMDMUMMMMDMMMMMMMMMMU'
p518
ssg33
(dp519
g74
S'MUDMMMMMMUMMMMMDMDMMMMMMMMUDMMMMMMDMMMMUMMMMMU'
p520
ssg35
(dp521
g74
S'MUDUMMMMMUMMMMMDUDMMMMMMMMMDMMMMMMDMMUMMMMMMMU'
p522
ssg37
(dp523
g74
S'MMDMMMMMMMMMMMMDMUMMMMMMMMMMMMMMMMUMMMMMMMMMMD'
p524
ssg39
(dp525
g74
S'MMDMMMMMMMMMMMMDMDMMMMMMMMMUMMMMMMUMMMMMMMMMMU'
p526
ssg41
(dp527
g74
S'MMDMMMMMMMMUMMMDMDMMMMMMMMMDMUMMMMDMMMMMMMMMMD'
p528
ssg43
(dp529
g74
S'MUDUUMMMUUUMMMMDUDMMMMMMMMMDMMMMMMDMMMMUMMMMMU'
p530
ssg45
(dp531
g74
S'MUDMMMMMMUMMMMUDMDMMMMMMMMMDMMMMMMDMMMMUMMMMMU'
p532
ssg47
(dp533
g74
S'MMDMMMMMMMMMMMMUMDMMMMMMMMMDMMMMMMDMMUMMMMMMMU'
p534
ssg49
(dp535
g74
S'MMDMMMMMMMMMMMMDMDMMUMMMMMMDMMMMMUUMMMMMMMUMMU'
p536
ssg51
(dp537
g74
S'MMDMMMMMMMMMMMMDMUMMUMUMMMMDMMMUMMDMMUMMMMMMMD'
p538
ssg53
(dp539
g74
S'MUDMMMMUMUUMMMMDUUMMMMMMMMMDMMUMMMDMMUMMMMMMMU'
p540
ssg55
(dp541
g74
S'MUDMMMUMMUMMMMUDMDMMMMMMMMMDMMMMMMDMMMMUMMMMMU'
p542
ssg57
(dp543
g74
S'UUDMMMMMMUMMMUMDMDMMMMMMMMMDMMMMMMDMMMMUMMMMMU'
p544
ssg59
(dp545
g74
S'MUDUUMMMUUUMMMMDUDMMMMMMMMMDUMMMMMDMMMMUMMMMMD'
p546
ssg61
(dp547
g74
S'MUDMMMMUMMUMMMMDUUMMMMMMMMMDMMUMMMDMMUMMMMMMMU'
p548
ssg63
(dp549
g74
S'MMDMMMMMMMMMMMMUMDMMMMMMMMMDMMMMMMDMMUMMMMMMMU'
p550
ssg65
(dp551
g74
S'UUDMMMMMMUMMMUMDMDMMMMMMMMMDMMMMMMDMMMMUMMMMMU'
p552
sssg29
(dp553
g8
g92
sg11
g147
sg13
g202
sg15
g251
sg17
g300
sg19
g347
sg21
g392
sg23
g435
sg25
g476
sg27
g515
sg31
(dp554
g74
S'MDMMMMMDMMDUMMMDDDMMMMMMMMMMMUDMMMUMMDMDMMMMMM'
p555
ssg33
(dp556
g74
S'MUMMMMMDMUDMMMMDDDMMMMMMMMUMMMDMMMMMMDMUMMMMMM'
p557
ssg35
(dp558
g74
S'MUMUMMMDMUDMMMMDUDMMMMMMMMMMMMDMMMMMMUMDMMMMMU'
p559
ssg37
(dp560
g74
S'MDUMMMMDMMDMMMMUDDMMMMMMMMMUMMDMMMUMMDMDMMMMMD'
p561
ssg39
(dp562
g74
S'MDUMMMMDMMDMMMMUDDMMMMMMMMMUMMDMMMUMMDMDMMMMMM'
p563
ssg41
(dp564
g74
S'MDMMMMMDMMDUMMMDDDMMMMMMMMMMMUDMMMUMMDMDMMMMMD'
p565
ssg43
(dp566
g74
S'MDMUUMMDUUUMMMMDUDMMMMMMMMMMMMDMMMMMMDMUMMMMMU'
p567
ssg45
(dp568
g74
S'MDMMMMMDMUDMMMUDDDMMMMMMMMMMMMDMMMMMMDMUMMMMMU'
p569
ssg47
(dp570
g74
S'MDMMMMMDMMDMMMMUDDMMMMMMMMMMMMDMMMUMMUMDMMMMMM'
p571
ssg49
(dp572
g74
S'MDMMMMMDMMDMMMMDDDMMUMMMMMMMMMDMMUUMMDMDMMUMMU'
p573
ssg51
(dp574
g74
S'MDMMMMMDMMDMMMMDDUMMUMUMMMMMMMDUMMUMMUMDMMMMMD'
p575
ssg53
(dp576
g74
S'MUMMMMMUMUDMMMMUDDMMMMMMMMMMMMUMMMMMMMMDMMMMMU'
p577
ssg55
(dp578
g74
S'MDMMMMUDMUDMMMUDDDMMMMMMMMMMMMDMMMMMMDMUMMMMMU'
p579
ssg57
(dp580
g74
S'UDMMMMMDMUDMMUMDDDMMMMMMMMMMMMDMMMMMMDMUMMMMMU'
p581
ssg59
(dp582
g74
S'MDMUUMMDUUUMMMMDUDMMMMMMMMMMUMDMMMMMMDMUMMMMMD'
p583
ssg61
(dp584
g74
S'MUMMMMMUMMDMMMMDUDMMMMMMMMMMMMDMMMMMMUMDMMMMMU'
p585
ssg63
(dp586
g74
S'MDMMMMMDMMDMMMMUDDMMMMMMMMMMMMDMMMUMMUMDMMMMMU'
p587
ssg65
(dp588
g74
S'UDMMMMMDMUDMMUMDDDMMMMMMMMMMMMDMMMMMMDMUMMMMMU'
p589
sssg31
(dp590
g8
g94
sg11
g149
sg13
g204
sg15
g253
sg17
g302
sg19
g349
sg21
g394
sg23
g437
sg25
g478
sg27
g517
sg29
g554
sg33
(dp591
g74
S'MUMMMMMMMUMDMMMDMDMMMMMMMMUMMDMMMMDMMMMUMMMMMD'
p592
ssg35
(dp593
g74
S'MUMUMMMMMUMDMMMDUDMMMMMMMMMMMDMMMMDMMUMMMMMMMU'
p594
ssg37
(dp595
g74
S'MMUMMMMMMMMDMMMUMUMMMMMMMMMUMDMMMMUMMMMMMMMMMD'
p596
ssg39
(dp597
g74
S'MMUMMMMMMMMDMMMUMUMMMMMMMMMUMDMMMMUMMMMMMMMMMM'
p598
ssg41
(dp599
g74
S'MMMMMMMMMMMUMMMDMDMMMMMMMMMMMUMMMMDMMMMMMMMMMD'
p600
ssg43
(dp601
g74
S'MUMUUMMMUUUDMMMDUDMMMMMMMMMMMDMMMMDMMMMUMMMMMU'
p602
ssg45
(dp603
g74
S'MUMMMMMMMUMDMMUDMDMMMMMMMMMMMDMMMMDMMMMUMMMMMU'
p604
ssg47
(dp605
g74
S'MMMMMMMMMMMDMMMUMUMMMMMMMMMMMDMMMMUMMUMMMMMMMM'
p606
ssg49
(dp607
g74
S'MMMMMMMMMMMDMMMUMDMMUMMMMMMMMDMMMUUMMMMMMMUMMU'
p608
ssg51
(dp609
g74
S'MMMMMMMMMMMDMMMUMUMMUMUMMMMMMDMUMMDMMUMMMMMMMD'
p610
ssg53
(dp611
g74
S'MUMMMMMUMUUDMMMUUUMMMMMMMMMMMDUMMMDMMUMMMMMMMU'
p612
ssg55
(dp613
g74
S'MUMMMMUMMUMDMMUDMDMMMMMMMMMMMDMMMMDMMMMUMMMMMM'
p614
ssg57
(dp615
g74
S'UUMMMMMMMUMDMUMDMDMMMMMMMMMMMDMMMMDMMMMUMMMMMU'
p616
ssg59
(dp617
g74
S'MUMUUMMMUUUDMMMDUDMMMMMMMMMMUDMMMMDMMMMUMMMMMD'
p618
ssg61
(dp619
g74
S'MUMMMMMUMMUDMMMUUUMMMMMMMMMMMDUMMMDMMUMMMMMMMU'
p620
ssg63
(dp621
g74
S'MMMMMMMMMMMDMMMUMUMMMMMMMMMMMDMMMMUMMUMMMMMMMM'
p622
ssg65
(dp623
g74
S'UUMMMMMMMUMDMUMDMDMMMMMMMMMMMDMMMMDMMMMUMMMMMU'
p624
sssg33
(dp625
g8
g96
sg11
g151
sg13
g206
sg15
g255
sg17
g304
sg19
g351
sg21
g396
sg23
g439
sg25
g480
sg27
g519
sg29
g556
sg31
g591
sg35
(dp626
g74
S'MDMUMMMMMDMMMMMMUMMMMMMMMMDMMMMMMMMMMUMDMMMMMU'
p627
ssg37
(dp628
g74
S'MDUMMMMMMDMMMMMUMUMMMMMMMMDUMMMMMMUMMMMDMMMMMD'
p629
ssg39
(dp630
g74
S'MDUMMMMMMDMMMMMUMUMMMMMMMMDUMMMMMMUMMMMDMMMMMM'
p631
ssg41
(dp632
g74
S'MDMMMMMMMDMUMMMUMUMMMMMMMMDMMUMMMMUMMMMDMMMMMD'
p633
ssg43
(dp634
g74
S'MDMUUMMMUDUMMMMUUMMMMMMMMMDMMMMMMMMMMMMUMMMMMU'
p635
ssg45
(dp636
g74
S'MDMMMMMMMDMMMMUMMMMMMMMMMMDMMMMMMMMMMMMUMMMMMU'
p637
ssg47
(dp638
g74
S'MDMMMMMMMDMMMMMUMUMMMMMMMMDMMMMMMMUMMUMDMMMMMU'
p639
ssg49
(dp640
g74
S'MDMMMMMMMDMMMMMUMMMMUMMMMMDMMMMMMUUMMMMDMMUMMU'
p641
ssg51
(dp642
g74
S'MDMMMMMMMDMMMMMUMUMMUMUMMMDMMMMUMMUMMUMDMMMMMD'
p643
ssg53
(dp644
g74
S'MDMMMMMUMDUMMMMUUUMMMMMMMMDMMMUMMMMMMUMDMMMMMU'
p645
ssg55
(dp646
g74
S'MDMMMMUMMUMMMMUMMMMMMMMMMMDMMMMMMMMMMMMUMMMMMU'
p647
ssg57
(dp648
g74
S'UDMMMMMMMDMMMUMMMMMMMMMMMMDMMMMMMMMMMMMUMMMMMU'
p649
ssg59
(dp650
g74
S'MDMUUMMMUDUMMMMUUMMMMMMMMMDMUMMMMMMMMMMUMMMMMD'
p651
ssg61
(dp652
g74
S'MDMMMMMUMDUMMMMUUUMMMMMMMMDMMMUMMMMMMUMDMMMMMU'
p653
ssg63
(dp654
g74
S'MDMMMMMMMDMMMMMUMUMMMMMMMMDMMMMMMMUMMUMDMMMMMU'
p655
ssg65
(dp656
g74
S'UDMMMMMMMDMMMUMMMMMMMMMMMMDMMMMMMMMMMMMUMMMMMU'
p657
sssg35
(dp658
g8
g98
sg11
g153
sg13
g208
sg15
g257
sg17
g306
sg19
g353
sg21
g398
sg23
g441
sg25
g482
sg27
g521
sg29
g558
sg31
g593
sg33
g626
sg37
(dp659
g74
S'MDUDMMMMMDMMMMMUDUMMMMMMMMMUMMMMMMUMMDMMMMMMMD'
p660
ssg39
(dp661
g74
S'MDUDMMMMMDMMMMMUDUMMMMMMMMMUMMMMMMUMMDMMMMMMMD'
p662
ssg41
(dp663
g74
S'MDMDMMMMMDMUMMMUDUMMMMMMMMMMMUMMMMUMMDMMMMMMMD'
p664
ssg43
(dp665
g74
S'MDMUUMMMUDUMMMMUDMMMMMMMMMMMMMMMMMMMMDMUMMMMMU'
p666
ssg45
(dp667
g74
S'MDMDMMMMMMMMMMUMDMMMMMMMMMMMMMMMMMMMMDMUMMMMMU'
p668
ssg47
(dp669
g74
S'MDMDMMMMMDMMMMMUDUMMMMMMMMMMMMMMMMUMMDMMMMMMMD'
p670
ssg49
(dp671
g74
S'MDMDMMMMMDMMMMMUDMMMUMMMMMMMMMMMMUUMMDMMMMUMMU'
p672
ssg51
(dp673
g74
S'MDMDMMMMMDMMMMMUDUMMUMUMMMMMMMMUMMUMMDMMMMMMMD'
p674
ssg53
(dp675
g74
S'MDMDMMMUMUUMMMMUDUMMMMMMMMMMMMUMMMMMMDMMMMMMMM'
p676
ssg55
(dp677
g74
S'MDMDMMUMMUMMMMUMDMMMMMMMMMMMMMMMMMMMMDMUMMMMMM'
p678
ssg57
(dp679
g74
S'UDMDMMMMMUMMMUMMDMMMMMMMMMMMMMMMMMMMMDMUMMMMMM'
p680
ssg59
(dp681
g74
S'MDMUUMMMUDUMMMMUDMMMMMMMMMMMUMMMMMMMMDMUMMMMMD'
p682
ssg61
(dp683
g74
S'MDMDMMMUMDUMMMMUDUMMMMMMMMMMMMUMMMMMMDMMMMMMMM'
p684
ssg63
(dp685
g74
S'MDMDMMMMMDMMMMMUDUMMMMMMMMMMMMMMMMUMMDMMMMMMMM'
p686
ssg65
(dp687
g74
S'UDMDMMMMMUMMMUMMDMMMMMMMMMMMMMMMMMMMMDMUMMMMMU'
p688
sssg37
(dp689
g8
g100
sg11
g155
sg13
g210
sg15
g259
sg17
g308
sg19
g355
sg21
g400
sg23
g443
sg25
g484
sg27
g523
sg29
g560
sg31
g595
sg33
g628
sg35
g659
sg39
(dp690
g74
S'MMUMMMMMMMMMMMMUMDMMMMMMMMMUMMMMMMUMMMMMMMMMMU'
p691
ssg41
(dp692
g74
S'MMDMMMMMMMMUMMMDMDMMMMMMMMMDMUMMMMDMMMMMMMMMMM'
p693
ssg43
(dp694
g74
S'MUDUUMMMUUUMMMMDUDMMMMMMMMMDMMMMMMDMMMMUMMMMMU'
p695
ssg45
(dp696
g74
S'MUDMMMMMMUMMMMUDMDMMMMMMMMMDMMMMMMDMMMMUMMMMMU'
p697
ssg47
(dp698
g74
S'MMDMMMMMMMMMMMMUMDMMMMMMMMMDMMMMMMDMMUMMMMMMMU'
p699
ssg49
(dp700
g74
S'MMDMMMMMMMMMMMMDMDMMUMMMMMMDMMMMMUUMMMMMMMUMMU'
p701
ssg51
(dp702
g74
S'MMDMMMMMMMMMMMMDMUMMUMUMMMMDMMMUMMDMMUMMMMMMMU'
p703
ssg53
(dp704
g74
S'MUDMMMMUMUUMMMMMUMMMMMMMMMMDMMUMMMDMMUMMMMMMMU'
p705
ssg55
(dp706
g74
S'MUDMMMUMMUMMMMUDMDMMMMMMMMMDMMMMMMDMMMMUMMMMMU'
p707
ssg57
(dp708
g74
S'UUDMMMMMMUMMMUMDMDMMMMMMMMMDMMMMMMDMMMMUMMMMMU'
p709
ssg59
(dp710
g74
S'MUDUUMMMUUUMMMMDUDMMMMMMMMMDUMMMMMDMMMMUMMMMMM'
p711
ssg61
(dp712
g74
S'MUDMMMMUMMUMMMMDUDMMMMMMMMMDMMUMMMDMMUMMMMMMMU'
p713
ssg63
(dp714
g74
S'MMDMMMMMMMMMMMMUMDMMMMMMMMMDMMMMMMDMMUMMMMMMMU'
p715
ssg65
(dp716
g74
S'UUDMMMMMMUMMMUMDMDMMMMMMMMMDMMMMMMDMMMMUMMMMMU'
p717
sssg39
(dp718
g8
g102
sg11
g157
sg13
g212
sg15
g261
sg17
g310
sg19
g357
sg21
g402
sg23
g445
sg25
g486
sg27
g525
sg29
g562
sg31
g597
sg33
g630
sg35
g661
sg37
g690
sg41
(dp719
g74
S'MMDMMMMMMMMUMMMDMDMMMMMMMMMDMUMMMMDMMMMMMMMMMD'
p720
ssg43
(dp721
g74
S'MUDUUMMMUUUMMMMDUDMMMMMMMMMDMMMMMMDMMMMUMMMMMU'
p722
ssg45
(dp723
g74
S'MUDMMMMMMUMMMMUDMDMMMMMMMMMDMMMMMMDMMMMUMMMMMU'
p724
ssg47
(dp725
g74
S'MMDMMMMMMMMMMMMUMDMMMMMMMMMDMMMMMMDMMUMMMMMMMM'
p726
ssg49
(dp727
g74
S'MMDMMMMMMMMMMMMDMDMMUMMMMMMDMMMMMUUMMMMMMMUMMU'
p728
ssg51
(dp729
g74
S'MMDMMMMMMMMMMMMDMUMMUMUMMMMDMMMUMMDMMUMMMMMMMD'
p730
ssg53
(dp731
g74
S'MUDMMMMUMUUMMMMDUUMMMMMMMMMDMMUMMMDMMUMMMMMMMU'
p732
ssg55
(dp733
g74
S'MUDMMMUMMUMMMMUDMDMMMMMMMMMDMMMMMMDMMMMUMMMMMU'
p734
ssg57
(dp735
g74
S'UUDMMMMMMUMMMUMDMDMMMMMMMMMDMMMMMMDMMMMUMMMMMU'
p736
ssg59
(dp737
g74
S'MUDUUMMMUUUMMMMDUDMMMMMMMMMDUMMMMMDMMMMUMMMMMD'
p738
ssg61
(dp739
g74
S'MUDMMMMUMMUMMMMDUUMMMMMMMMMDMMUMMMDMMUMMMMMMMU'
p740
ssg63
(dp741
g74
S'MMDMMMMMMMMMMMMUMDMMMMMMMMMDMMMMMMDMMUMMMMMMMU'
p742
ssg65
(dp743
g74
S'UUDMMMMMMUMMMUMDMDMMMMMMMMMDMMMMMMDMMMMUMMMMMU'
p744
sssg41
(dp745
g8
g104
sg11
g159
sg13
g186
sg15
g263
sg17
g312
sg19
g359
sg21
g404
sg23
g447
sg25
g488
sg27
g527
sg29
g564
sg31
g599
sg33
g632
sg35
g663
sg37
g692
sg39
g719
sg43
(dp746
g74
S'MUMUUMMMUUUDMMMUUDMMMMMMMMMMMDMMMMDMMMMUMMMMMU'
p747
ssg45
(dp748
g74
S'MUMMMMMMMUMDMMUDMDMMMMMMMMMMMDMMMMDMMMMUMMMMMU'
p749
ssg47
(dp750
g74
S'MMMMMMMMMMMDMMMUMUMMMMMMMMMMMDMMMMUMMUMMMMMMMU'
p751
ssg49
(dp752
g74
S'MMMMMMMMMMMDMMMUMDMMUMMMMMMMMDMMMUUMMMMMMMUMMU'
p753
ssg51
(dp754
g74
S'MMMMMMMMMMMDMMMUMUMMUMUMMMMMMDMUMMDMMUMMMMMMMU'
p755
ssg53
(dp756
g74
S'MUMMMMMUMUUDMMMUUUMMMMMMMMMMMDUMMMDMMUMMMMMMMU'
p757
ssg55
(dp758
g74
S'MUMMMMUMMUMDMMUDMDMMMMMMMMMMMDMMMMDMMMMUMMMMMU'
p759
ssg57
(dp760
g74
S'UUMMMMMMMUMDMUMDMDMMMMMMMMMMMDMMMMDMMMMUMMMMMU'
p761
ssg59
(dp762
g74
S'MUMUUMMMUUUDMMMMUDMMMMMMMMMMUDMMMMDMMMMUMMMMMM'
p763
ssg61
(dp764
g74
S'MUMMMMMUMMUDMMMUUUMMMMMMMMMMMDUMMMDMMUMMMMMMMU'
p765
ssg63
(dp766
g74
S'MMMMMMMMMMMDMMMUMUMMMMMMMMMMMDMMMMUMMUMMMMMMMU'
p767
ssg65
(dp768
g74
S'UUMMMMMMMUMDMUMDMDMMMMMMMMMMMDMMMMDMMMMUMMMMMU'
p769
sssg43
(dp770
g8
g106
sg11
g161
sg13
g214
sg15
g265
sg17
g314
sg19
g361
sg21
g406
sg23
g449
sg25
g490
sg27
g529
sg29
g566
sg31
g601
sg33
g634
sg35
g665
sg37
g694
sg39
g721
sg41
g746
sg45
(dp771
g74
S'MUMDDMMMDUDMMMUDDMMMMMMMMMMMMMMMMMMMMMMUMMMMMM'
p772
ssg47
(dp773
g74
S'MDMDDMMMDDDMMMMUDUMMMMMMMMMMMMMMMMUMMUMDMMMMMD'
p774
ssg49
(dp775
g74
S'MDMDDMMMDDDMMMMUDMMMUMMMMMMMMMMMMUUMMMMDMMUMMM'
p776
ssg51
(dp777
g74
S'MDMDDMMMDDDMMMMUDUMMUMUMMMMMMMMUMMUMMUMDMMMMMD'
p778
ssg53
(dp779
g74
S'MUMDDMMUDUDMMMMUDUMMMMMMMMMMMMUMMMMMMUMDMMMMMM'
p780
ssg55
(dp781
g74
S'MUMDDMUMDUDMMMUDDMMMMMMMMMMMMMMMMMMMMMMUMMMMMD'
p782
ssg57
(dp783
g74
S'UDMDDMMMDUDMMUMDDMMMMMMMMMMMMMMMMMMMMMMUMMMMMD'
p784
ssg59
(dp785
g74
S'MUMUUMMMUUUMMMMDDMMMMMMMMMMMUMMMMMMMMMMDMMMMMD'
p786
ssg61
(dp787
g74
S'MUMDDMMUDDDMMMMUDUMMMMMMMMMMMMUMMMMMMUMDMMMMMM'
p788
ssg63
(dp789
g74
S'MDMDDMMMDDDMMMMUDUMMMMMMMMMMMMMMMMUMMUMDMMMMMD'
p790
ssg65
(dp791
g74
S'UDMDDMMMDUDMMUMDDMMMMMMMMMMMMMMMMMMMMMMUMMMMMM'
p792
sssg45
(dp793
g8
g108
sg11
g163
sg13
g216
sg15
g267
sg17
g316
sg19
g363
sg21
g408
sg23
g451
sg25
g492
sg27
g531
sg29
g568
sg31
g603
sg33
g636
sg35
g667
sg37
g696
sg39
g723
sg41
g748
sg43
g771
sg47
(dp794
g74
S'MUMMMMMMMUMMMMUDMDMMMMMMMMMMMMMMMMDMMDMUMMMMMU'
p795
ssg49
(dp796
g74
S'MUMMMMMMMUMMMMUDMMMMDMMMMMMMMMMMMDDMMMMUMMDMMU'
p797
ssg51
(dp798
g74
S'MUMMMMMMMUMMMMUDMDMMDMDMMMMMMMMDMMDMMDMUMMMMMU'
p799
ssg53
(dp800
g74
S'MDMMMMMDMDDMMMUDDDMMMMMMMMMMMMDMMMMMMDMUMMMMMU'
p801
ssg55
(dp802
g74
S'MDMMMMDMMDMMMMDMMMMMMMMMMMMMMMMMMMMMMMMUMMMMMU'
p803
ssg57
(dp804
g74
S'DUMMMMMMMDMMMDUMMMMMMMMMMMMMMMMMMMMMMMMDMMMMMU'
p805
ssg59
(dp806
g74
S'MDMUUMMMUDUMMMDUUMMMMMMMMMMMUMMMMMMMMMMDMMMMMD'
p807
ssg61
(dp808
g74
S'MUMMMMMUMDUMMMDUUUMMMMMMMMMMMMUMMMMMMUMDMMMMMD'
p809
ssg63
(dp810
g74
S'MDMMMMMMMDMMMMDUMUMMMMMMMMMMMMMMMMUMMUMDMMMMMD'
p811
ssg65
(dp812
g74
S'UDMMMMMMMUMMMUDMMMMMMMMMMMMMMMMMMMMMMMMUMMMMMM'
p813
sssg47
(dp814
g8
g110
sg11
g165
sg13
g218
sg15
g269
sg17
g318
sg19
g365
sg21
g410
sg23
g453
sg25
g494
sg27
g533
sg29
g570
sg31
g605
sg33
g638
sg35
g669
sg37
g698
sg39
g725
sg41
g750
sg43
g773
sg45
g794
sg49
(dp815
g74
S'MMMMMMMMMMMMMMMDMDMMUMMMMMMMMMMMMUUMMDMMMMUMMU'
p816
ssg51
(dp817
g74
S'MMMMMMMMMMMMMMMDMUMMUMUMMMMMMMMUMMDMMUMMMMMMMD'
p818
ssg53
(dp819
g74
S'MUMMMMMUMUUMMMMDUUMMMMMMMMMMMMUMMMDMMDMMMMMMMU'
p820
ssg55
(dp821
g74
S'MUMMMMUMMUMMMMUDMDMMMMMMMMMMMMMMMMDMMDMUMMMMMM'
p822
ssg57
(dp823
g74
S'DDMMMMMMMDMMMDMUMUMMMMMMMMMMMMMMMMUMMUMDMMMMMD'
p824
ssg59
(dp825
g74
S'MUMUUMMMUUUMMMMDUDMMMMMMMMMMUMMMMMDMMDMUMMMMMD'
p826
ssg61
(dp827
g74
S'MUMMMMMUMMUMMMMDUUMMMMMMMMMMMMUMMMDMMDMMMMMMMU'
p828
ssg63
(dp829
g74
S'MMMMMMMMMMMMMMMDMDMMMMMMMMMMMMMMMMUMMUMMMMMMMM'
p830
ssg65
(dp831
g74
S'UUMMMMMMMUMMMUMDMDMMMMMMMMMMMMMMMMDMMDMUMMMMMU'
p832
sssg49
(dp833
g8
g112
sg11
g167
sg13
g220
sg15
g271
sg17
g320
sg19
g367
sg21
g412
sg23
g455
sg25
g496
sg27
g535
sg29
g572
sg31
g607
sg33
g640
sg35
g671
sg37
g700
sg39
g727
sg41
g752
sg43
g775
sg45
g796
sg47
g815
sg51
(dp834
g74
S'MMMMMMMMMMMMMMMDMUMMUMUMMMMMMMMUMDDMMUMMMMDMMD'
p835
ssg53
(dp836
g74
S'MUMMMMMUMUUMMMMUUUMMDMMMMMMMMMUMMDDMMUMMMMDMMM'
p837
ssg55
(dp838
g74
S'MUMMMMUMMUMMMMUDMMMMDMMMMMMMMMMMMDDMMMMUMMDMMD'
p839
ssg57
(dp840
g74
S'DDMMMMMMMDMMMDMUMMMMUMMMMMMMMMMMMUUMMMMDMMUMMU'
p841
ssg59
(dp842
g74
S'MUMUUMMMUUUMMMMDUMMMDMMMMMMMUMMMMDDMMMMUMMDMMD'
p843
ssg61
(dp844
g74
S'MUMMMMMUMMUMMMMMUUMMDMMMMMMMMMUMMDDMMUMMMMDMMM'
p845
ssg63
(dp846
g74
S'MMMMMMMMMMMMMMMUMUMMDMMMMMMMMMMMMDDMMUMMMMDMMD'
p847
ssg65
(dp848
g74
S'UUMMMMMMMUMMMUMDMMMMDMMMMMMMMMMMMDDMMMMUMMDMMM'
p849
sssg51
(dp850
g8
g114
sg11
g169
sg13
g222
sg15
g273
sg17
g322
sg19
g369
sg21
g414
sg23
g457
sg25
g498
sg27
g537
sg29
g574
sg31
g609
sg33
g642
sg35
g673
sg37
g702
sg39
g729
sg41
g754
sg43
g777
sg45
g798
sg47
g817
sg49
g834
sg53
(dp851
g74
S'MUMMMMMUMUUMMMMUUDMMDMDMMMMMMMUDMMDMMDMMMMMMMU'
p852
ssg55
(dp853
g74
S'MUMMMMUMMUMMMMUDMDMMDMDMMMMMMMMDMMDMMDMUMMMMMU'
p854
ssg57
(dp855
g74
S'DDMMMMMMMDMMMDMUMUMMUMUMMMMMMMMUMMUMMUMDMMMMMD'
p856
ssg59
(dp857
g74
S'MUMUUMMMUUUMMMMDUDMMDMDMMMMMUMMDMMDMMDMUMMMMMD'
p858
ssg61
(dp859
g74
S'MUMMMMMUMMUMMMMUUDMMDMDMMMMMMMUDMMDMMDMMMMMMMU'
p860
ssg63
(dp861
g74
S'MMMMMMMMMMMMMMMUMDMMDMDMMMMMMMMDMMUMMDMMMMMMMU'
p862
ssg65
(dp863
g74
S'UUMMMMMMMUMMMUMDMDMMDMDMMMMMMMMDMMDMMDMUMMMMMU'
p864
sssg53
(dp865
g8
g116
sg11
g171
sg13
g224
sg15
g275
sg17
g324
sg19
g371
sg21
g416
sg23
g459
sg25
g500
sg27
g539
sg29
g576
sg31
g611
sg33
g644
sg35
g675
sg37
g704
sg39
g731
sg41
g756
sg43
g779
sg45
g800
sg47
g819
sg49
g836
sg51
g851
sg63
(dp866
g74
S'MDMMMMMDMDDMMMMUDDMMMMMMMMMMMMDMMMUMMUMMMMMMMD'
p867
ssg55
(dp868
g74
S'MDMMMMUDMUDMMMUDDDMMMMMMMMMMMMDMMMMMMDMUMMMMMD'
p869
ssg57
(dp870
g74
S'DUMMMMMUMDUMMDMUUUMMMMMMMMMMMMUMMMMMMUMDMMMMMM'
p871
ssg59
(dp872
g74
S'MDMUUMMDUDUMMMMDUDMMMMMMMMMMUMDMMMMMMDMUMMMMMD'
p873
ssg61
(dp874
g74
S'MUMMMMMDMDUMMMMDUDMMMMMMMMMMMMDMMMMMMUMMMMMMMM'
p875
ssg65
(dp876
g74
S'UDMMMMMDMUDMMUMDDDMMMMMMMMMMMMDMMMMMMDMUMMMMMU'
p877
sssg55
(dp878
g8
g118
sg11
g173
sg13
g226
sg15
g277
sg17
g326
sg19
g373
sg21
g418
sg23
g461
sg25
g502
sg27
g541
sg29
g578
sg31
g613
sg33
g646
sg35
g677
sg37
g706
sg39
g733
sg41
g758
sg43
g781
sg45
g802
sg47
g821
sg49
g838
sg51
g853
sg53
g868
sg57
(dp879
g74
S'DUMMMMUMMUMMMDUMMMMMMMMMMMMMMMMMMMMMMMMDMMMMMM'
p880
ssg59
(dp881
g74
S'MDMUUMDMUDUMMMDUUMMMMMMMMMMMUMMMMMMMMMMDMMMMMD'
p882
ssg61
(dp883
g74
S'MUMMMMDUMDUMMMDUUUMMMMMMMMMMMMUMMMMMMUMDMMMMMU'
p884
ssg63
(dp885
g74
S'MDMMMMDMMDMMMMDUMUMMMMMMMMMMMMMMMMUMMUMDMMMMMM'
p886
ssg65
(dp887
g74
S'UDMMMMDMMDMMMUDMMMMMMMMMMMMMMMMMMMMMMMMUMMMMMU'
p888
sssg57
(dp889
g8
g120
sg11
g175
sg13
g228
sg15
g279
sg17
g328
sg19
g375
sg21
g420
sg23
g463
sg25
g504
sg27
g543
sg29
g580
sg31
g615
sg33
g648
sg35
g679
sg37
g708
sg39
g735
sg41
g760
sg43
g783
sg47
g823
sg49
g840
sg51
g855
sg53
g870
sg55
g879
sg45
g804
sg59
(dp890
g74
S'DUMUUMMMUDUMMDMUUMMMMMMMMMMMUMMMMMMMMMMDMMMMMD'
p891
ssg61
(dp892
g74
S'DUMMMMMUMDUMMDMUUUMMMMMMMMMMMMUMMMMMMUMDMMMMMM'
p893
ssg63
(dp894
g74
S'DDMMMMMMMDMMMDMUMUMMMMMMMMMMMMMMMMUMMUMDMMMMMM'
p895
ssg65
(dp896
g74
S'DMMMMMMMMUMMMMMMMMMMMMMMMMMMMMMMMMMMMMMDMMMMMU'
p897
sssg59
(dp898
g8
g122
sg11
g177
sg13
g230
sg15
g281
sg17
g330
sg19
g377
sg21
g422
sg23
g465
sg25
g506
sg27
g545
sg29
g582
sg31
g617
sg33
g650
sg35
g681
sg37
g710
sg39
g737
sg41
g762
sg43
g785
sg45
g806
sg47
g825
sg49
g842
sg51
g857
sg53
g872
sg55
g881
sg57
g890
sg61
(dp899
g74
S'MUMDDMMUDDDMMMMUDUMMMMMMMMMMDMUMMMMMMUMDMMMMMU'
p900
ssg63
(dp901
g74
S'MDMDDMMMDDDMMMMUDUMMMMMMMMMMDMMMMMUMMUMDMMMMMU'
p902
ssg65
(dp903
g74
S'UDMDDMMMDUDMMUMDDMMMMMMMMMMMDMMMMMMMMMMUMMMMMU'
p904
sssg61
(dp905
g8
g124
sg11
g179
sg13
g232
sg15
g283
sg17
g332
sg19
g379
sg21
g424
sg23
g467
sg25
g508
sg27
g547
sg29
g584
sg31
g619
sg33
g652
sg35
g683
sg37
g712
sg39
g739
sg41
g764
sg43
g787
sg45
g808
sg47
g827
sg49
g844
sg51
g859
sg53
g874
sg55
g883
sg57
g892
sg59
g899
sg63
(dp906
g74
S'MUMMMMMUMMUMMMMDUUMMMMMMMMMMMMUMMMDMMDMMMMMMMU'
p907
ssg65
(dp908
g74
S'DUMMMMMUMDUMMDMUUUMMMMMMMMMMMMUMMMMMMUMDMMMMMD'
p909
sssg63
(dp910
g8
g126
sg11
g181
sg13
g234
sg15
g285
sg17
g334
sg19
g381
sg21
g426
sg23
g469
sg25
g510
sg27
g549
sg29
g586
sg31
g621
sg33
g654
sg35
g685
sg37
g714
sg39
g741
sg41
g766
sg43
g789
sg45
g810
sg47
g829
sg49
g846
sg51
g861
sg53
g866
sg55
g885
sg57
g894
sg59
g901
sg61
g906
sg65
(dp911
g74
S'DDMMMMMMMDMMMDMUMUMMMMMMMMMMMMMMMMUMMUMDMMMMMD'
p912
sssg65
(dp913
g8
g128
sg11
g183
sg13
g236
sg15
g287
sg17
g336
sg19
g383
sg21
g428
sg23
g471
sg25
g512
sg27
g551
sg29
g588
sg31
g623
sg33
g656
sg35
g687
sg37
g716
sg39
g743
sg41
g768
sg43
g791
sg45
g812
sg47
g831
sg49
g848
sg51
g863
sg53
g876
sg55
g887
sg57
g896
sg59
g903
sg63
g911
sg61
g908
sssS'adj'
p914
g71
sb.