(dp0
S'assemblage-781-776'
p1
(lp2
I0
aI0
aI0
aI0
aI0
aI0
aI0
aI0
aI0
aI0
aI0
acnumpy.core.multiarray
scalar
p3
(cnumpy
dtype
p4
(S'f8'
p5
I0
I1
tp6
Rp7
(I3
S'<'
p8
NNNI-1
I-1
I0
tp9
bS'\xbc\xe7\x08\xa2\xab\xc8\x88?'
p10
tp11
Rp12
aI0
aI0
aI0
ag3
(g7
S'\xb3i\xbb\xbf\x99\xf5\xcd?'
p13
tp14
Rp15
aI0
aI0
aI0
aI0
ag3
(g7
S'\x01\xf8\xd3\xae\xc1\xf5\x87?'
p16
tp17
Rp18
aI0
aI0
ag3
(g7
S'\x17\xc8~m\xa5\x9e\x93?'
p19
tp20
Rp21
ag3
(g7
S'c\xe0\x19\xc8\xce\xc4\xa3?'
p22
tp23
Rp24
aI0
aI0
aI0
aI0
ag3
(g7
S'Y\xd2\x16\xe6m\xe6\xc7?'
p25
tp26
Rp27
aI0
aI0
aI0
ag3
(g7
S'\xb6\x9a\xa7J\x19K\x9a?'
p28
tp29
Rp30
ag3
(g7
S'\x8a\xf2\xc8w\x9d\x83\xd8?'
p31
tp32
Rp33
aI0
aI0
aI0
aI0
aI0
aI0
aI0
ag3
(g7
S'\xc2\x1b\x02\x8e\xe6X\xa5?'
p34
tp35
Rp36
aI0
aI0
ag3
(g7
S'\xf8\xfeY\x03&\xd7\x9a?'
p37
tp38
Rp39
asS'assemblage-489-915'
p40
(lp41
g3
(g7
S'z\xbe\xf3(\xff-\x91?'
p42
tp43
Rp44
ag3
(g7
S'\x8f\x14\xbb \xdf\x8a\xc5?'
p45
tp46
Rp47
aI0
aI0
aI0
aI0
ag3
(g7
S'\xf2sW\xc7\x1f\xf9\xa2?'
p48
tp49
Rp50
aI0
aI0
ag3
(g7
S'B\xb9n0W\xf2\xc4?'
p51
tp52
Rp53
aI0
aI0
aI0
aI0
ag3
(g7
S'F\xaf\xff\xec\x0e\xd1\xa1?'
p54
tp55
Rp56
aI0
aI0
aI0
aI0
aI0
aI0
aI0
aI0
aI0
aI0
aI0
ag3
(g7
S'|\xa0\x82\x17?\x07\xab?'
p57
tp58
Rp59
aI0
aI0
aI0
aI0
aI0
aI0
aI0
aI0
aI0
aI0
aI0
aI0
ag3
(g7
S'b\xa5\x80Y\x8e?\xdf?'
p60
tp61
Rp62
aI0
aI0
aI0
aI0
aI0
ag3
(g7
S'Y\x9a\n\x126\xc8\x94?'
p63
tp64
Rp65
asS'assemblage-120-520'
p66
(lp67
I0
ag3
(g7
S'\x95\x98\x10\xf3\n\xe6\xc2?'
p68
tp69
Rp70
aI0
aI0
aI0
aI0
aI0
aI0
aI0
ag3
(g7
S'\r\xa2+\xbc\xd2M\xa0?'
p71
tp72
Rp73
ag3
(g7
S'\xd1%\xa7<\xea\xd2\x86?'
p74
tp75
Rp76
aI0
aI0
aI0
aI0
aI0
ag3
(g7
S'\xc1@\x94\x8a\x81\x89\xaa?'
p77
tp78
Rp79
aI0
aI0
aI0
aI0
ag3
(g7
S'j~s\xe2,4\x8b?'
p80
tp81
Rp82
aI0
aI0
aI0
aI0
aI0
aI0
aI0
aI0
aI0
aI0
aI0
aI0
aI0
aI0
ag3
(g7
S'\xb2\xb9Qfm\xc5\x90?'
p83
tp84
Rp85
aI0
aI0
ag3
(g7
S'\xc0$\x16\r\x84`\xe6?'
p86
tp87
Rp88
aI0
aI0
aI0
aI0
aI0
ag3
(g7
S'@\xda\xc9@8U\x8c?'
p89
tp90
Rp91
asS'assemblage-210-589'
p92
(lp93
I0
ag3
(g7
S'\x89mN+\xf2k\xa0?'
p94
tp95
Rp96
aI0
aI0
aI0
aI0
aI0
aI0
aI0
ag3
(g7
S"'\xa5I\x86\xb7R\x8e?"
p97
tp98
Rp99
aI0
aI0
aI0
aI0
aI0
aI0
ag3
(g7
S'\x195\xea`\xff\x12\xa5?'
p100
tp101
Rp102
aI0
ag3
(g7
S'\xee\x8aes\x8dm\x97?'
p103
tp104
Rp105
aI0
aI0
aI0
aI0
aI0
aI0
aI0
aI0
aI0
aI0
aI0
aI0
aI0
aI0
aI0
ag3
(g7
S',\xaf\\\x94\x99[\x8b?'
p106
tp107
Rp108
aI0
aI0
ag3
(g7
S'\x0e`u\xe7\xc2#\xe8?'
p109
tp110
Rp111
aI0
ag3
(g7
S'\xff\x9b`\xe24\x03\xb7?'
p112
tp113
Rp114
aI0
aI0
aI0
aI0
aI0
ag3
(g7
S'*^\xef\x01\x03\xfa\x90?'
p115
tp116
Rp117
asS'assemblage-153-925'
p118
(lp119
I0
ag3
(g7
S'\x8e\n\x94_\x8e\xe6\xa8?'
p120
tp121
Rp122
aI0
aI0
aI0
aI0
aI0
aI0
aI0
ag3
(g7
S'\xa5O\xc0Cc1\x93?'
p123
tp124
Rp125
aI0
aI0
aI0
aI0
aI0
aI0
ag3
(g7
S'\x96\x94\xc7\x89\xeb\xee\xaa?'
p126
tp127
Rp128
aI0
ag3
(g7
S'8\x07\xfd%\xd9x\x93?'
p129
tp130
Rp131
aI0
aI0
aI0
aI0
aI0
aI0
aI0
aI0
aI0
aI0
aI0
aI0
aI0
aI0
aI0
ag3
(g7
S'?\xc1~&\xa5\xf9\x85?'
p132
tp133
Rp134
aI0
aI0
ag3
(g7
S'X#K\x17J&\xe7?'
p135
tp136
Rp137
aI0
ag3
(g7
S'\xe2\x8fj\x0098\xbb?'
p138
tp139
Rp140
aI0
aI0
aI0
aI0
aI0
ag3
(g7
S'V\xec\xfa\xd5\x04\x08y?'
p141
tp142
Rp143
asS'assemblage-382-196'
p144
(lp145
I0
aI0
aI0
aI0
aI0
aI0
aI0
aI0
aI0
aI0
aI0
aI0
aI0
aI0
aI0
ag3
(g7
S'\xd1\xab\xee_\xad%\xda?'
p146
tp147
Rp148
aI0
aI0
aI0
aI0
ag3
(g7
S"\x07\x91OeP'\xa0?"
p149
tp150
Rp151
aI0
aI0
ag3
(g7
S'\x11N\x05\x9bH\xcb\xba?'
p152
tp153
Rp154
aI0
aI0
aI0
aI0
aI0
aI0
aI0
aI0
aI0
aI0
ag3
(g7
S'\x9ab\xd6F\x14\xfd\xd9?'
p155
tp156
Rp157
aI0
aI0
aI0
aI0
aI0
aI0
aI0
aI0
aI0
aI0
ag3
(g7
S'\xee\xb1w\x1fZU\xa1?'
p158
tp159
Rp160
asS'assemblage-697-453'
p161
(lp162
I0
ag3
(g7
S'\xfc\xba\xd7:pe\xb0?'
p163
tp164
Rp165
aI0
aI0
aI0
aI0
aI0
aI0
aI0
ag3
(g7
S'\xc9\xe1\x95Y\x0e\x9c\x8e?'
p166
tp167
Rp168
aI0
aI0
aI0
aI0
ag3
(g7
S'\x05\x17M\xd9(\xa5\xb4?'
p169
tp170
Rp171
aI0
aI0
aI0
aI0
aI0
aI0
aI0
aI0
aI0
aI0
aI0
aI0
aI0
aI0
aI0
aI0
aI0
aI0
aI0
aI0
aI0
aI0
aI0
aI0
ag3
(g7
S"t\xc1\xa3'\xb8L\xe9?"
p172
tp173
Rp174
aI0
aI0
aI0
aI0
aI0
ag3
(g7
S'\x9c\xaffLA\x88\xa3?'
p175
tp176
Rp177
asS'assemblage-907-151'
p178
(lp179
I0
aI0
aI0
aI0
aI0
aI0
aI0
aI0
aI0
aI0
aI0
aI0
aI0
aI0
aI0
ag3
(g7
S'\xfa\xd8y\xbf\xb4\xf2\xd4?'
p180
tp181
Rp182
aI0
ag3
(g7
S'Q\xd6\xbb[;\x9e\xa0?'
p183
tp184
Rp185
aI0
aI0
aI0
aI0
aI0
aI0
aI0
aI0
aI0
aI0
aI0
aI0
aI0
aI0
aI0
aI0
ag3
(g7
S'{\xe5j\xae\xb2)\xe1?'
p186
tp187
Rp188
aI0
aI0
ag3
(g7
S'P<P\x81\xfd\x11\xb5?'
p189
tp190
Rp191
aI0
aI0
aI0
aI0
aI0
aI0
aI0
ag3
(g7
S'\xf1\xd4cE7\x7f\x7f?'
p192
tp193
Rp194
asS'assemblage-601-539'
p195
(lp196
I0
ag3
(g7
S'\xdd\x11)f\x16\xe4\xa0?'
p197
tp198
Rp199
aI0
ag3
(g7
S'\x12Oq\x0c@\x8a\xc5?'
p200
tp201
Rp202
ag3
(g7
S'\xc3\xe7\x10_\xa5!\xd6?'
p203
tp204
Rp205
aI0
aI0
aI0
ag3
(g7
S'\xa8\xab\xbb\xdf\xe4\x06\x83?'
p206
tp207
Rp208
ag3
(g7
S'\xde\n~\xb4\xabf\x8e?'
p209
tp210
Rp211
ag3
(g7
S'\x1f{H\x00f\xe3\xc9?'
p212
tp213
Rp214
aI0
aI0
aI0
aI0
ag3
(g7
S"\xd0\xf2N\xdb'B\xb0?"
p215
tp216
Rp217
ag3
(g7
S'O\xd8\xfa\x99\xc5\xd2\xac?'
p218
tp219
Rp220
aI0
aI0
aI0
aI0
aI0
aI0
aI0
aI0
aI0
aI0
aI0
aI0
aI0
aI0
aI0
aI0
aI0
aI0
aI0
aI0
aI0
aI0
ag3
(g7
S'\xd7I\x02\xe5\xec\xb1\xaa?'
p221
tp222
Rp223
aI0
aI0
aI0
aI0
aI0
ag3
(g7
S'?\xae\xbd\x92\xc4d\xa0?'
p224
tp225
Rp226
asS'assemblage-907-165'
p227
(lp228
I0
aI0
ag3
(g7
S'\xc5\xf8o\xc0\xc2\x85\x99?'
p229
tp230
Rp231
aI0
aI0
aI0
aI0
aI0
aI0
aI0
aI0
aI0
aI0
aI0
aI0
ag3
(g7
S'<6N^\xe2b\xc6?'
p232
tp233
Rp234
aI0
ag3
(g7
S'\xd5W)K\x8c?\xd1?'
p235
tp236
Rp237
aI0
aI0
aI0
aI0
aI0
aI0
aI0
aI0
aI0
ag3
(g7
S'\xdc\xfe\x83\xbaXA\xb0?'
p238
tp239
Rp240
aI0
aI0
aI0
aI0
aI0
aI0
ag3
(g7
S'\xc2\xae\xd8\xf4\x88\x8f\xdb?'
p241
tp242
Rp243
aI0
aI0
aI0
aI0
aI0
aI0
aI0
aI0
aI0
aI0
ag3
(g7
S'\x88\xf6\xe6\xa3?\xec\x92?'
p244
tp245
Rp246
asS'assemblage-151-925'
p247
(lp248
I0
ag3
(g7
S'3\x85\xe3G\xaf\xd5\xcb?'
p249
tp250
Rp251
aI0
aI0
aI0
aI0
aI0
ag3
(g7
S'\x0c\xbcs\x9f\xfa\xd5\x9e?'
p252
tp253
Rp254
aI0
aI0
ag3
(g7
S'\x05\xe4\xf8N\x91\xdd\xca?'
p255
tp256
Rp257
aI0
aI0
aI0
aI0
ag3
(g7
S'\xc8\x03\xea\x10l\xd2\xbb?'
p258
tp259
Rp260
ag3
(g7
S'\xccC\xb4\xab~+\x8a?'
p261
tp262
Rp263
ag3
(g7
S'.\xb4\x8e\x9e\xd1*\xd6?'
p264
tp265
Rp266
aI0
aI0
aI0
aI0
aI0
aI0
aI0
aI0
aI0
aI0
aI0
aI0
ag3
(g7
S'\xcf\xdfX\x18eg\x8d?'
p267
tp268
Rp269
aI0
aI0
aI0
aI0
aI0
aI0
ag3
(g7
S'\x1d\xf2p\xe7d\x0e\x83?'
p270
tp271
Rp272
aI0
ag3
(g7
S'a\xf4\xc9\xcf\x11)v?'
p273
tp274
Rp275
aI0
aI0
aI0
aI0
aI0
ag3
(g7
S'\xa11bCc\xee\x98?'
p276
tp277
Rp278
asS'assemblage-385-184'
p279
(lp280
I0
aI0
aI0
aI0
aI0
aI0
aI0
aI0
aI0
aI0
aI0
ag3
(g7
S'.Tx3#,\xa3?'
p281
tp282
Rp283
aI0
aI0
aI0
ag3
(g7
S'\x05\x1d\x97)\xd3\xb5\xaa?'
p284
tp285
Rp286
aI0
ag3
(g7
S'\x00\xeb\xbb\xac;\xd9\x8a?'
p287
tp288
Rp289
aI0
aI0
aI0
aI0
aI0
aI0
aI0
aI0
aI0
aI0
aI0
ag3
(g7
S'w\xdb\xbd\xe6\xb2/\xe8?'
p290
tp291
Rp292
aI0
aI0
aI0
aI0
ag3
(g7
S'Y\xb19\xd4\xdc\xe9\xb9?'
p293
tp294
Rp295
aI0
aI0
aI0
aI0
aI0
aI0
aI0
aI0
aI0
aI0
ag3
(g7
S'K\xc7\x83\xc2\xe5\x8f\x9b?'
p296
tp297
Rp298
asS'assemblage-498-925'
p299
(lp300
I0
ag3
(g7
S'\xff\xb9?\xbd\xfb\xa5\xe0?'
p301
tp302
Rp303
aI0
aI0
aI0
aI0
aI0
aI0
aI0
ag3
(g7
S'Ghi\x84h\xd9\xcd?'
p304
tp305
Rp306
aI0
aI0
aI0
aI0
aI0
aI0
aI0
aI0
aI0
aI0
aI0
aI0
aI0
aI0
aI0
aI0
ag3
(g7
S'bp<\x9d\xc5\x8c\xc5?'
p307
tp308
Rp309
aI0
aI0
aI0
aI0
aI0
aI0
aI0
aI0
aI0
aI0
aI0
aI0
ag3
(g7
S'\xc2#G\x95\x9a\xe6\xa4?'
p310
tp311
Rp312
aI0
aI0
aI0
aI0
aI0
ag3
(g7
S'\xe7\x8f\xbd\xdfY\xe4\x97?'
p313
tp314
Rp315
asS'assemblage-601-535'
p316
(lp317
I0
ag3
(g7
S'\xe9K\xc6\xcd\x19\x9b\xd2?'
p318
tp319
Rp320
aI0
ag3
(g7
S'YS\xd5\xef[\xc1\x8d?'
p321
tp322
Rp323
aI0
aI0
aI0
aI0
aI0
ag3
(g7
S'vX647\xc2\x8b?'
p324
tp325
Rp326
aI0
aI0
aI0
aI0
aI0
aI0
ag3
(g7
S'\x1e=\xca( H\xb5?'
p327
tp328
Rp329
aI0
aI0
aI0
aI0
aI0
aI0
aI0
aI0
aI0
aI0
aI0
aI0
aI0
aI0
aI0
aI0
aI0
aI0
aI0
aI0
ag3
(g7
S'\xb7\x06\xb0kf\xaf\xe1?'
p330
tp331
Rp332
aI0
aI0
aI0
aI0
aI0
aI0
aI0
ag3
(g7
S"\xa4\xc7\x01v'q\x9f?"
p333
tp334
Rp335
asS'assemblage-781-185'
p336
(lp337
I0
aI0
ag3
(g7
S'\xa5b\xeb,7\xf1~?'
p338
tp339
Rp340
aI0
aI0
aI0
aI0
aI0
aI0
aI0
aI0
aI0
aI0
aI0
aI0
ag3
(g7
S'C+\x03\x16\x0f\x1a\xbf?'
p341
tp342
Rp343
aI0
ag3
(g7
S'\x9d\xd72\xd3mv\xd5?'
p344
tp345
Rp346
aI0
aI0
aI0
aI0
aI0
aI0
aI0
aI0
aI0
ag3
(g7
S'p\xd2\xb4\xc8\x17L\xb1?'
p347
tp348
Rp349
aI0
aI0
aI0
aI0
aI0
aI0
ag3
(g7
S'#i\x82\n\xa7>\xdc?'
p350
tp351
Rp352
aI0
aI0
aI0
aI0
aI0
aI0
aI0
aI0
aI0
aI0
ag3
(g7
S'#\xce\xc6C\xa9\x84\x87?'
p353
tp354
Rp355
asS'assemblage-569-984'
p356
(lp357
I0
aI0
ag3
(g7
S'\x90>\xb3~\xa6G\x91?'
p358
tp359
Rp360
aI0
aI0
aI0
aI0
aI0
aI0
aI0
aI0
aI0
aI0
aI0
aI0
ag3
(g7
S'\xff\xce\xb6|r\x1c\xc2?'
p361
tp362
Rp363
aI0
ag3
(g7
S'\xe9\xf8\tUuy\xd0?'
p364
tp365
Rp366
aI0
aI0
aI0
aI0
aI0
aI0
aI0
aI0
aI0
ag3
(g7
S'\xeaqe>\xe9\x9e\xb3?'
p367
tp368
Rp369
aI0
aI0
aI0
aI0
aI0
aI0
ag3
(g7
S'`:\xe4p!\xdd\xdd?'
p370
tp371
Rp372
aI0
aI0
aI0
aI0
aI0
aI0
aI0
aI0
aI0
aI0
ag3
(g7
S'!O\x8dN</\x99?'
p373
tp374
Rp375
asS'assemblage-776-769'
p376
(lp377
I0
aI0
aI0
aI0
aI0
aI0
aI0
aI0
aI0
aI0
aI0
ag3
(g7
S'\x8dHC\t\x99\x9b\xa5?'
p378
tp379
Rp380
aI0
aI0
aI0
ag3
(g7
S'\xde!\x17\x17\xa9H\x9e?'
p381
tp382
Rp383
aI0
ag3
(g7
S'\xdc-\x1b\xbf\x0c\xc2|?'
p384
tp385
Rp386
aI0
aI0
aI0
aI0
aI0
aI0
aI0
aI0
aI0
aI0
aI0
ag3
(g7
S'{\xd8\xe5\x16\xa0f\xea?'
p387
tp388
Rp389
aI0
aI0
aI0
aI0
ag3
(g7
S'V\x9d\x01\xd7i\r\xb3?'
p390
tp391
Rp392
aI0
aI0
aI0
aI0
aI0
aI0
aI0
aI0
aI0
aI0
ag3
(g7
S';6\xa4+\x9b\x9e\x87?'
p393
tp394
Rp395
asS'assemblage-606-537'
p396
(lp397
I0
ag3
(g7
S'\xb9]?\xde\xefH\xa3?'
p398
tp399
Rp400
aI0
ag3
(g7
S'l\x9e\t\xd4\xd8\xe9\xc1?'
p401
tp402
Rp403
ag3
(g7
S'\xb9\x81\xe1\x9a\xfd\xab\xd6?'
p404
tp405
Rp406
aI0
aI0
aI0
ag3
(g7
S'F\xf4\x19~9qk?'
p407
tp408
Rp409
ag3
(g7
S'@\xf4\x8d#\xa1vt?'
p410
tp411
Rp412
ag3
(g7
S'0\x9b\x04r\xb5\xf3\xcf?'
p413
tp414
Rp415
aI0
aI0
aI0
aI0
ag3
(g7
S'\xba\xf52\xfb\xe5\xc2\xa2?'
p416
tp417
Rp418
ag3
(g7
S'\xc0\xe2\xd5\x88K\x04\xa9?'
p419
tp420
Rp421
aI0
aI0
aI0
aI0
aI0
aI0
aI0
aI0
aI0
aI0
aI0
aI0
aI0
aI0
aI0
aI0
aI0
aI0
aI0
aI0
aI0
aI0
ag3
(g7
S'}\xad\xf5\xe4\x89>\xb1?'
p422
tp423
Rp424
aI0
aI0
aI0
aI0
aI0
ag3
(g7
S'\xb3b\x1a\xcd\xa2\x89\xa2?'
p425
tp426
Rp427
asS'assemblage-726-448'
p428
(lp429
I0
ag3
(g7
S'\x01\xff\xbd\xa6\xd1\xc0\xbc?'
p430
tp431
Rp432
aI0
aI0
aI0
aI0
aI0
aI0
aI0
ag3
(g7
S'LT-XC\x0c\x8a?'
p433
tp434
Rp435
aI0
aI0
aI0
aI0
ag3
(g7
S'E\xa9\xf4\x1f\x9cY\xb1?'
p436
tp437
Rp438
aI0
aI0
aI0
aI0
aI0
aI0
aI0
aI0
aI0
aI0
aI0
aI0
aI0
aI0
aI0
aI0
aI0
aI0
aI0
aI0
aI0
aI0
aI0
aI0
ag3
(g7
S'\x10\xbe#\xe4\x114\xe8?'
p439
tp440
Rp441
aI0
aI0
aI0
aI0
aI0
ag3
(g7
S'r~c^\xf3-\xa4?'
p442
tp443
Rp444
asS'assemblage-603-636'
p445
(lp446
I0
aI0
aI0
aI0
aI0
aI0
aI0
aI0
aI0
aI0
aI0
aI0
aI0
aI0
aI0
ag3
(g7
S'\xfeC\xe0j\xfb\x9a\xe8?'
p447
tp448
Rp449
aI0
ag3
(g7
S'\xab\x05\xe9b\x95/\x9e?'
p450
tp451
Rp452
aI0
aI0
aI0
aI0
aI0
aI0
aI0
aI0
aI0
aI0
aI0
aI0
aI0
aI0
aI0
aI0
ag3
(g7
S'w{\xde\xf3\xe1\x12\xc0?'
p453
tp454
Rp455
aI0
aI0
ag3
(g7
S'K\xc5\x12\xc6\x8b\xaa\xa3?'
p456
tp457
Rp458
aI0
aI0
aI0
aI0
aI0
aI0
aI0
ag3
(g7
S's\xd1\x9f\x18)\xe4\x9a?'
p459
tp460
Rp461
asS'assemblage-393-178'
p462
(lp463
I0
aI0
aI0
aI0
aI0
aI0
aI0
aI0
aI0
aI0
aI0
aI0
aI0
aI0
aI0
ag3
(g7
S'N\xe3\xce\x95\x0bK\xba?'
p464
tp465
Rp466
aI0
aI0
aI0
aI0
ag3
(g7
S'\xb5\xb7\xfcV\x12\xe2\x94?'
p467
tp468
Rp469
aI0
aI0
aI0
aI0
aI0
aI0
aI0
aI0
aI0
aI0
aI0
aI0
ag3
(g7
S'?\xdaYPK\x9d\xb1?'
p470
tp471
Rp472
ag3
(g7
S'#\xf1B\xa2{\x99\xe3?'
p473
tp474
Rp475
aI0
aI0
aI0
aI0
aI0
aI0
aI0
ag3
(g7
S'\x83n<\xb8\x90n\xc2?'
p476
tp477
Rp478
aI0
aI0
ag3
(g7
S'mk\x8c3L\x86\xa2?'
p479
tp480
Rp481
asS'assemblage-579-642'
p482
(lp483
I0
aI0
aI0
aI0
aI0
aI0
aI0
aI0
aI0
aI0
aI0
aI0
aI0
aI0
aI0
ag3
(g7
S'Z\xfd\x0c\x17} \xb3?'
p484
tp485
Rp486
aI0
ag3
(g7
S'\x0f\xf5\x8ff\xf6\xcd\xe3?'
p487
tp488
Rp489
aI0
aI0
ag3
(g7
S'$\xb7\xa5\xc3P\x16\xb4?'
p490
tp491
Rp492
aI0
ag3
(g7
S'zX\x15\x85\x960\x8a?'
p493
tp494
Rp495
aI0
aI0
aI0
aI0
aI0
aI0
aI0
aI0
ag3
(g7
S'\xa4\xa9Y\xe6\xe3T\x9a?'
p496
tp497
Rp498
aI0
aI0
ag3
(g7
S'\xfb\xc0\x8e\xa3a\xd2\xb1?'
p499
tp500
Rp501
aI0
aI0
ag3
(g7
S'\x80c\x8d\x15Hx\xb6?'
p502
tp503
Rp504
aI0
aI0
aI0
aI0
aI0
aI0
aI0
ag3
(g7
S'\x97gu\xbb*Q\x8d?'
p505
tp506
Rp507
asS'assemblage-599-537'
p508
(lp509
I0
ag3
(g7
S'7k\x03P\xb5R\xcf?'
p510
tp511
Rp512
aI0
aI0
aI0
aI0
aI0
ag3
(g7
S'\x02\x9fK}\x0b\x13\xa7?'
p513
tp514
Rp515
aI0
ag3
(g7
S'~\x02!\xf11m\x91?'
p516
tp517
Rp518
ag3
(g7
S'\x8c\xd9\xc7\xcf\xe4U\xc3?'
p519
tp520
Rp521
aI0
aI0
aI0
aI0
ag3
(g7
S'fB\xa4x\xd2\x0e\xbe?'
p522
tp523
Rp524
ag3
(g7
S'\xecDs\x03\xcf4\x81?'
p525
tp526
Rp527
ag3
(g7
S'YW\x02]\xb6r\xd5?'
p528
tp529
Rp530
aI0
aI0
aI0
aI0
aI0
aI0
aI0
aI0
aI0
aI0
aI0
aI0
ag3
(g7
S'I_\x87v\xb9\x88\x91?'
p531
tp532
Rp533
aI0
aI0
aI0
aI0
aI0
aI0
ag3
(g7
S'2\x98%D\xd8\xe6\x7f?'
p534
tp535
Rp536
aI0
aI0
aI0
aI0
aI0
aI0
aI0
ag3
(g7
S'?o\xd5\xf8\x92F\xa1?'
p537
tp538
Rp539
asS'assemblage-943-508'
p540
(lp541
I0
ag3
(g7
S'kq\x88\x19\x9c\xdf\xbe?'
p542
tp543
Rp544
aI0
aI0
aI0
aI0
ag3
(g7
S'K\x1b\x12\x1e#\xd5\xc0?'
p545
tp546
Rp547
aI0
aI0
ag3
(g7
S'd\xd5m\xc5wR\xdc?'
p548
tp549
Rp550
aI0
aI0
aI0
aI0
ag3
(g7
S'\xd2\xf4\x95MWe\xba?'
p551
tp552
Rp553
aI0
aI0
aI0
aI0
aI0
aI0
aI0
aI0
aI0
aI0
aI0
aI0
aI0
aI0
aI0
aI0
aI0
aI0
aI0
aI0
aI0
aI0
aI0
aI0
ag3
(g7
S'#\xc3\x84\x1e\x7f\xee\xc3?'
p554
tp555
Rp556
aI0
aI0
aI0
aI0
aI0
ag3
(g7
S'\xde\xebC\xe0\xf3c\x9d?'
p557
tp558
Rp559
asS'assemblage-393-273'
p560
(lp561
g3
(g7
S'D\xceq\x1bN+\xb5?'
p562
tp563
Rp564
ag3
(g7
S'\xb2\x88\xde;\xda\xa8\x85?'
p565
tp566
Rp567
aI0
aI0
aI0
aI0
aI0
aI0
aI0
ag3
(g7
S'\x97"A\x9c\xc4\xc0\xa0?'
p568
tp569
Rp570
aI0
aI0
aI0
ag3
(g7
S"\xe2-\x92'#\xa8\x90?"
p571
tp572
Rp573
aI0
aI0
aI0
aI0
aI0
aI0
aI0
aI0
aI0
aI0
aI0
aI0
aI0
aI0
aI0
aI0
aI0
aI0
aI0
aI0
aI0
aI0
aI0
aI0
aI0
ag3
(g7
S'\x1f\xf0\x18\xa3\x99!\xea?'
p574
tp575
Rp576
aI0
aI0
aI0
aI0
aI0
ag3
(g7
S'\xb5\xd0\x8c\x05\xb2c\x9f?'
p577
tp578
Rp579
asS'assemblage-224-589'
p580
(lp581
I0
ag3
(g7
S'\xba\x831"\xce#\xa8?'
p582
tp583
Rp584
aI0
ag3
(g7
S'\x9f\xb5\n\xbb\\\xf4\xc2?'
p585
tp586
Rp587
ag3
(g7
S'\xfdU\xdb\xa8\xf6\xbc\xd8?'
p588
tp589
Rp590
aI0
aI0
aI0
ag3
(g7
S'\x7fnO\x85(\xa7\x87?'
p591
tp592
Rp593
ag3
(g7
S'\xf1u\xfb\x8eoV\x7f?'
p594
tp595
Rp596
ag3
(g7
S'\x8e\x98\xf2\x9b\xe2t\xd0?'
p597
tp598
Rp599
aI0
aI0
aI0
aI0
ag3
(g7
S'M\xa9U`\x01\xda\x9d?'
p600
tp601
Rp602
ag3
(g7
S'>3\x9e\xc8\xce<\x9b?'
p603
tp604
Rp605
aI0
aI0
aI0
aI0
aI0
aI0
aI0
aI0
aI0
aI0
aI0
ag3
(g7
S'\x1c.T\xa4\xab)}?'
p606
tp607
Rp608
aI0
aI0
aI0
aI0
aI0
aI0
aI0
aI0
aI0
aI0
ag3
(g7
S'[\xbb@\xc8r\xfa\xa7?'
p609
tp610
Rp611
aI0
aI0
aI0
aI0
aI0
ag3
(g7
S'\x91k\x00\xe3VE\x86?'
p612
tp613
Rp614
asS'assemblage-159-926'
p615
(lp616
I0
ag3
(g7
S'\xbc\xeeAU\x1f\xce\xd1?'
p617
tp618
Rp619
aI0
aI0
aI0
aI0
aI0
ag3
(g7
S"\x80\x18'\xbf\xef/\xa4?"
p620
tp621
Rp622
aI0
aI0
ag3
(g7
S'\xbc\xcc\xa1\xd3\xcdf\xc6?'
p623
tp624
Rp625
aI0
aI0
aI0
aI0
ag3
(g7
S'v5~\xb6\x0c\x8d\xb9?'
p626
tp627
Rp628
ag3
(g7
S'!\xef\x01\xc7\x8c\x94\x97?'
p629
tp630
Rp631
ag3
(g7
S'&\xf8h>\xa8\xce\xd3?'
p632
tp633
Rp634
aI0
aI0
aI0
aI0
aI0
aI0
aI0
aI0
aI0
aI0
aI0
aI0
ag3
(g7
S'\x8b\xb9\x95\x17\xbf\xf1\x82?'
p635
tp636
Rp637
aI0
aI0
aI0
aI0
aI0
aI0
ag3
(g7
S'\xc61\xb0\xfaL\x85\x89?'
p638
tp639
Rp640
aI0
aI0
aI0
aI0
aI0
aI0
aI0
ag3
(g7
S'\xf4H\xe2\x8d\xa1\x06\xa1?'
p641
tp642
Rp643
asS'assemblage-575-975'
p644
(lp645
I0
aI0
aI0
aI0
aI0
aI0
aI0
aI0
aI0
aI0
aI0
aI0
aI0
aI0
aI0
ag3
(g7
S'\xd9"\xf5!\xcd\xbf\xe7?'
p646
tp647
Rp648
aI0
ag3
(g7
S'\xbe\xad\x9e\n\x86&\x99?'
p649
tp650
Rp651
aI0
aI0
aI0
aI0
aI0
aI0
aI0
aI0
aI0
aI0
aI0
aI0
aI0
aI0
aI0
aI0
ag3
(g7
S'\xff\x16\x10Ggd\xc1?'
p652
tp653
Rp654
aI0
aI0
ag3
(g7
S'\x14#\xfe\x94\x8fu\xad?'
p655
tp656
Rp657
aI0
aI0
aI0
aI0
aI0
aI0
aI0
ag3
(g7
S'`)\xd0)C\xde\x9c?'
p658
tp659
Rp660
asS'assemblage-384-269'
p661
(lp662
g3
(g7
S'\\8\xb2L\x86\x1e\xb1?'
p663
tp664
Rp665
ag3
(g7
S"\xd2\xb3n)'<\x87?"
p666
tp667
Rp668
aI0
aI0
aI0
aI0
aI0
aI0
aI0
ag3
(g7
S'\xa8+\x7f\xef\x8c\xf9\xab?'
p669
tp670
Rp671
aI0
aI0
aI0
ag3
(g7
S'\xafq\x18\xa7\x19\x06\x8f?'
p672
tp673
Rp674
aI0
aI0
aI0
aI0
aI0
aI0
aI0
aI0
aI0
aI0
aI0
aI0
aI0
aI0
aI0
aI0
aI0
aI0
aI0
aI0
aI0
aI0
aI0
aI0
aI0
ag3
(g7
S'\xd5\xad$\x83>\xb3\xe9?'
p675
tp676
Rp677
aI0
aI0
aI0
aI0
aI0
ag3
(g7
S'?\xbd\x1aG\x9b<\xa3?'
p678
tp679
Rp680
as.