(dp0
S'assemblage-781-776'
p1
(lp2
S'assemblage-489-915'
p3
aS'assemblage-120-520'
p4
aS'assemblage-210-589'
p5
aS'assemblage-153-925'
p6
aS'assemblage-382-196'
p7
aS'assemblage-697-453'
p8
aS'assemblage-907-151'
p9
aS'assemblage-601-539'
p10
aS'assemblage-907-165'
p11
aS'assemblage-151-925'
p12
aS'assemblage-385-184'
p13
aS'assemblage-498-925'
p14
aS'assemblage-601-535'
p15
aS'assemblage-781-185'
p16
aS'assemblage-569-984'
p17
aS'assemblage-776-769'
p18
aS'assemblage-606-537'
p19
aS'assemblage-393-273'
p20
aS'assemblage-603-636'
p21
aS'assemblage-393-178'
p22
aS'assemblage-579-642'
p23
aS'assemblage-599-537'
p24
aS'assemblage-943-508'
p25
aS'assemblage-726-448'
p26
aS'assemblage-224-589'
p27
aS'assemblage-384-269'
p28
aS'assemblage-575-975'
p29
aS'assemblage-159-926'
p30
asg3
(lp31
g1
ag4
ag5
ag6
ag7
ag8
ag9
ag10
ag11
ag12
ag13
ag14
ag15
ag16
ag17
ag18
ag19
ag20
ag21
ag22
ag23
ag24
ag25
ag26
ag27
ag28
ag29
ag30
asg4
(lp32
g1
ag3
ag5
ag6
ag7
ag8
ag9
ag10
ag11
ag12
ag13
ag14
ag15
ag16
ag17
ag18
ag19
ag20
ag21
ag22
ag23
ag24
ag25
ag26
ag27
ag28
ag29
ag30
asg5
(lp33
g1
ag3
ag4
ag6
ag7
ag8
ag9
ag10
ag11
ag12
ag13
ag14
ag15
ag16
ag17
ag18
ag19
ag20
ag21
ag22
ag23
ag24
ag25
ag26
ag27
ag28
ag29
ag30
asg6
(lp34
g1
ag3
ag4
ag5
ag7
ag8
ag9
ag10
ag11
ag12
ag13
ag14
ag15
ag16
ag17
ag18
ag19
ag20
ag21
ag22
ag23
ag24
ag25
ag26
ag27
ag28
ag29
ag30
asg7
(lp35
g1
ag3
ag4
ag5
ag6
ag8
ag9
ag10
ag11
ag12
ag13
ag14
ag15
ag16
ag17
ag18
ag19
ag20
ag21
ag22
ag23
ag24
ag25
ag26
ag27
ag28
ag29
ag30
asg8
(lp36
g1
ag3
ag4
ag5
ag6
ag7
ag9
ag10
ag11
ag12
ag13
ag14
ag15
ag16
ag17
ag18
ag19
ag20
ag21
ag22
ag23
ag24
ag25
ag26
ag27
ag28
ag29
ag30
asg9
(lp37
g1
ag3
ag4
ag5
ag6
ag7
ag8
ag10
ag11
ag12
ag13
ag14
ag15
ag16
ag17
ag18
ag19
ag20
ag21
ag22
ag23
ag24
ag25
ag26
ag27
ag28
ag29
ag30
asg10
(lp38
g1
ag3
ag4
ag5
ag6
ag7
ag8
ag9
ag11
ag12
ag13
ag14
ag15
ag16
ag17
ag18
ag19
ag20
ag21
ag22
ag23
ag24
ag25
ag26
ag27
ag28
ag29
ag30
asg11
(lp39
g1
ag3
ag4
ag5
ag6
ag7
ag8
ag9
ag10
ag12
ag13
ag14
ag15
ag16
ag17
ag18
ag19
ag20
ag21
ag22
ag23
ag24
ag25
ag26
ag27
ag28
ag29
ag30
asg12
(lp40
g1
ag3
ag4
ag5
ag6
ag7
ag8
ag9
ag10
ag11
ag13
ag14
ag15
ag16
ag17
ag18
ag19
ag20
ag21
ag22
ag23
ag24
ag25
ag26
ag27
ag28
ag29
ag30
asg13
(lp41
g1
ag3
ag4
ag5
ag6
ag7
ag8
ag9
ag10
ag11
ag12
ag14
ag15
ag16
ag17
ag18
ag19
ag20
ag21
ag22
ag23
ag24
ag25
ag26
ag27
ag28
ag29
ag30
asg14
(lp42
g1
ag3
ag4
ag5
ag6
ag7
ag8
ag9
ag10
ag11
ag12
ag13
ag15
ag16
ag17
ag18
ag19
ag20
ag21
ag22
ag23
ag24
ag25
ag26
ag27
ag28
ag29
ag30
asg15
(lp43
g1
ag3
ag4
ag5
ag6
ag7
ag8
ag9
ag10
ag11
ag12
ag13
ag14
ag16
ag17
ag18
ag19
ag20
ag21
ag22
ag23
ag24
ag25
ag26
ag27
ag28
ag29
ag30
asg16
(lp44
g1
ag3
ag4
ag5
ag6
ag7
ag8
ag9
ag10
ag11
ag12
ag13
ag14
ag15
ag17
ag18
ag19
ag20
ag21
ag22
ag23
ag24
ag25
ag26
ag27
ag28
ag29
ag30
asg17
(lp45
g1
ag3
ag4
ag5
ag6
ag7
ag8
ag9
ag10
ag11
ag12
ag13
ag14
ag15
ag16
ag18
ag19
ag20
ag21
ag22
ag23
ag24
ag25
ag26
ag27
ag28
ag29
ag30
asg18
(lp46
g1
ag3
ag4
ag5
ag6
ag7
ag8
ag9
ag10
ag11
ag12
ag13
ag14
ag15
ag16
ag17
ag19
ag20
ag21
ag22
ag23
ag24
ag25
ag26
ag27
ag28
ag29
ag30
asg19
(lp47
g1
ag3
ag4
ag5
ag6
ag7
ag8
ag9
ag10
ag11
ag12
ag13
ag14
ag15
ag16
ag17
ag18
ag20
ag21
ag22
ag23
ag24
ag25
ag26
ag27
ag28
ag29
ag30
asg26
(lp48
g1
ag3
ag4
ag5
ag6
ag7
ag8
ag9
ag10
ag11
ag12
ag13
ag14
ag15
ag16
ag17
ag18
ag19
ag20
ag21
ag22
ag23
ag24
ag25
ag27
ag28
ag29
ag30
asg21
(lp49
g1
ag3
ag4
ag5
ag6
ag7
ag8
ag9
ag10
ag11
ag12
ag13
ag14
ag15
ag16
ag17
ag18
ag19
ag20
ag22
ag23
ag24
ag25
ag26
ag27
ag28
ag29
ag30
asg22
(lp50
g1
ag3
ag4
ag5
ag6
ag7
ag8
ag9
ag10
ag11
ag12
ag13
ag14
ag15
ag16
ag17
ag18
ag19
ag20
ag21
ag23
ag24
ag25
ag26
ag27
ag28
ag29
ag30
asg23
(lp51
g1
ag3
ag4
ag5
ag6
ag7
ag8
ag9
ag10
ag11
ag12
ag13
ag14
ag15
ag16
ag17
ag18
ag19
ag20
ag21
ag22
ag24
ag25
ag26
ag27
ag28
ag29
ag30
asg24
(lp52
g1
ag3
ag4
ag5
ag6
ag7
ag8
ag9
ag10
ag11
ag12
ag13
ag14
ag15
ag16
ag17
ag18
ag19
ag20
ag21
ag22
ag23
ag25
ag26
ag27
ag28
ag29
ag30
asg25
(lp53
g1
ag3
ag4
ag5
ag6
ag7
ag8
ag9
ag10
ag11
ag12
ag13
ag14
ag15
ag16
ag17
ag18
ag19
ag20
ag21
ag22
ag23
ag24
ag26
ag27
ag28
ag29
ag30
asg20
(lp54
g1
ag3
ag4
ag5
ag6
ag7
ag8
ag9
ag10
ag11
ag12
ag13
ag14
ag15
ag16
ag17
ag18
ag19
ag21
ag22
ag23
ag24
ag25
ag26
ag27
ag28
ag29
ag30
asg27
(lp55
g1
ag3
ag4
ag5
ag6
ag7
ag8
ag9
ag10
ag11
ag12
ag13
ag14
ag15
ag16
ag17
ag18
ag19
ag20
ag21
ag22
ag23
ag24
ag25
ag26
ag28
ag29
ag30
asg30
(lp56
g1
ag3
ag4
ag5
ag6
ag7
ag8
ag9
ag10
ag11
ag12
ag13
ag14
ag15
ag16
ag17
ag18
ag19
ag20
ag21
ag22
ag23
ag24
ag25
ag26
ag27
ag28
ag29
asg29
(lp57
g1
ag3
ag4
ag5
ag6
ag7
ag8
ag9
ag10
ag11
ag12
ag13
ag14
ag15
ag16
ag17
ag18
ag19
ag20
ag21
ag22
ag23
ag24
ag25
ag26
ag27
ag28
ag30
asg28
(lp58
g1
ag3
ag4
ag5
ag6
ag7
ag8
ag9
ag10
ag11
ag12
ag13
ag14
ag15
ag16
ag17
ag18
ag19
ag20
ag21
ag22
ag23
ag24
ag25
ag26
ag27
ag29
ag30
as.