ccopy_reg
_reconstructor
p0
(cnetworkx.classes.graph
Graph
p1
c__builtin__
object
p2
Ntp3
Rp4
(dp5
S'node'
p6
(dp7
S'assemblage-15-2'
p8
(dp9
S'name'
p10
g8
ssS'assemblage-11-3'
p11
(dp12
g10
g11
ssS'assemblage-11-2'
p13
(dp14
g10
g13
ssS'assemblage-12-4'
p15
(dp16
g10
g15
ssS'assemblage-28-1'
p17
(dp18
g10
g17
ssS'assemblage-12-1'
p19
(dp20
g10
g19
ssS'assemblage-12-2'
p21
(dp22
g10
g21
ssS'assemblage-2-3'
p23
(dp24
g10
g23
ssS'assemblage-1-4'
p25
(dp26
g10
g25
ssS'assemblage-3-2'
p27
(dp28
g10
g27
ssS'assemblage-21-4'
p29
(dp30
g10
g29
ssS'assemblage-21-3'
p31
(dp32
g10
g31
ssS'assemblage-28-3'
p33
(dp34
g10
g33
ssS'assemblage-25-4'
p35
(dp36
g10
g35
ssS'assemblage-6-2'
p37
(dp38
g10
g37
ssS'assemblage-7-3'
p39
(dp40
g10
g39
ssS'assemblage-20-3'
p41
(dp42
g10
g41
ssS'assemblage-20-1'
p43
(dp44
g10
g43
ssS'assemblage-18-4'
p45
(dp46
g10
g45
ssS'assemblage-16-2'
p47
(dp48
g10
g47
ssS'assemblage-19-1'
p49
(dp50
g10
g49
ssS'assemblage-4-4'
p51
(dp52
g10
g51
sssS'graph'
p53
(dp54
S'is_directed'
p55
I00
ssS'edge'
p56
(dp57
g8
(dp58
g41
(dp59
S'weight'
p60
S'MUMMMDDMMDMDMUMMMMM'
p61
ssg43
(dp62
g60
S'UDMMMDUMMUMDMMMMMMM'
p63
ssg25
(dp64
g60
S'MUMMMMDMMUMDUMMMMMM'
p65
ssg11
(dp66
g60
S'MUMMMUDMMDMDMMMMMMM'
p67
ssg13
(dp68
g60
S'MUMMMUDMMDMDMMMMMMM'
p69
ssg15
(dp70
g60
S'MDMMMDDMMDMUMMMMMMM'
p71
ssg17
(dp72
g60
S'MUMMMDUMMUMDMMMMMMM'
p73
ssg49
(dp74
g60
S'UDMMMUUMMUMDUMMMMMM'
p75
ssg19
(dp76
g60
S'MUMMMDDMMDMDMMMMMMM'
p77
ssg21
(dp78
g60
S'MUMMUDUMMUMDMMMMMMM'
p79
ssg31
(dp80
g60
S'MUMMMUDMUDMDMMMMMUM'
p81
ssg33
(dp82
g60
S'MUUMMDDMMDMDMMMMMMM'
p83
ssg51
(dp84
g60
S'UDMMMDUMMUMDUMMMMMM'
p85
ssg45
(dp86
g60
S'MUMMMUDMMDMDMMUMMMM'
p87
ssg35
(dp88
g60
S'MDMMMDUMMUMDMMMMMMM'
p89
ssg23
(dp90
g60
S'MMMUMMDMMDMUMMMMUMM'
p91
ssg47
(dp92
g60
S'MDMMMUDMMDMUMMMMMMU'
p93
ssg37
(dp94
g60
S'MUMMMDDUMDUDMMMMMMM'
p95
ssg27
(dp96
g60
S'UDMMMDUMMUMDUMMMMMM'
p97
ssg29
(dp98
g60
S'MUMMMDDMMDMDMMMMMMM'
p99
ssg39
(dp100
g60
S'MUMMMUDMMDMDMMMUMUM'
p101
sssg11
(dp102
g41
(dp103
g60
S'MUMMMDMMMMMDMUMMMMM'
p104
ssg8
g66
sg43
(dp105
g60
S'UDMMMDUMMUMDMMMMMMM'
p106
ssg25
(dp107
g60
S'MDMMMDMMMUMUUMMMMMM'
p108
ssg13
(dp109
g60
S'MUMMMDMMMMMDMMMMMMM'
p110
ssg15
(dp111
g60
S'MDMMMDMMMMMUMMMMMMM'
p112
ssg17
(dp113
g60
S'MDMMMDUMMUMDMMMMMMM'
p114
ssg49
(dp115
g60
S'UDMMMDUMMUMUUMMMMMM'
p116
ssg19
(dp117
g60
S'MUMMMDMMMMMDMMMMMMM'
p118
ssg21
(dp119
g60
S'MDMMUDUMMUMDMMMMMMM'
p120
ssg31
(dp121
g60
S'MDMMMUMMUMMDMMMMMUM'
p122
ssg33
(dp123
g60
S'MUUMMDMMMMMDMMMMMMM'
p124
ssg51
(dp125
g60
S'UDMMMDUMMUMDUMMMMMM'
p126
ssg45
(dp127
g60
S'MUMMMDMMMMMDMMUMMMM'
p128
ssg35
(dp129
g60
S'MDMMMDUMMUMDMMMMMMM'
p130
ssg23
(dp131
g60
S'MDMUMDMMMMMUMMMMUMM'
p132
ssg47
(dp133
g60
S'MDMMMDMMMMMUMMMMMMU'
p134
ssg37
(dp135
g60
S'MUMMMDMUMMUDMMMMMMM'
p136
ssg27
(dp137
g60
S'UDMMMDUMMUMDUMMMMMM'
p138
ssg29
(dp139
g60
S'MUMMMDMMMMMDMMMMMMM'
p140
ssg39
(dp141
g60
S'MMMMMMMMMMMDMMMUMUM'
p142
sssg13
(dp143
g41
(dp144
g60
S'MUMMMDMMMMMDMUMMMMM'
p145
ssg8
g68
sg43
(dp146
g60
S'UDMMMDUMMUMDMMMMMMM'
p147
ssg25
(dp148
g60
S'MDMMMDMMMUMUUMMMMMM'
p149
ssg11
g109
sg15
(dp150
g60
S'MDMMMDMMMMMUMMMMMMM'
p151
ssg17
(dp152
g60
S'MDMMMDUMMUMUMMMMMMM'
p153
ssg49
(dp154
g60
S'UDMMMMUMMUMUUMMMMMM'
p155
ssg19
(dp156
g60
S'MUMMMDMMMMMDMMMMMMM'
p157
ssg21
(dp158
g60
S'MDMMUDUMMUMUMMMMMMM'
p159
ssg31
(dp160
g60
S'MDMMMUMMUMMUMMMMMUM'
p161
ssg33
(dp162
g60
S'MUUMMDMMMMMDMMMMMMM'
p163
ssg51
(dp164
g60
S'UDMMMDUMMUMDUMMMMMM'
p165
ssg45
(dp166
g60
S'MDMMMUMMMMMUMMUMMMM'
p167
ssg35
(dp168
g60
S'MDMMMDUMMUMUMMMMMMM'
p169
ssg23
(dp170
g60
S'MDMUMDMMMMMUMMMMUMM'
p171
ssg47
(dp172
g60
S'MDMMMMMMMMMUMMMMMMU'
p173
ssg37
(dp174
g60
S'MUMMMDMUMMUDMMMMMMM'
p175
ssg27
(dp176
g60
S'UDMMMDUMMUMDUMMMMMM'
p177
ssg29
(dp178
g60
S'MUMMMDMMMMMDMMMMMMM'
p179
ssg39
(dp180
g60
S'MDMMMUMMMMMUMMMUMUM'
p181
sssg15
(dp182
g41
(dp183
g60
S'MUMMMMMMMMMDMUMMMMM'
p184
ssg8
g70
sg43
(dp185
g60
S'UDMMMMUMMUMDMMMMMMM'
p186
ssg25
(dp187
g60
S'MUMMMUMMMUMDUMMMMMM'
p188
ssg11
g111
sg13
g150
sg33
(dp189
g60
S'MUUMMMMMMMMDMMMMMMM'
p190
ssg17
(dp191
g60
S'MUMMMMUMMUMDMMMMMMM'
p192
ssg49
(dp193
g60
S'UMMMMUUMMUMDUMMMMMM'
p194
ssg19
(dp195
g60
S'MUMMMMMMMMMDMMMMMMM'
p196
ssg21
(dp197
g60
S'MUMMUMUMMUMDMMMMMMM'
p198
ssg31
(dp199
g60
S'MUMMMUMMUMMDMMMMMUM'
p200
ssg51
(dp201
g60
S'UDMMMMUMMUMDUMMMMMM'
p202
ssg45
(dp203
g60
S'MUMMMUMMMMMDMMUMMMM'
p204
ssg35
(dp205
g60
S'MDMMMMUMMUMDMMMMMMM'
p206
ssg23
(dp207
g60
S'MUMUMUMMMMMDMMMMUMM'
p208
ssg47
(dp209
g60
S'MUMMMUMMMMMDMMMMMMU'
p210
ssg37
(dp211
g60
S'MUMMMMMUMMUDMMMMMMM'
p212
ssg27
(dp213
g60
S'UDMMMMUMMUMDUMMMMMM'
p214
ssg29
(dp215
g60
S'MUMMMMMMMMMDMMMMMMM'
p216
ssg39
(dp217
g60
S'MUMMMUMMMMMDMMMUMUM'
p218
sssg17
(dp219
g41
(dp220
g60
S'MUMMMMDMMDMDMUMMMMM'
p221
ssg8
g72
sg43
(dp222
g60
S'UDMMMMUMMUMDMMMMMMM'
p223
ssg25
(dp224
g60
S'MMMMMUDMMDMUUMMMMMM'
p225
ssg11
g113
sg13
g152
sg15
g191
sg29
(dp226
g60
S'MUMMMMDMMDMDMMMMMMM'
p227
ssg19
(dp228
g60
S'MUMMMMDMMDMDMMMMMMM'
p229
ssg21
(dp230
g60
S'MUMMUMDMMDMMMMMMMMM'
p231
ssg31
(dp232
g60
S'MUMMMUDMUDMUMMMMMUM'
p233
ssg33
(dp234
g60
S'MUUMMMDMMDMDMMMMMMM'
p235
ssg51
(dp236
g60
S'UDMMMMDMMUMDUMMMMMM'
p237
ssg45
(dp238
g60
S'MUMMMUDMMDMUMMUMMMM'
p239
ssg35
(dp240
g60
S'MDMMMMUMMUMMMMMMMMM'
p241
ssg23
(dp242
g60
S'MDMUMUDMMDMUMMMMUMM'
p243
ssg49
(dp244
g60
S'UDMMMUMMMDMUUMMMMMM'
p245
ssg37
(dp246
g60
S'MUMMMMDUMDUDMMMMMMM'
p247
ssg27
(dp248
g60
S'UDMMMMUMMUMDUMMMMMM'
p249
ssg47
(dp250
g60
S'MDMMMUDMMDMUMMMMMMU'
p251
ssg39
(dp252
g60
S'MUMMMUDMMDMUMMMUMUM'
p253
sssg19
(dp254
g41
(dp255
g60
S'MDMMMMMMMMMMMUMMMMM'
p256
ssg8
g76
sg43
(dp257
g60
S'UDMMMMUMMUMMMMMMMMM'
p258
ssg25
(dp259
g60
S'MDMMMUMMMUMUUMMMMMM'
p260
ssg11
g117
sg13
g156
sg15
g195
sg17
g228
sg49
(dp261
g60
S'UDMMMUUMMUMUUMMMMMM'
p262
ssg31
(dp263
g60
S'MDMMMUMMUMMUMMMMMUM'
p264
ssg21
(dp265
g60
S'MDMMUMUMMUMUMMMMMMM'
p266
ssg33
(dp267
g60
S'MDUMMMMMMMMMMMMMMMM'
p268
ssg51
(dp269
g60
S'UDMMMMUMMUMMUMMMMMM'
p270
ssg45
(dp271
g60
S'MDMMMUMMMMMUMMUMMMM'
p272
ssg35
(dp273
g60
S'MDMMMMUMMUMUMMMMMMM'
p274
ssg23
(dp275
g60
S'MDMUMUMMMMMUMMMMUMM'
p276
ssg47
(dp277
g60
S'MDMMMUMMMMMUMMMMMMU'
p278
ssg37
(dp279
g60
S'MDMMMMMUMMUMMMMMMMM'
p280
ssg27
(dp281
g60
S'UDMMMMUMMUMMUMMMMMM'
p282
ssg29
(dp283
g60
S'MMMMMMMMMMMMMMMMMMM'
p284
ssg39
(dp285
g60
S'MDMMMUMMMMMUMMMUMUM'
p286
sssg21
(dp287
g41
(dp288
g60
S'MUMMDMDMMDMDMUMMMMM'
p289
ssg8
g78
sg43
(dp290
g60
S'UDMMDMUMMUMDMMMMMMM'
p291
ssg25
(dp292
g60
S'MDMMDUDMMDMUUMMMMMM'
p293
ssg11
g119
sg13
g158
sg15
g197
sg17
g230
sg19
g265
sg49
(dp294
g60
S'UDMMDUUMMDMUUMMMMMM'
p295
ssg31
(dp296
g60
S'MUMMDUDMUDMUMMMMMUM'
p297
ssg33
(dp298
g60
S'MUUMDMDMMDMDMMMMMMM'
p299
ssg51
(dp300
g60
S'UDMMDMDMMUMDUMMMMMM'
p301
ssg45
(dp302
g60
S'MUMMDUDMMDMUMMUMMMM'
p303
ssg35
(dp304
g60
S'MDMMDMUMMUMMMMMMMMM'
p305
ssg23
(dp306
g60
S'MDMUDUDMMDMUMMMMUMM'
p307
ssg47
(dp308
g60
S'MDMMDUDMMDMUMMMMMMU'
p309
ssg37
(dp310
g60
S'MUMMDMDUMDUDMMMMMMM'
p311
ssg27
(dp312
g60
S'UDMMDMUMMUMDUMMMMMM'
p313
ssg29
(dp314
g60
S'MUMMDMDMMDMDMMMMMMM'
p315
ssg39
(dp316
g60
S'MUMMDUDMMDMUMMMUMUM'
p317
sssg23
(dp318
g41
(dp319
g60
S'MUMDMDMMMMMDMUMMDMM'
p320
ssg8
g90
sg43
(dp321
g60
S'UDMDMDUMMUMDMMMMDMM'
p322
ssg25
(dp323
g60
S'MUMDMMMMMUMDUMMMDMM'
p324
ssg11
g131
sg13
g170
sg15
g207
sg17
g242
sg19
g275
sg21
g306
sg31
(dp325
g60
S'MUMDMUMMUMMDMMMMDUM'
p326
ssg33
(dp327
g60
S'MUUDMDMMMMMDMMMMDMM'
p328
ssg51
(dp329
g60
S'UDMDMDUMMUMDUMMMDMM'
p330
ssg45
(dp331
g60
S'MUMDMUMMMMMDMMUMDMM'
p332
ssg35
(dp333
g60
S'MDMDMDUMMUMDMMMMDMM'
p334
ssg49
(dp335
g60
S'UDMDMUUMMUMDUMMMDMM'
p336
ssg47
(dp337
g60
S'MDMDMUMMMMMUMMMMDMU'
p338
ssg37
(dp339
g60
S'MUMDMDMUMMUDMMMMDMM'
p340
ssg27
(dp341
g60
S'UDMDMDUMMUMDUMMMDMM'
p342
ssg29
(dp343
g60
S'MUMDMDMMMMMDMMMMDMM'
p344
ssg39
(dp345
g60
S'MUMDMUMMMMMDMMMUDUM'
p346
sssg25
(dp347
g41
(dp348
g60
S'MUMMMDMMMDMDDUMMMMM'
p349
ssg8
g64
sg43
(dp350
g60
S'UDMMMDUMMUMDDMMMMMM'
p351
ssg11
g107
sg13
g148
sg15
g187
sg17
g224
sg49
(dp352
g60
S'UDMMMUUMMDMUMMMMMMM'
p353
ssg19
g259
sg21
g292
sg31
(dp354
g60
S'MUMMMUMMUDMDDMMMMUM'
p355
ssg33
(dp356
g60
S'MUUMMDMMMDMDDMMMMMM'
p357
ssg51
(dp358
g60
S'UDMMMDUMMUMDUMMMMMM'
p359
ssg45
(dp360
g60
S'MUMMMUMMMDMDDMUMMMM'
p361
ssg35
(dp362
g60
S'MDMMMDUMMUMDDMMMMMM'
p363
ssg23
g323
sg47
(dp364
g60
S'MDMMMUMMMDMUDMMMMMU'
p365
ssg37
(dp366
g60
S'MUMMMDMUMDUDDMMMMMM'
p367
ssg27
(dp368
g60
S'DUMMMUDMMDMUDMMMMMM'
p369
ssg29
(dp370
g60
S'MUMMMDMMMDMDDMMMMMM'
p371
ssg39
(dp372
g60
S'MUMMMUMMMDMDDMMUMUM'
p373
sssg27
(dp374
g41
(dp375
g60
S'DUMMMMDMMDMMDUMMMMM'
p376
ssg8
g96
sg43
(dp377
g60
S'DDMMMMUMMUMMDMMMMMM'
p378
ssg11
g137
sg13
g176
sg15
g213
sg17
g248
sg49
(dp379
g60
S'DUMMMUDMMDMUDMMMMMM'
p380
ssg19
g281
sg21
g312
sg31
(dp381
g60
S'DUMMMUDMUDMUDMMMMUM'
p382
ssg33
(dp383
g60
S'DUUMMMDMMDMMDMMMMMM'
p384
ssg51
(dp385
g60
S'UUMMMMDMMDMMUMMMMMM'
p386
ssg45
(dp387
g60
S'DUMMMUDMMDMUDMUMMMM'
p388
ssg35
(dp389
g60
S'DUMMMMUMMDMUDMMMMMM'
p390
ssg23
g341
sg47
(dp391
g60
S'DUMMMUDMMDMUDMMMMMU'
p392
ssg37
(dp393
g60
S'DUMMMMDUMDUMDMMMMMM'
p394
ssg25
g368
sg29
(dp395
g60
S'DUMMMMDMMDMMDMMMMMM'
p396
ssg39
(dp397
g60
S'DUMMMUDMMDMUDMMUMUM'
p398
sssg29
(dp399
g41
(dp400
g60
S'MDMMMMMMMMMMMUMMMMM'
p401
ssg8
g98
sg43
(dp402
g60
S'UDMMMMUMMUMMMMMMMMM'
p403
ssg25
g370
sg11
g139
sg13
g178
sg15
g215
sg17
g226
sg19
g283
sg21
g314
sg31
(dp404
g60
S'MDMMMUMMUMMUMMMMMUM'
p405
ssg33
(dp406
g60
S'MDUMMMMMMMMMMMMMMMM'
p407
ssg51
(dp408
g60
S'UDMMMMUMMUMMUMMMMMM'
p409
ssg45
(dp410
g60
S'MDMMMUMMMMMUMMUMMMM'
p411
ssg35
(dp412
g60
S'MDMMMMUMMUMUMMMMMMM'
p413
ssg23
g343
sg49
(dp414
g60
S'UDMMMUUMMUMUUMMMMMM'
p415
ssg37
(dp416
g60
S'MDMMMMMUMMUMMMMMMMM'
p417
ssg27
g395
sg47
(dp418
g60
S'MDMMMUMMMMMUMMMMMMU'
p419
ssg39
(dp420
g60
S'MDMMMUMMMMMUMMMUMUM'
p421
sssg31
(dp422
g41
(dp423
g60
S'MUMMMDMMDMMDMUMMMDM'
p424
ssg8
g80
sg43
(dp425
g60
S'UDMMMDUMDUMDMMMMMDM'
p426
ssg25
g354
sg11
g121
sg13
g160
sg15
g199
sg17
g232
sg49
(dp427
g60
S'UDMMMDUMDUMUUMMMMDM'
p428
ssg19
g263
sg21
g296
sg33
(dp429
g60
S'MUUMMDMMDMMDMMMMMDM'
p430
ssg51
(dp431
g60
S'UDMMMDUMDUMDUMMMMDM'
p432
ssg45
(dp433
g60
S'MUMMMDMMDMMMMMUMMDM'
p434
ssg35
(dp435
g60
S'MDMMMDUMDUMDMMMMMDM'
p436
ssg23
g325
sg47
(dp437
g60
S'MDMMMDMMDMMUMMMMMDU'
p438
ssg37
(dp439
g60
S'MUMMMDMUDMUDMMMMMDM'
p440
ssg27
g381
sg29
g404
sg39
(dp441
g60
S'MUMMMDMMDMMMMMMUMUM'
p442
sssg33
(dp443
g41
(dp444
g60
S'MMDMMMMMMMMMMUMMMMM'
p445
ssg8
g82
sg43
(dp446
g60
S'UDDMMMUMMUMMMMMMMMM'
p447
ssg25
g356
sg11
g123
sg13
g162
sg15
g189
sg17
g234
sg49
(dp448
g60
S'UDDMMUUMMUMUUMMMMMM'
p449
ssg19
g267
sg21
g298
sg31
g429
sg51
(dp450
g60
S'UDDMMMUMMUMMUMMMMMM'
p451
ssg45
(dp452
g60
S'MDDMMUMMMMMUMMUMMMM'
p453
ssg35
(dp454
g60
S'MDDMMMUMMUMUMMMMMMM'
p455
ssg23
g327
sg47
(dp456
g60
S'MDDMMUMMMMMUMMMMMMU'
p457
ssg37
(dp458
g60
S'MDDMMMMUMMUMMMMMMMM'
p459
ssg27
g383
sg29
g406
sg39
(dp460
g60
S'MDDMMUMMMMMUMMMUMUM'
p461
sssg35
(dp462
g41
(dp463
g60
S'MUMMMMDMMDMDMUMMMMM'
p464
ssg8
g88
sg43
(dp465
g60
S'UDMMMMUMMUMDMMMMMMM'
p466
ssg25
g362
sg11
g129
sg13
g168
sg15
g205
sg17
g240
sg49
(dp467
g60
S'UUMMMUDMMDMUUMMMMMM'
p468
ssg19
g273
sg21
g304
sg31
g435
sg33
g454
sg51
(dp469
g60
S'UUMMMMDMMUMDUMMMMMM'
p470
ssg45
(dp471
g60
S'MUMMMUDMMDMUMMUMMMM'
p472
ssg23
g333
sg47
(dp473
g60
S'MUMMMUDMMDMUMMMMMMU'
p474
ssg37
(dp475
g60
S'MUMMMMDUMDUDMMMMMMM'
p476
ssg27
g389
sg29
g412
sg39
(dp477
g60
S'MUMMMUDMMDMUMMMUMUM'
p478
sssg37
(dp479
g41
(dp480
g60
S'MUMMMMMDMMDMMUMMMMM'
p481
ssg8
g94
sg43
(dp482
g60
S'UDMMMMUDMUDMMMMMMMM'
p483
ssg25
g366
sg11
g135
sg13
g174
sg15
g211
sg17
g246
sg19
g279
sg21
g310
sg31
g439
sg33
g458
sg51
(dp484
g60
S'UDMMMMUDMUDMUMMMMMM'
p485
ssg45
(dp486
g60
S'MDMMMUMDMMDUMMUMMMM'
p487
ssg35
g475
sg23
g339
sg47
(dp488
g60
S'MDMMMUMDMMDUMMMMMMU'
p489
ssg49
(dp490
g60
S'UDMMMUUDMUDUUMMMMMM'
p491
ssg27
g393
sg29
g416
sg39
(dp492
g60
S'MDMMMUMDMMDUMMMUMUM'
p493
sssg39
(dp494
g41
(dp495
g60
S'MUMMMDMMMMMDMUMDMDM'
p496
ssg8
g100
sg43
(dp497
g60
S'UDMMMDUMMUMDMMMDMDM'
p498
ssg25
g372
sg11
g141
sg13
g180
sg15
g217
sg17
g252
sg19
g285
sg21
g316
sg31
g441
sg33
g460
sg51
(dp499
g60
S'UDMMMDUMMUMDUMMDMDM'
p500
ssg49
(dp501
g60
S'UDMMMDUMMUMUUMMDMDM'
p502
ssg35
g477
sg23
g345
sg47
(dp503
g60
S'MDMMMDMMMMMUMMMDMDU'
p504
ssg37
g492
sg27
g397
sg29
g420
sg45
(dp505
g60
S'MUMMMDMMMMMMMMUDMDM'
p506
sssg41
(dp507
g8
g59
sg43
(dp508
g60
S'UDMMMMUMMUMMMDMMMMM'
p509
ssg25
g348
sg11
g103
sg13
g144
sg15
g183
sg17
g220
sg49
(dp510
g60
S'UDMMMUUMMUMUUDMMMMM'
p511
ssg19
g255
sg21
g288
sg31
g423
sg33
g444
sg51
(dp512
g60
S'UDMMMMUMMUMMUDMMMMM'
p513
ssg45
(dp514
g60
S'MDMMMUMMMMMUMDUMMMM'
p515
ssg35
g463
sg23
g319
sg47
(dp516
g60
S'MDMMMUMMMMMUMDMMMMU'
p517
ssg37
g480
sg27
g375
sg29
g400
sg39
g495
ssg43
(dp518
g41
g508
sg8
g62
sg25
g350
sg11
g105
sg13
g146
sg15
g185
sg17
g222
sg49
(dp519
g60
S'MUMMMUDMMDMUUMMMMMM'
p520
ssg19
g257
sg21
g290
sg31
g425
sg33
g446
sg51
(dp521
g60
S'UUMMMMDMMDMMUMMMMMM'
p522
ssg45
(dp523
g60
S'DUMMMUDMMDMUMMUMMMM'
p524
ssg35
g465
sg23
g321
sg47
(dp525
g60
S'DUMMMUDMMDMUMMMMMMU'
p526
ssg37
g482
sg27
g377
sg29
g402
sg39
g497
ssg45
(dp527
g41
g514
sg8
g86
sg43
g523
sg25
g360
sg11
g127
sg13
g166
sg15
g203
sg17
g238
sg19
g271
sg21
g302
sg31
g433
sg33
g452
sg51
(dp528
g60
S'UDMMMDUMMUMDUMDMMMM'
p529
ssg49
(dp530
g60
S'UDMMMDUMMUMUUMDMMMM'
p531
ssg35
g471
sg23
g331
sg47
(dp532
g60
S'MDMMMDMMMMMUMMDMMMU'
p533
ssg37
g486
sg27
g387
sg29
g410
sg39
g505
ssg47
(dp534
g41
g516
sg8
g92
sg43
g525
sg25
g364
sg11
g133
sg13
g172
sg15
g209
sg17
g250
sg19
g277
sg21
g308
sg31
g437
sg33
g456
sg51
(dp535
g60
S'UDMMMDUMMUMDUMMMMMD'
p536
ssg45
g532
sg35
g473
sg23
g337
sg49
(dp537
g60
S'UMMMMMUMMUMDUMMMMMD'
p538
ssg37
g488
sg27
g391
sg29
g418
sg39
g503
ssg49
(dp539
g41
g510
sg8
g74
sg43
g519
sg25
g352
sg11
g115
sg13
g154
sg15
g193
sg17
g244
sg19
g261
sg21
g294
sg31
g427
sg33
g448
sg51
(dp540
g60
S'UDMMMDDMMUMDUMMMMMM'
p541
ssg45
g530
sg35
g467
sg23
g335
sg47
g537
sg37
g490
sg27
g379
sg29
g414
sg39
g501
ssg51
(dp542
g41
g512
sg8
g84
sg43
g521
sg25
g358
sg11
g125
sg13
g164
sg15
g201
sg17
g236
sg49
g540
sg19
g269
sg21
g300
sg31
g431
sg33
g450
sg45
g528
sg35
g469
sg23
g329
sg47
g535
sg37
g484
sg27
g385
sg29
g408
sg39
g499
sssS'adj'
p543
g57
sb.