(dp0
S'assemblage-527-802'
p1
(lp2
F0.0
aF0.0
aF0.0
aF0.0
aF0.0
aF0.0
aF0.054
aF0.0
aF0.0
aF0.0
aF0.0
aF0.0
aF0.0
aF0.0
aF0.0
aF0.0
aF0.0
aF0.0
aF0.0
aF0.0
aF0.0
aF0.0
aF0.0
aF0.0
aF0.062
aF0.0
aF0.0
aF0.0
aF0.0
aF0.0
aF0.0
aF0.0
aF0.0
aF0.0
aF0.818
aF0.0
aF0.0
aF0.0
aF0.0
aF0.066
aF0.0
aF0.0
aF0.0
aF0.0
aF0.0
asS'assemblage-437-859'
p3
(lp4
F0.0
aF0.0
aF0.0
aF0.0
aF0.0
aF0.0
aF0.0
aF0.0
aF0.0
aF0.0
aF0.0
aF0.002
aF0.0
aF0.0
aF0.0
aF0.0
aF0.0
aF0.0
aF0.0
aF0.0
aF0.0
aF0.0
aF0.0
aF0.0
aF0.316
aF0.0
aF0.0
aF0.096
aF0.0
aF0.0
aF0.032
aF0.0
aF0.0
aF0.0
aF0.454
aF0.0
aF0.0
aF0.0
aF0.0
aF0.1
aF0.0
aF0.0
aF0.0
aF0.0
aF0.0
asS'assemblage-782-255'
p5
(lp6
F0.0
aF0.0
aF0.0
aF0.0
aF0.0
aF0.0
aF0.0
aF0.0
aF0.0
aF0.0
aF0.0
aF0.0
aF0.0
aF0.0
aF0.0
aF0.0
aF0.0
aF0.0
aF0.0
aF0.0
aF0.0
aF0.0
aF0.0
aF0.0
aF0.428
aF0.0
aF0.0
aF0.002
aF0.0
aF0.0
aF0.0
aF0.0
aF0.0
aF0.0
aF0.236
aF0.0
aF0.0
aF0.0
aF0.0
aF0.334
aF0.0
aF0.0
aF0.0
aF0.0
aF0.0
asS'assemblage-291-763'
p7
(lp8
F0.0
aF0.0
aF0.0
aF0.0
aF0.0
aF0.0
aF0.0
aF0.0
aF0.0
aF0.0
aF0.0
aF0.0
aF0.0
aF0.0
aF0.0
aF0.0
aF0.0
aF0.0
aF0.0
aF0.0
aF0.0
aF0.0
aF0.0
aF0.466
aF0.0
aF0.0
aF0.024
aF0.138
aF0.0
aF0.0
aF0.0
aF0.0
aF0.0
aF0.0
aF0.218
aF0.0
aF0.152
aF0.0
aF0.0
aF0.002
aF0.0
aF0.0
aF0.0
aF0.0
aF0.0
asS'assemblage-902-178'
p9
(lp10
F0.0
aF0.0
aF0.0
aF0.0
aF0.0
aF0.0
aF0.0
aF0.0
aF0.0
aF0.0
aF0.0
aF0.0
aF0.0
aF0.0
aF0.0
aF0.0
aF0.0
aF0.0
aF0.0
aF0.0
aF0.0
aF0.0
aF0.0
aF0.0
aF0.22
aF0.0
aF0.0
aF0.472
aF0.0
aF0.0
aF0.0
aF0.0
aF0.0
aF0.0
aF0.222
aF0.0
aF0.0
aF0.0
aF0.0
aF0.086
aF0.0
aF0.0
aF0.0
aF0.0
aF0.0
asS'assemblage-513-795'
p11
(lp12
F0.0
aF0.0
aF0.0
aF0.0
aF0.0
aF0.0
aF0.0
aF0.0
aF0.0
aF0.0
aF0.0
aF0.0
aF0.0
aF0.0
aF0.0
aF0.0
aF0.0
aF0.0
aF0.0
aF0.0
aF0.0
aF0.0
aF0.0
aF0.0
aF0.17
aF0.0
aF0.0
aF0.0
aF0.0
aF0.0
aF0.0
aF0.0
aF0.0
aF0.0
aF0.708
aF0.0
aF0.0
aF0.0
aF0.0
aF0.122
aF0.0
aF0.0
aF0.0
aF0.0
aF0.0
asS'assemblage-894-203'
p13
(lp14
F0.0
aF0.0
aF0.0
aF0.0
aF0.0
aF0.0
aF0.0
aF0.0
aF0.0
aF0.0
aF0.0
aF0.0
aF0.0
aF0.0
aF0.0
aF0.0
aF0.0
aF0.0
aF0.0
aF0.0
aF0.0
aF0.004
aF0.0
aF0.0
aF0.002
aF0.0
aF0.0
aF0.006
aF0.0
aF0.0
aF0.0
aF0.0
aF0.0
aF0.0
aF0.578
aF0.0
aF0.0
aF0.0
aF0.0
aF0.41
aF0.0
aF0.0
aF0.0
aF0.0
aF0.0
asS'assemblage-683-524'
p15
(lp16
F0.0
aF0.0
aF0.0
aF0.0
aF0.0
aF0.0
aF0.0
aF0.0
aF0.0
aF0.0
aF0.0
aF0.0
aF0.0
aF0.0
aF0.0
aF0.0
aF0.0
aF0.0
aF0.0
aF0.028
aF0.0
aF0.0
aF0.0
aF0.144
aF0.074
aF0.0
aF0.012
aF0.196
aF0.0
aF0.0
aF0.0
aF0.0
aF0.0
aF0.0
aF0.338
aF0.0
aF0.06
aF0.0
aF0.0
aF0.148
aF0.0
aF0.0
aF0.0
aF0.0
aF0.0
asS'assemblage-784-262'
p17
(lp18
F0.0
aF0.0
aF0.0
aF0.0
aF0.0
aF0.0
aF0.0
aF0.0
aF0.0
aF0.0
aF0.0
aF0.0
aF0.0
aF0.0
aF0.0
aF0.0
aF0.0
aF0.0
aF0.0
aF0.0
aF0.0
aF0.0
aF0.0
aF0.0
aF0.366
aF0.0
aF0.0
aF0.0
aF0.002
aF0.0
aF0.0
aF0.0
aF0.0
aF0.0
aF0.244
aF0.0
aF0.0
aF0.0
aF0.0
aF0.388
aF0.0
aF0.0
aF0.0
aF0.0
aF0.0
asS'assemblage-418-644'
p19
(lp20
F0.0
aF0.0
aF0.0
aF0.0
aF0.0
aF0.0
aF0.0
aF0.0
aF0.0
aF0.0
aF0.0
aF0.0
aF0.0
aF0.0
aF0.0
aF0.0
aF0.0
aF0.0
aF0.0
aF0.0
aF0.0
aF0.0
aF0.0
aF0.0
aF0.2
aF0.0
aF0.0
aF0.344
aF0.0
aF0.0
aF0.0
aF0.0
aF0.0
aF0.0
aF0.354
aF0.0
aF0.0
aF0.0
aF0.0
aF0.102
aF0.0
aF0.0
aF0.0
aF0.0
aF0.0
asS'assemblage-969-543'
p21
(lp22
F0.0
aF0.0
aF0.0
aF0.0
aF0.0
aF0.0
aF0.0
aF0.0
aF0.0
aF0.0
aF0.0
aF0.054
aF0.0
aF0.0
aF0.0
aF0.0
aF0.0
aF0.0
aF0.0
aF0.0
aF0.0
aF0.0
aF0.0
aF0.0
aF0.314
aF0.0
aF0.0
aF0.008
aF0.0
aF0.0
aF0.022
aF0.0
aF0.0
aF0.0
aF0.586
aF0.0
aF0.0
aF0.0
aF0.0
aF0.016
aF0.0
aF0.0
aF0.0
aF0.0
aF0.0
asS'assemblage-663-338'
p23
(lp24
F0.0
aF0.0
aF0.0
aF0.0
aF0.0
aF0.0
aF0.0
aF0.0
aF0.0
aF0.0
aF0.0
aF0.0
aF0.0
aF0.0
aF0.0
aF0.0
aF0.0
aF0.0
aF0.0
aF0.0
aF0.0
aF0.0
aF0.0
aF0.006
aF0.19
aF0.0
aF0.0
aF0.376
aF0.0
aF0.0
aF0.0
aF0.0
aF0.0
aF0.0
aF0.0
aF0.0
aF0.0
aF0.0
aF0.0
aF0.428
aF0.0
aF0.0
aF0.0
aF0.0
aF0.0
as.