(dp0
S'assemblage-894-203'
p1
(lp2
I0
aI0
aI0
aI0
aI0
aI0
aI0
aI0
aI0
aI0
aI0
aI0
aI0
aI0
aI0
aI0
aI0
aI0
aI0
aI0
aI0
acnumpy.core.multiarray
scalar
p3
(cnumpy
dtype
p4
(S'f8'
p5
I0
I1
tp6
Rp7
(I3
S'<'
p8
NNNI-1
I-1
I0
tp9
bS'\xdb<\x0b\xe1\x15\xe2m?'
p10
tp11
Rp12
aI0
aI0
ag3
(g7
S'4\xd3\x84E\x91SW?'
p13
tp14
Rp15
aI0
aI0
ag3
(g7
S'\xf6\xe6\x14\x85\xc7\x93s?'
p16
tp17
Rp18
aI0
aI0
aI0
aI0
aI0
aI0
ag3
(g7
S'\xb9(\xc7\xb2PQ\xe2?'
p19
tp20
Rp21
aI0
aI0
aI0
aI0
ag3
(g7
S'\xff\xf9\x84\x16\xfa\x19\xda?'
p22
tp23
Rp24
aI0
aI0
aI0
aI0
aI0
asS'assemblage-437-859'
p25
(lp26
I0
aI0
aI0
aI0
aI0
aI0
aI0
aI0
aI0
aI0
aI0
ag3
(g7
S'\xa5R\x1c?U4U?'
p27
tp28
Rp29
aI0
aI0
aI0
aI0
aI0
aI0
aI0
aI0
aI0
aI0
aI0
aI0
ag3
(g7
S'\xc9/\xd4\xcb\x9d\xbb\xd3?'
p30
tp31
Rp32
aI0
aI0
ag3
(g7
S'\x1aQT\xc9;}\xb7?'
p33
tp34
Rp35
aI0
aI0
ag3
(g7
S'\xa3\xc5\xafg\xdf\x15\xa0?'
p36
tp37
Rp38
aI0
aI0
aI0
ag3
(g7
S'\xe1w\x95yJ\xe0\xdc?'
p39
tp40
Rp41
aI0
aI0
aI0
aI0
ag3
(g7
S'\xd8\x0bcH\xe2p\xb9?'
p42
tp43
Rp44
aI0
aI0
aI0
aI0
aI0
asS'assemblage-782-255'
p45
(lp46
I0
aI0
aI0
aI0
aI0
aI0
aI0
aI0
aI0
aI0
aI0
aI0
aI0
aI0
aI0
aI0
aI0
aI0
aI0
aI0
aI0
aI0
aI0
aI0
ag3
(g7
S'\xc8\xb0\xe8\xa3\xc5.\xdb?'
p47
tp48
Rp49
aI0
aI0
ag3
(g7
S'\x89\x1bG;\xc36X?'
p50
tp51
Rp52
aI0
aI0
aI0
aI0
aI0
aI0
ag3
(g7
S'\\\xdb\rdq\xa5\xcd?'
p53
tp54
Rp55
aI0
aI0
aI0
aI0
ag3
(g7
S'\xed7\xec\xb2\xd6!\xd5?'
p56
tp57
Rp58
aI0
aI0
aI0
aI0
aI0
asS'assemblage-291-763'
p59
(lp60
I0
aI0
aI0
aI0
aI0
aI0
aI0
aI0
aI0
aI0
aI0
aI0
aI0
aI0
aI0
aI0
aI0
aI0
aI0
aI0
aI0
aI0
aI0
ag3
(g7
S'\xfe?v\x0e\xa7\x9c\xdd?'
p61
tp62
Rp63
aI0
aI0
ag3
(g7
S'\xactt\xaa\xc8M\x96?'
p64
tp65
Rp66
ag3
(g7
S'[\xd6\xba\r`&\xc1?'
p67
tp68
Rp69
aI0
aI0
aI0
aI0
aI0
aI0
ag3
(g7
S'\xa9\x9d-\x98\x99\x9d\xcb?'
p70
tp71
Rp72
aI0
ag3
(g7
S'\\\x06;\x8a\x8c\t\xc3?'
p73
tp74
Rp75
aI0
aI0
ag3
(g7
S'^?P \xecAY?'
p76
tp77
Rp78
aI0
aI0
aI0
aI0
aI0
asS'assemblage-902-178'
p79
(lp80
I0
aI0
aI0
aI0
aI0
aI0
aI0
aI0
aI0
aI0
aI0
aI0
aI0
aI0
aI0
aI0
aI0
aI0
aI0
aI0
aI0
aI0
aI0
aI0
ag3
(g7
S'\xba\xd3\x8b\xa9R+\xcc?'
p81
tp82
Rp83
aI0
aI0
ag3
(g7
S'\xdd\xd7\xff\x13;\xe8\xdd?'
p84
tp85
Rp86
aI0
aI0
aI0
aI0
aI0
aI0
ag3
(g7
S'\x0e\xfe\xd5\xb8\x10\xa7\xcb?'
p87
tp88
Rp89
aI0
aI0
aI0
aI0
ag3
(g7
S'\xdf-\xbc\xf5\xe4\x14\xb5?'
p90
tp91
Rp92
aI0
aI0
aI0
aI0
aI0
asS'assemblage-513-795'
p93
(lp94
I0
aI0
aI0
aI0
aI0
aI0
aI0
aI0
aI0
aI0
aI0
aI0
aI0
aI0
aI0
aI0
aI0
aI0
aI0
aI0
aI0
aI0
aI0
aI0
ag3
(g7
S'\xb6O0c\xcfL\xc5?'
p95
tp96
Rp97
aI0
aI0
aI0
aI0
aI0
aI0
aI0
aI0
aI0
ag3
(g7
S'SYy\xc9\x85\x90\xe6?'
p98
tp99
Rp100
aI0
aI0
aI0
aI0
ag3
(g7
S'%\xce\\\xc6\xd7%\xbe?'
p101
tp102
Rp103
aI0
aI0
aI0
aI0
aI0
asS'assemblage-527-802'
p104
(lp105
I0
aI0
aI0
aI0
aI0
aI0
ag3
(g7
S'e\xba\x18\x95\xaf\xe9\xaa?'
p106
tp107
Rp108
aI0
aI0
aI0
aI0
aI0
aI0
aI0
aI0
aI0
aI0
aI0
aI0
aI0
aI0
aI0
aI0
aI0
ag3
(g7
S']\tZ%b\x95\xae?'
p109
tp110
Rp111
aI0
aI0
aI0
aI0
aI0
aI0
aI0
aI0
aI0
ag3
(g7
S'\xfe)8\xf0l\x04\xea?'
p112
tp113
Rp114
aI0
aI0
aI0
aI0
ag3
(g7
S'\xd3@\xe7\x8d\x86\x9f\xb0?'
p115
tp116
Rp117
aI0
aI0
aI0
aI0
aI0
asS'assemblage-683-524'
p118
(lp119
I0
aI0
aI0
aI0
aI0
aI0
aI0
aI0
aI0
aI0
aI0
aI0
aI0
aI0
aI0
aI0
aI0
aI0
aI0
ag3
(g7
S'\xb2C\x17\x92F\x93\x9b?'
p120
tp121
Rp122
aI0
aI0
aI0
ag3
(g7
S'\xcf\xd9\x06\xcb\xe9\xf2\xc1?'
p123
tp124
Rp125
ag3
(g7
S'\x9a~\x1e\rW\xc9\xb2?'
p126
tp127
Rp128
aI0
ag3
(g7
S'Z1\x01\xef\x840\x87?'
p129
tp130
Rp131
ag3
(g7
S'dQ\x99\x89\xccU\xc8?'
p132
tp133
Rp134
aI0
aI0
aI0
aI0
aI0
aI0
ag3
(g7
S'\xf0\x0c\xbe\x8f\x11f\xd5?'
p135
tp136
Rp137
aI0
ag3
(g7
S'\x0cA\xff\xf0\xdaH\xae?'
p138
tp139
Rp140
aI0
aI0
ag3
(g7
S'7j\x94\xbd\xdaa\xc2?'
p141
tp142
Rp143
aI0
aI0
aI0
aI0
aI0
asS'assemblage-784-262'
p144
(lp145
I0
aI0
aI0
aI0
aI0
aI0
aI0
aI0
aI0
aI0
aI0
aI0
aI0
aI0
aI0
aI0
aI0
aI0
aI0
aI0
aI0
aI0
aI0
aI0
ag3
(g7
S'\xda\xb3\xb4\x8f\x0e/\xd7?'
p146
tp147
Rp148
aI0
aI0
aI0
ag3
(g7
S'\xdc\x977\xd3y|Y?'
p149
tp150
Rp151
aI0
aI0
aI0
aI0
aI0
ag3
(g7
S'\xd5d\xfb\x17\xd4\x02\xcf?'
p152
tp153
Rp154
aI0
aI0
aI0
aI0
ag3
(g7
S'\x8d\x06\xa7z\xacp\xd8?'
p155
tp156
Rp157
aI0
aI0
aI0
aI0
aI0
asS'assemblage-418-644'
p158
(lp159
I0
aI0
aI0
aI0
aI0
aI0
aI0
aI0
aI0
aI0
aI0
aI0
aI0
aI0
aI0
aI0
aI0
aI0
aI0
aI0
aI0
aI0
aI0
aI0
ag3
(g7
S'\x13\xec\xb5$ld\xc9?'
p160
tp161
Rp162
aI0
aI0
ag3
(g7
S'\xcfIE\xc9\xd8\xad\xd5?'
p163
tp164
Rp165
aI0
aI0
aI0
aI0
aI0
aI0
ag3
(g7
S'@W\xbb,\xb0p\xd6?'
p166
tp167
Rp168
aI0
aI0
aI0
aI0
ag3
(g7
S'\x0e\xfdn\\\x894\xb9?'
p169
tp170
Rp171
aI0
aI0
aI0
aI0
aI0
asS'assemblage-969-543'
p172
(lp173
I0
aI0
aI0
aI0
aI0
aI0
aI0
aI0
aI0
aI0
aI0
ag3
(g7
S'"\xbe6r\xf9\x92\xaa?'
p174
tp175
Rp176
aI0
aI0
aI0
aI0
aI0
aI0
aI0
aI0
aI0
aI0
aI0
aI0
ag3
(g7
S'E\xede\x0ba\xbc\xd3?'
p177
tp178
Rp179
aI0
aI0
ag3
(g7
S'\xe2)\xc5o\x9ez{?'
p180
tp181
Rp182
aI0
aI0
ag3
(g7
S'\x84[\xee]k\xcc\x94?'
p183
tp184
Rp185
aI0
aI0
aI0
ag3
(g7
S'\\,\x01\xbc\x90\xb2\xe2?'
p186
tp187
Rp188
aI0
aI0
aI0
aI0
ag3
(g7
S'\xb2\x8a[\x7f\xd7\xa3\x8e?'
p189
tp190
Rp191
aI0
aI0
aI0
aI0
aI0
asS'assemblage-663-338'
p192
(lp193
I0
aI0
aI0
aI0
aI0
aI0
aI0
aI0
aI0
aI0
aI0
aI0
aI0
aI0
aI0
aI0
aI0
aI0
aI0
aI0
aI0
aI0
aI0
ag3
(g7
S'n\x85\x9d)\xb25u?'
p194
tp195
Rp196
ag3
(g7
S'\xbb\x85c\xeb\n\x15\xc8?'
p197
tp198
Rp199
aI0
aI0
ag3
(g7
S',\xb0L\xa3:\xd0\xd7?'
p200
tp201
Rp202
aI0
aI0
aI0
aI0
aI0
aI0
aI0
aI0
aI0
aI0
aI0
ag3
(g7
S')\x85\xa24\xd3\xe0\xda?'
p203
tp204
Rp205
aI0
aI0
aI0
aI0
aI0
as.