(dp0
S'assemblage-885-525'
p1
(lp2
S'assemblage-169-455'
p3
aS'assemblage-186-264'
p4
aS'assemblage-274-761'
p5
aS'assemblage-771-248'
p6
aS'assemblage-288-739'
p7
aS'assemblage-867-918'
p8
aS'assemblage-180-449'
p9
aS'assemblage-849-602'
p10
aS'assemblage-662-336'
p11
aS'assemblage-446-859'
p12
aS'assemblage-666-337'
p13
asg3
(lp14
g1
ag4
ag5
ag6
ag7
ag8
ag9
ag10
ag11
ag12
ag13
asg4
(lp15
g1
ag3
ag5
ag6
ag7
ag8
ag9
ag10
ag11
ag12
ag13
asg5
(lp16
g1
ag3
ag4
ag6
ag7
ag8
ag9
ag10
ag11
ag12
ag13
asg6
(lp17
g1
ag3
ag4
ag5
ag7
ag8
ag9
ag10
ag11
ag12
ag13
asg7
(lp18
g1
ag3
ag4
ag5
ag6
ag8
ag9
ag10
ag11
ag12
ag13
asg8
(lp19
g1
ag3
ag4
ag5
ag6
ag7
ag9
ag10
ag11
ag12
ag13
asg9
(lp20
g1
ag3
ag4
ag5
ag6
ag7
ag8
ag10
ag11
ag12
ag13
asg10
(lp21
g1
ag3
ag4
ag5
ag6
ag7
ag8
ag9
ag11
ag12
ag13
asg11
(lp22
g1
ag3
ag4
ag5
ag6
ag7
ag8
ag9
ag10
ag12
ag13
asg12
(lp23
g1
ag3
ag4
ag5
ag6
ag7
ag8
ag9
ag10
ag11
ag13
asg13
(lp24
g1
ag3
ag4
ag5
ag6
ag7
ag8
ag9
ag10
ag11
ag12
as.