(dp0
S'assemblage-894-203'
p1
(lp2
S'assemblage-527-802'
p3
aS'assemblage-437-859'
p4
aS'assemblage-782-255'
p5
aS'assemblage-291-763'
p6
aS'assemblage-902-178'
p7
aS'assemblage-513-795'
p8
aS'assemblage-683-524'
p9
aS'assemblage-784-262'
p10
aS'assemblage-418-644'
p11
aS'assemblage-969-543'
p12
aS'assemblage-663-338'
p13
asg4
(lp14
g3
ag5
ag6
ag7
ag8
ag1
ag9
ag10
ag11
ag12
ag13
asg5
(lp15
g3
ag4
ag6
ag7
ag8
ag1
ag9
ag10
ag11
ag12
ag13
asg6
(lp16
g3
ag4
ag5
ag7
ag8
ag1
ag9
ag10
ag11
ag12
ag13
asg7
(lp17
g3
ag4
ag5
ag6
ag8
ag1
ag9
ag10
ag11
ag12
ag13
asg8
(lp18
g3
ag4
ag5
ag6
ag7
ag1
ag9
ag10
ag11
ag12
ag13
asg3
(lp19
g4
ag5
ag6
ag7
ag8
ag1
ag9
ag10
ag11
ag12
ag13
asg9
(lp20
g3
ag4
ag5
ag6
ag7
ag8
ag1
ag10
ag11
ag12
ag13
asg10
(lp21
g3
ag4
ag5
ag6
ag7
ag8
ag1
ag9
ag11
ag12
ag13
asg11
(lp22
g3
ag4
ag5
ag6
ag7
ag8
ag1
ag9
ag10
ag12
ag13
asg12
(lp23
g3
ag4
ag5
ag6
ag7
ag8
ag1
ag9
ag10
ag11
ag13
asg13
(lp24
g3
ag4
ag5
ag6
ag7
ag8
ag1
ag9
ag10
ag11
ag12
as.