(dp0
S'assemblage-43-14'
p1
(lp2
I0
aI0
aI0
aI0
acnumpy.core.multiarray
scalar
p3
(cnumpy
dtype
p4
(S'f8'
p5
I0
I1
tp6
Rp7
(I3
S'<'
p8
NNNI-1
I-1
I0
tp9
bS'\xa5\xd15\x88#\xe4\x13?'
p10
tp11
Rp12
aI0
aI0
aI0
aI0
aI0
aI0
aI0
aI0
aI0
aI0
aI0
aI0
aI0
aI0
aI0
aI0
aI0
aI0
aI0
aI0
aI0
aI0
aI0
aI0
aI0
aI0
aI0
aI0
aI0
ag3
(g7
S'\x0cA\xd4\x08F^{?'
p13
tp14
Rp15
aI0
aI0
aI0
aI0
aI0
aI0
aI0
aI0
aI0
aI0
ag3
(g7
S'\x04\x95\x1d\x93\xbe\x9a`?'
p16
tp17
Rp18
aI0
aI0
aI0
aI0
aI0
aI0
aI0
aI0
aI0
aI0
aI0
aI0
aI0
aI0
aI0
aI0
aI0
aI0
aI0
aI0
aI0
aI0
aI0
aI0
aI0
aI0
aI0
aI0
aI0
aI0
aI0
aI0
aI0
aI0
aI0
aI0
aI0
aI0
aI0
aI0
aI0
aI0
aI0
aI0
aI0
aI0
aI0
aI0
aI0
aI0
aI0
aI0
aI0
aI0
aI0
aI0
aI0
aI0
aI0
aI0
aI0
aI0
aI0
aI0
aI0
aI0
aI0
aI0
aI0
aI0
aI0
aI0
aI0
aI0
aI0
aI0
aI0
aI0
aI0
aI0
aI0
aI0
aI0
ag3
(g7
S'\x11\xc47\x08\xd5a\x19?'
p19
tp20
Rp21
aI0
aI0
aI0
aI0
aI0
aI0
aI0
aI0
aI0
aI0
ag3
(g7
S'>\x1d\x15\xd5\\\xc2\xc8?'
p22
tp23
Rp24
aI0
ag3
(g7
S'\x96A\x01*\x9a\xc1\xf9>'
p25
tp26
Rp27
aI0
aI0
aI0
aI0
aI0
aI0
aI0
aI0
aI0
aI0
aI0
aI0
aI0
aI0
aI0
aI0
aI0
aI0
aI0
aI0
aI0
aI0
aI0
aI0
aI0
aI0
ag3
(g7
S'{\x9e\xcc\x1f;\xc6\xc8?'
p28
tp29
Rp30
aI0
aI0
aI0
aI0
aI0
aI0
aI0
aI0
aI0
aI0
aI0
aI0
aI0
aI0
aI0
aI0
aI0
aI0
aI0
aI0
aI0
aI0
aI0
aI0
aI0
aI0
aI0
aI0
aI0
aI0
aI0
aI0
aI0
aI0
aI0
aI0
aI0
aI0
aI0
aI0
aI0
aI0
aI0
aI0
aI0
aI0
aI0
aI0
aI0
aI0
aI0
ag3
(g7
S'GY)]\xf7\xd2\xd2?'
p31
tp32
Rp33
aI0
aI0
aI0
aI0
aI0
aI0
aI0
aI0
aI0
aI0
aI0
aI0
aI0
aI0
aI0
aI0
aI0
aI0
aI0
aI0
aI0
aI0
aI0
aI0
aI0
aI0
aI0
aI0
aI0
aI0
aI0
aI0
aI0
aI0
aI0
aI0
aI0
aI0
aI0
aI0
aI0
aI0
ag3
(g7
S'R\x88\xad\xab+\x16\xb7?'
p34
tp35
Rp36
aI0
aI0
aI0
aI0
aI0
aI0
aI0
aI0
aI0
aI0
aI0
aI0
aI0
aI0
aI0
ag3
(g7
S'\xaf}.3\x0f\xbaa?'
p37
tp38
Rp39
aI0
aI0
aI0
ag3
(g7
S'\xe5s\x1d9*\xb8\xfc>'
p40
tp41
Rp42
aI0
aI0
aI0
aI0
aI0
aI0
aI0
aI0
aI0
aI0
aI0
aI0
aI0
aI0
aI0
aI0
aI0
aI0
aI0
aI0
aI0
aI0
aI0
aI0
aI0
aI0
aI0
aI0
aI0
aI0
aI0
aI0
ag3
(g7
S'\x9c\xd4\xcc\xf24"\xc9?'
p43
tp44
Rp45
aI0
aI0
aI0
aI0
aI0
aI0
aI0
aI0
aI0
aI0
aI0
aI0
aI0
aI0
ag3
(g7
S'J]\x1a`\xf7"\x93?'
p46
tp47
Rp48
aI0
aI0
aI0
aI0
aI0
aI0
aI0
aI0
aI0
aI0
aI0
aI0
aI0
aI0
ag3
(g7
S'\xe9\xb5\xd7=\xd38s?'
p49
tp50
Rp51
aI0
aI0
aI0
aI0
aI0
aI0
aI0
aI0
aI0
aI0
aI0
aI0
aI0
aI0
aI0
aI0
aI0
aI0
aI0
aI0
aI0
aI0
aI0
aI0
aI0
asS'assemblage-49-2'
p52
(lp53
I0
aI0
aI0
aI0
aI0
aI0
aI0
aI0
aI0
aI0
aI0
aI0
aI0
aI0
aI0
aI0
aI0
aI0
aI0
aI0
aI0
aI0
aI0
aI0
aI0
aI0
aI0
aI0
aI0
aI0
aI0
aI0
aI0
aI0
aI0
aI0
aI0
aI0
aI0
aI0
aI0
aI0
aI0
aI0
aI0
aI0
aI0
aI0
aI0
aI0
aI0
aI0
aI0
aI0
aI0
aI0
aI0
aI0
aI0
aI0
aI0
aI0
aI0
aI0
aI0
aI0
aI0
aI0
aI0
aI0
aI0
aI0
aI0
aI0
aI0
aI0
aI0
aI0
aI0
aI0
aI0
aI0
aI0
aI0
aI0
aI0
aI0
aI0
aI0
aI0
aI0
aI0
aI0
aI0
aI0
aI0
aI0
aI0
aI0
aI0
aI0
aI0
aI0
aI0
aI0
aI0
aI0
aI0
ag3
(g7
S'<\x16\xf3\x0c2\\\x10?'
p54
tp55
Rp56
aI0
aI0
aI0
aI0
aI0
aI0
aI0
aI0
aI0
aI0
aI0
ag3
(g7
S'\xdb\xa0\x93\xd3M\xe2V?'
p57
tp58
Rp59
aI0
aI0
aI0
aI0
aI0
aI0
aI0
aI0
aI0
aI0
aI0
aI0
aI0
aI0
aI0
aI0
aI0
aI0
aI0
ag3
(g7
S'j\x01S7\x9f>\xed?'
p60
tp61
Rp62
aI0
aI0
aI0
aI0
aI0
aI0
aI0
aI0
aI0
aI0
aI0
aI0
aI0
aI0
aI0
aI0
aI0
aI0
aI0
aI0
aI0
aI0
aI0
aI0
aI0
aI0
aI0
aI0
aI0
aI0
aI0
aI0
aI0
aI0
aI0
aI0
aI0
aI0
aI0
aI0
aI0
aI0
aI0
aI0
aI0
aI0
aI0
aI0
aI0
aI0
aI0
aI0
aI0
aI0
aI0
aI0
aI0
aI0
aI0
aI0
aI0
aI0
ag3
(g7
S'|\xab\x82s\xcf\x98>?'
p63
tp64
Rp65
aI0
aI0
aI0
aI0
aI0
aI0
aI0
aI0
aI0
aI0
aI0
aI0
aI0
aI0
aI0
aI0
aI0
aI0
ag3
(g7
S'm\x91E\xf0\xdatF?'
p66
tp67
Rp68
aI0
aI0
aI0
aI0
aI0
aI0
ag3
(g7
S'Jk\xbc\x92\x1d\xfa\x00?'
p69
tp70
Rp71
aI0
aI0
aI0
aI0
aI0
aI0
aI0
aI0
aI0
aI0
aI0
aI0
aI0
aI0
aI0
aI0
aI0
aI0
aI0
aI0
aI0
aI0
aI0
aI0
aI0
aI0
aI0
aI0
aI0
aI0
aI0
aI0
aI0
aI0
aI0
aI0
aI0
aI0
aI0
aI0
aI0
aI0
aI0
aI0
aI0
aI0
aI0
aI0
aI0
aI0
aI0
aI0
aI0
aI0
aI0
aI0
aI0
aI0
aI0
aI0
aI0
aI0
aI0
aI0
aI0
aI0
aI0
aI0
aI0
aI0
aI0
aI0
aI0
aI0
aI0
aI0
aI0
aI0
aI0
aI0
aI0
aI0
aI0
aI0
aI0
aI0
aI0
aI0
aI0
aI0
aI0
aI0
aI0
aI0
aI0
aI0
aI0
aI0
aI0
aI0
aI0
aI0
aI0
aI0
aI0
aI0
aI0
aI0
aI0
aI0
aI0
aI0
aI0
aI0
aI0
aI0
aI0
aI0
aI0
aI0
aI0
aI0
aI0
aI0
aI0
aI0
aI0
aI0
aI0
aI0
ag3
(g7
S'RH\xc0\x14\x1e\x89\xb5?'
p72
tp73
Rp74
aI0
aI0
aI0
aI0
aI0
aI0
aI0
aI0
aI0
aI0
aI0
aI0
asS'assemblage-19-15'
p75
(lp76
I0
ag3
(g7
S'\xb5\x1fn\x15\x96\xa4\x1c?'
p77
tp78
Rp79
aI0
aI0
aI0
aI0
aI0
aI0
aI0
aI0
aI0
aI0
aI0
aI0
aI0
aI0
aI0
aI0
aI0
aI0
aI0
aI0
aI0
aI0
aI0
aI0
aI0
aI0
aI0
aI0
aI0
aI0
aI0
aI0
aI0
aI0
aI0
aI0
aI0
aI0
aI0
aI0
ag3
(g7
S'o\xa8\n\xfb\xcd\xff\xa7?'
p80
tp81
Rp82
aI0
aI0
aI0
aI0
aI0
aI0
aI0
aI0
aI0
aI0
aI0
aI0
aI0
aI0
aI0
aI0
aI0
aI0
aI0
aI0
aI0
aI0
aI0
aI0
aI0
aI0
aI0
aI0
aI0
aI0
aI0
aI0
aI0
aI0
aI0
aI0
aI0
aI0
aI0
aI0
aI0
aI0
aI0
aI0
aI0
aI0
aI0
aI0
aI0
aI0
aI0
aI0
aI0
aI0
aI0
aI0
aI0
aI0
aI0
aI0
aI0
aI0
aI0
aI0
aI0
aI0
aI0
aI0
aI0
aI0
aI0
aI0
aI0
aI0
aI0
aI0
aI0
aI0
aI0
aI0
ag3
(g7
S'G)\x1a\x8d\xc1?\x0f?'
p83
tp84
Rp85
aI0
aI0
aI0
aI0
aI0
aI0
aI0
ag3
(g7
S'AN\xb9b\xde\x06\xf0>'
p86
tp87
Rp88
aI0
aI0
aI0
aI0
aI0
aI0
aI0
aI0
ag3
(g7
S'\x96\xc5\x11\xcdqv\xe7?'
p89
tp90
Rp91
aI0
aI0
aI0
aI0
aI0
aI0
aI0
aI0
aI0
aI0
aI0
aI0
aI0
aI0
aI0
aI0
aI0
aI0
aI0
aI0
aI0
aI0
aI0
aI0
aI0
aI0
aI0
aI0
aI0
aI0
aI0
aI0
aI0
aI0
ag3
(g7
S'0\xd4\xbc\t\x8fx=?'
p92
tp93
Rp94
aI0
aI0
aI0
aI0
ag3
(g7
S'q`U\xc8\x87\x03\xf2>'
p95
tp96
Rp97
aI0
aI0
aI0
ag3
(g7
S'Nog\x90\x8b\x07R?'
p98
tp99
Rp100
aI0
aI0
aI0
aI0
aI0
aI0
aI0
aI0
aI0
aI0
ag3
(g7
S'E\xfc\x03\x89\xd0G(?'
p101
tp102
Rp103
aI0
aI0
aI0
aI0
aI0
aI0
aI0
aI0
aI0
aI0
aI0
aI0
aI0
aI0
aI0
aI0
aI0
aI0
aI0
aI0
aI0
aI0
aI0
aI0
aI0
ag3
(g7
S'\xc6\xb6\xc9\x1bP\xbd\x9e?'
p104
tp105
Rp106
aI0
aI0
ag3
(g7
S'\xf75\xeeAkX\x14?'
p107
tp108
Rp109
aI0
aI0
aI0
aI0
aI0
aI0
aI0
aI0
aI0
aI0
aI0
aI0
aI0
aI0
aI0
aI0
aI0
ag3
(g7
S'\xc7F\xde\xca\\c\xa0?'
p110
tp111
Rp112
aI0
aI0
aI0
aI0
aI0
aI0
aI0
aI0
aI0
aI0
aI0
aI0
aI0
aI0
aI0
aI0
aI0
aI0
aI0
aI0
aI0
ag3
(g7
S'gw\x10\xde\xe3\x12\xa2?'
p113
tp114
Rp115
aI0
aI0
aI0
aI0
ag3
(g7
S'\x98\x8f\xbf\xfds\x80\xef>'
p116
tp117
Rp118
aI0
aI0
aI0
aI0
aI0
aI0
aI0
aI0
aI0
aI0
aI0
aI0
ag3
(g7
S'[\xd9\xccH!\xb9\xf0>'
p119
tp120
Rp121
aI0
aI0
aI0
aI0
aI0
aI0
aI0
aI0
aI0
aI0
aI0
aI0
aI0
aI0
aI0
aI0
aI0
aI0
aI0
aI0
aI0
aI0
aI0
aI0
aI0
aI0
aI0
aI0
aI0
aI0
aI0
aI0
aI0
aI0
aI0
aI0
aI0
aI0
aI0
aI0
aI0
aI0
aI0
ag3
(g7
S'_\xa6Dx.\x1a\xf2>'
p122
tp123
Rp124
aI0
aI0
aI0
aI0
aI0
aI0
aI0
aI0
aI0
aI0
aI0
aI0
aI0
aI0
ag3
(g7
S'\x0b\xe2\xc8ro\xeb\x19?'
p125
tp126
Rp127
ag3
(g7
S'\xe6\x05\xd3]\xe0\xc2??'
p128
tp129
Rp130
aI0
aI0
aI0
aI0
aI0
ag3
(g7
S'\x83\xdf\x16\xe5 \x99\xf3>'
p131
tp132
Rp133
aI0
aI0
aI0
aI0
aI0
ag3
(g7
S'\xf1c!\x1e\x9b\xc3\xec>'
p134
tp135
Rp136
aI0
aI0
ag3
(g7
S'\xdevou\x82\xe0\x08?'
p137
tp138
Rp139
aI0
aI0
ag3
(g7
S'\r2\xe6\x8a]\xfd\xbe?'
p140
tp141
Rp142
aI0
aI0
aI0
aI0
aI0
aI0
ag3
(g7
S'\xa5\x90\xee\xf9\xdb\xfd\x01?'
p143
tp144
Rp145
aI0
aI0
aI0
aI0
aI0
asS'assemblage-32-23'
p146
(lp147
I0
aI0
aI0
aI0
ag3
(g7
S"\xd3\x99\x8e\xc1\x07\xe8'?"
p148
tp149
Rp150
ag3
(g7
S'[\x0f\xfc3\xba\xfe ?'
p151
tp152
Rp153
aI0
aI0
aI0
aI0
aI0
aI0
aI0
aI0
aI0
aI0
aI0
aI0
ag3
(g7
S'1u\xff\x0foC!?'
p154
tp155
Rp156
aI0
aI0
aI0
aI0
aI0
aI0
aI0
aI0
aI0
aI0
aI0
aI0
aI0
aI0
aI0
ag3
(g7
S"'G&H\x11_T?"
p157
tp158
Rp159
aI0
aI0
aI0
aI0
aI0
aI0
aI0
ag3
(g7
S'\x03\xe9\x84NS}d?'
p160
tp161
Rp162
aI0
aI0
ag3
(g7
S'\xd7-D\xc2\x84\xabt?'
p163
tp164
Rp165
ag3
(g7
S'\x1cf(8\x11`\xe5>'
p166
tp167
Rp168
aI0
aI0
aI0
aI0
aI0
aI0
aI0
aI0
aI0
aI0
aI0
aI0
aI0
aI0
aI0
aI0
aI0
aI0
aI0
aI0
aI0
aI0
aI0
aI0
aI0
aI0
aI0
aI0
aI0
aI0
aI0
aI0
aI0
aI0
aI0
aI0
aI0
ag3
(g7
S'zy\xf5}\xcaM\x02?'
p169
tp170
Rp171
aI0
aI0
aI0
aI0
aI0
aI0
aI0
aI0
aI0
aI0
aI0
aI0
aI0
aI0
aI0
aI0
aI0
aI0
aI0
aI0
aI0
aI0
aI0
aI0
aI0
aI0
aI0
aI0
aI0
aI0
aI0
aI0
aI0
aI0
aI0
aI0
ag3
(g7
S'\xa5\x8aM\x97B\xb3\x01?'
p172
tp173
Rp174
aI0
aI0
aI0
aI0
aI0
aI0
aI0
aI0
aI0
aI0
aI0
aI0
aI0
aI0
aI0
ag3
(g7
S'\x9e\xa1Ss\xcd\x12\xed>'
p175
tp176
Rp177
aI0
aI0
ag3
(g7
S'\x9f\x14N3T\xfa\xd6?'
p178
tp179
Rp180
aI0
aI0
aI0
aI0
aI0
aI0
aI0
aI0
aI0
aI0
aI0
aI0
aI0
aI0
aI0
aI0
aI0
aI0
aI0
aI0
aI0
aI0
aI0
aI0
aI0
aI0
aI0
aI0
ag3
(g7
S'\x06DL\xb1\xd6\xf3\xc0?'
p181
tp182
Rp183
aI0
aI0
aI0
aI0
aI0
aI0
aI0
aI0
aI0
aI0
aI0
aI0
aI0
aI0
aI0
aI0
aI0
aI0
aI0
aI0
ag3
(g7
S'\xec\xb7\xaa\x92\xe5\x0b\r?'
p184
tp185
Rp186
aI0
aI0
aI0
aI0
aI0
aI0
aI0
aI0
aI0
aI0
aI0
aI0
aI0
aI0
aI0
aI0
ag3
(g7
S"\xect\xdc'\xd6\x858?"
p187
tp188
Rp189
aI0
aI0
aI0
ag3
(g7
S'h\xd8A\xe8\x98\xf00?'
p190
tp191
Rp192
aI0
aI0
aI0
aI0
aI0
aI0
aI0
aI0
aI0
ag3
(g7
S'\xb6\xefUB\x07\xc8\xc9?'
p193
tp194
Rp195
aI0
aI0
aI0
aI0
aI0
aI0
aI0
aI0
aI0
aI0
aI0
aI0
aI0
aI0
aI0
aI0
aI0
aI0
aI0
aI0
aI0
aI0
aI0
aI0
aI0
aI0
aI0
aI0
aI0
ag3
(g7
S"R'B\xfe\xa9+/?"
p196
tp197
Rp198
aI0
aI0
aI0
aI0
aI0
aI0
aI0
aI0
aI0
aI0
aI0
aI0
ag3
(g7
S'\x06\xf0\x8c\xf7\r\x05\xc0?'
p199
tp200
Rp201
aI0
aI0
aI0
aI0
aI0
aI0
aI0
aI0
aI0
aI0
ag3
(g7
S'*\xe9\xcf\xf4\xc7\xbd\xea>'
p202
tp203
Rp204
aI0
aI0
aI0
aI0
aI0
aI0
aI0
aI0
aI0
aI0
aI0
aI0
aI0
aI0
aI0
aI0
aI0
ag3
(g7
S'Y\xb5\xb2\xac\xafR+?'
p205
tp206
Rp207
aI0
aI0
aI0
aI0
aI0
aI0
aI0
aI0
aI0
aI0
aI0
aI0
aI0
aI0
aI0
aI0
aI0
aI0
aI0
aI0
aI0
aI0
aI0
ag3
(g7
S';\xbbR\x9bi\xfe\xba?'
p208
tp209
Rp210
ag3
(g7
S'}\x13\xbe\xec\xc6\xf9\xe4>'
p211
tp212
Rp213
aI0
aI0
aI0
aI0
aI0
aI0
aI0
aI0
aI0
aI0
aI0
aI0
ag3
(g7
S'}G*\x12\x11\x06\xe8>'
p214
tp215
Rp216
ag3
(g7
S'\x95\x82${\x98x\x91?'
p217
tp218
Rp219
aI0
aI0
aI0
aI0
ag3
(g7
S'\x00\xb5:\x92\x11\xd2\xe7>'
p220
tp221
Rp222
aI0
aI0
aI0
aI0
aI0
aI0
aI0
aI0
aI0
ag3
(g7
S'\xaf\x9b\xee<\x0e\xf5\x16?'
p223
tp224
Rp225
aI0
ag3
(g7
S'\xd9\x94bx\xe1\xbac?'
p226
tp227
Rp228
aI0
aI0
aI0
aI0
aI0
aI0
aI0
aI0
aI0
ag3
(g7
S'p\xc6\xdd\x14\x9a\xad\x14?'
p229
tp230
Rp231
ag3
(g7
S'\x81\xc7D;BP\xa8?'
p232
tp233
Rp234
aI0
aI0
aI0
aI0
aI0
ag3
(g7
S'\x9a\xe2*\xcc\xd6\xd51?'
p235
tp236
Rp237
aI0
aI0
aI0
ag3
(g7
S'S\xb8\xe4\r~\x18"?'
p238
tp239
Rp240
aI0
aI0
asS'assemblage-29-14'
p241
(lp242
I0
aI0
aI0
aI0
aI0
aI0
aI0
aI0
aI0
aI0
aI0
aI0
aI0
aI0
aI0
aI0
aI0
aI0
ag3
(g7
S'l3F\x8b\x0b\x98\x16?'
p243
tp244
Rp245
aI0
aI0
aI0
aI0
aI0
aI0
aI0
aI0
aI0
aI0
aI0
aI0
aI0
aI0
aI0
aI0
aI0
aI0
aI0
aI0
aI0
aI0
aI0
ag3
(g7
S'\xc4y\xdd\xe0\xa0\xc9\x80?'
p246
tp247
Rp248
aI0
aI0
aI0
aI0
aI0
aI0
aI0
aI0
aI0
aI0
aI0
aI0
aI0
aI0
aI0
aI0
aI0
aI0
aI0
aI0
aI0
aI0
aI0
aI0
aI0
aI0
aI0
aI0
ag3
(g7
S'm\xcaHd\xd6\xed\x06?'
p249
tp250
Rp251
aI0
aI0
aI0
aI0
aI0
aI0
aI0
aI0
aI0
aI0
aI0
aI0
aI0
aI0
aI0
aI0
aI0
aI0
aI0
aI0
ag3
(g7
S'YUj\xff\xb8t\x05?'
p252
tp253
Rp254
aI0
aI0
aI0
aI0
aI0
aI0
aI0
aI0
aI0
aI0
aI0
aI0
aI0
aI0
aI0
aI0
aI0
aI0
aI0
aI0
aI0
aI0
aI0
aI0
aI0
aI0
aI0
aI0
ag3
(g7
S'\xf6d\xa9\xd3Y&\xfa>'
p255
tp256
Rp257
aI0
aI0
aI0
aI0
aI0
aI0
aI0
aI0
aI0
aI0
aI0
aI0
aI0
aI0
aI0
aI0
aI0
aI0
ag3
(g7
S'>vj\x81\xec\xeb\xe0?'
p258
tp259
Rp260
aI0
aI0
aI0
aI0
aI0
aI0
aI0
aI0
ag3
(g7
S'F\xcdh=\x8f\xd1\xf7>'
p261
tp262
Rp263
aI0
aI0
aI0
aI0
aI0
aI0
aI0
aI0
aI0
aI0
aI0
aI0
aI0
aI0
aI0
aI0
aI0
aI0
ag3
(g7
S'=dl\x97\xfc\\\xf8>'
p264
tp265
Rp266
ag3
(g7
S'%i\xb8V\xc2\xa9\xae?'
p267
tp268
Rp269
aI0
aI0
aI0
aI0
aI0
aI0
aI0
ag3
(g7
S'0\x90\xc2e\xa3\xc7\xf6>'
p270
tp271
Rp272
aI0
aI0
aI0
aI0
aI0
aI0
aI0
aI0
aI0
aI0
aI0
aI0
ag3
(g7
S'\xe00\x0e\x7f\xa4\x0b\xf6>'
p273
tp274
Rp275
aI0
aI0
aI0
aI0
aI0
aI0
aI0
aI0
aI0
aI0
aI0
aI0
aI0
aI0
aI0
aI0
ag3
(g7
S'g[Ku\xb3\x1f3?'
p276
tp277
Rp278
aI0
aI0
aI0
ag3
(g7
S'iQ\xc5F\x1a\xf8@?'
p279
tp280
Rp281
ag3
(g7
S'p\xd1\xc9\x8a\xf0\xea\xf8>'
p282
tp283
Rp284
aI0
aI0
aI0
aI0
aI0
aI0
aI0
aI0
ag3
(g7
S'|\x05\xf6\x02\xcfX\xc9?'
p285
tp286
Rp287
aI0
aI0
aI0
aI0
aI0
aI0
aI0
aI0
aI0
aI0
aI0
aI0
ag3
(g7
S'%\xed;<\xbef\x05?'
p288
tp289
Rp290
ag3
(g7
S'<\x9a\xfc\x8bW\x0c\xfb>'
p291
tp292
Rp293
aI0
aI0
ag3
(g7
S'\xbe"\x0b\x19\xfb\xa9N?'
p294
tp295
Rp296
aI0
aI0
aI0
aI0
aI0
aI0
aI0
aI0
aI0
aI0
aI0
aI0
aI0
aI0
aI0
aI0
aI0
ag3
(g7
S"\xf7'\xc6>l \xf5>"
p297
tp298
Rp299
aI0
aI0
aI0
aI0
aI0
aI0
aI0
ag3
(g7
S'd\xdf\x99\xfe\x9ab\xbe?'
p300
tp301
Rp302
aI0
aI0
aI0
aI0
aI0
aI0
aI0
aI0
aI0
aI0
aI0
aI0
aI0
aI0
aI0
aI0
aI0
aI0
aI0
aI0
aI0
aI0
aI0
aI0
aI0
aI0
aI0
aI0
ag3
(g7
S"\xcdW:U\xe5\xac'?"
p303
tp304
Rp305
aI0
aI0
aI0
ag3
(g7
S'\n4\x1cW\x1b\x15\xf9>'
p306
tp307
Rp308
aI0
aI0
aI0
aI0
aI0
aI0
aI0
aI0
aI0
aI0
aI0
ag3
(g7
S'\x80\x85\xf6\x1caz\xf7>'
p309
tp310
Rp311
aI0
aI0
aI0
aI0
aI0
aI0
aI0
aI0
aI0
aI0
aI0
aI0
aI0
aI0
ag3
(g7
S'\x10\xcf\x9e\xc1\xc9\xbf\xf3>'
p312
tp313
Rp314
aI0
aI0
aI0
aI0
aI0
aI0
aI0
aI0
aI0
aI0
aI0
aI0
aI0
aI0
aI0
aI0
aI0
aI0
aI0
ag3
(g7
S'\xf0\xf2\xe7\x87\x15\xb3\xf8>'
p315
tp316
Rp317
aI0
aI0
aI0
aI0
ag3
(g7
S'\x00(*+o\xf3l?'
p318
tp319
Rp320
aI0
aI0
aI0
aI0
aI0
aI0
aI0
aI0
aI0
aI0
ag3
(g7
S'\xf9\x88\xe5\xf7\x81\x99\xb4?'
p321
tp322
Rp323
aI0
aI0
aI0
aI0
aI0
ag3
(g7
S'\x96\xab6\x90\xc6Z\\?'
p324
tp325
Rp326
aI0
aI0
aI0
ag3
(g7
S'#\xa7y\x15\x8d\x88\xf9>'
p327
tp328
Rp329
aI0
aI0
asS'assemblage-1-12'
p330
(lp331
I0
aI0
aI0
aI0
aI0
aI0
aI0
aI0
aI0
aI0
aI0
aI0
aI0
aI0
aI0
aI0
aI0
aI0
aI0
aI0
aI0
aI0
aI0
aI0
aI0
aI0
aI0
aI0
ag3
(g7
S'D\x9cu\xfa\x11,\x00?'
p332
tp333
Rp334
aI0
aI0
aI0
aI0
aI0
aI0
aI0
aI0
aI0
ag3
(g7
S'~W\xe0\xff\xf2h1?'
p335
tp336
Rp337
aI0
aI0
aI0
ag3
(g7
S'N\xd7q\x9d\xd2\x94\x8c?'
p338
tp339
Rp340
aI0
aI0
aI0
aI0
aI0
aI0
aI0
aI0
aI0
aI0
aI0
aI0
aI0
aI0
aI0
aI0
aI0
aI0
aI0
aI0
aI0
aI0
aI0
aI0
aI0
aI0
aI0
aI0
aI0
aI0
aI0
aI0
aI0
aI0
aI0
aI0
aI0
aI0
aI0
aI0
aI0
aI0
aI0
aI0
aI0
aI0
aI0
aI0
aI0
aI0
aI0
aI0
aI0
aI0
aI0
aI0
aI0
aI0
aI0
aI0
aI0
aI0
aI0
aI0
aI0
aI0
aI0
aI0
aI0
aI0
aI0
aI0
aI0
aI0
aI0
aI0
aI0
aI0
aI0
aI0
aI0
aI0
aI0
aI0
aI0
aI0
aI0
aI0
aI0
aI0
aI0
aI0
aI0
aI0
aI0
aI0
aI0
ag3
(g7
S'\xc8\x89\xae1\x9a\xf7\xeb?'
p341
tp342
Rp343
ag3
(g7
S'\xd0]@\x03`\xf3\x0c?'
p344
tp345
Rp346
aI0
aI0
aI0
aI0
aI0
aI0
aI0
aI0
aI0
aI0
aI0
aI0
aI0
aI0
aI0
aI0
aI0
aI0
aI0
aI0
aI0
aI0
aI0
aI0
aI0
aI0
aI0
aI0
ag3
(g7
S'2*K\xa2=Y\xff>'
p347
tp348
Rp349
aI0
aI0
aI0
aI0
ag3
(g7
S'\xfc-s\x0cT\x1dE?'
p350
tp351
Rp352
aI0
aI0
aI0
aI0
aI0
aI0
aI0
aI0
aI0
aI0
aI0
aI0
aI0
aI0
aI0
aI0
aI0
aI0
aI0
ag3
(g7
S'\xa0-\xf4t(NT?'
p353
tp354
Rp355
aI0
aI0
aI0
aI0
aI0
aI0
aI0
aI0
aI0
aI0
aI0
aI0
aI0
aI0
aI0
aI0
aI0
aI0
aI0
aI0
aI0
aI0
aI0
aI0
aI0
aI0
aI0
aI0
aI0
ag3
(g7
S'n+\x00|>Q\x05?'
p356
tp357
Rp358
aI0
aI0
aI0
aI0
aI0
aI0
aI0
aI0
aI0
aI0
aI0
aI0
aI0
aI0
aI0
aI0
ag3
(g7
S'\xf09\x80B9\xa9\xa8?'
p359
tp360
Rp361
aI0
aI0
aI0
aI0
aI0
aI0
aI0
aI0
aI0
aI0
aI0
aI0
aI0
aI0
aI0
aI0
aI0
aI0
aI0
aI0
aI0
ag3
(g7
S'\xad\x92\xef:5\xe0\x8f?'
p362
tp363
Rp364
aI0
aI0
aI0
aI0
aI0
aI0
aI0
aI0
aI0
aI0
aI0
aI0
aI0
aI0
aI0
aI0
aI0
aI0
aI0
aI0
aI0
aI0
aI0
aI0
aI0
aI0
aI0
aI0
aI0
aI0
aI0
aI0
aI0
aI0
aI0
aI0
aI0
aI0
aI0
aI0
aI0
aI0
aI0
aI0
aI0
aI0
aI0
aI0
aI0
aI0
aI0
aI0
aI0
aI0
aI0
aI0
aI0
aI0
aI0
aI0
aI0
aI0
aI0
aI0
aI0
aI0
aI0
aI0
aI0
aI0
aI0
aI0
aI0
aI0
aI0
aI0
ag3
(g7
S"tP\xd6'\xb6\xe6\x10?"
p365
tp366
Rp367
ag3
(g7
S'\x91\xc6u\xa9\xa4\x92[?'
p368
tp369
Rp370
aI0
aI0
aI0
aI0
aI0
aI0
aI0
aI0
aI0
aI0
aI0
ag3
(g7
S'\xad\xb7\xc7J*P\x10?'
p371
tp372
Rp373
aI0
aI0
aI0
aI0
aI0
ag3
(g7
S'\x11KG\x0f\xfd;\xa7?'
p374
tp375
Rp376
aI0
aI0
aI0
aI0
aI0
aI0
aI0
aI0
ag3
(g7
S"\xd8J\xb8'\xec4\xfb>"
p377
tp378
Rp379
aI0
aI0
aI0
asS'assemblage-7-23'
p380
(lp381
I0
aI0
aI0
ag3
(g7
S'&\xd1\xf4S\x9at\x00?'
p382
tp383
Rp384
aI0
aI0
aI0
aI0
aI0
aI0
aI0
aI0
aI0
aI0
aI0
aI0
aI0
aI0
aI0
aI0
aI0
aI0
aI0
aI0
aI0
ag3
(g7
S'\x82\xa6\xbf\xc3Q\xd9\x02?'
p385
tp386
Rp387
aI0
aI0
aI0
aI0
aI0
aI0
aI0
aI0
aI0
aI0
aI0
aI0
aI0
aI0
aI0
aI0
ag3
(g7
S'\xa9\\t%\xb5\x8c\xae?'
p388
tp389
Rp390
aI0
aI0
aI0
aI0
aI0
aI0
aI0
aI0
aI0
aI0
aI0
aI0
aI0
aI0
aI0
aI0
aI0
aI0
aI0
aI0
aI0
aI0
aI0
aI0
ag3
(g7
S'\x7f\xf5:\x91\xbb15?'
p391
tp392
Rp393
aI0
aI0
ag3
(g7
S'j\xac\xbb\xa2\xc0\x8a\x01?'
p394
tp395
Rp396
aI0
aI0
aI0
aI0
aI0
aI0
aI0
aI0
aI0
aI0
aI0
aI0
aI0
aI0
aI0
aI0
aI0
aI0
aI0
aI0
aI0
aI0
aI0
aI0
aI0
aI0
aI0
aI0
aI0
aI0
aI0
aI0
aI0
aI0
aI0
aI0
aI0
aI0
aI0
aI0
aI0
aI0
aI0
aI0
aI0
aI0
aI0
aI0
aI0
aI0
aI0
aI0
aI0
aI0
aI0
aI0
aI0
aI0
aI0
aI0
aI0
aI0
aI0
aI0
aI0
aI0
aI0
aI0
aI0
ag3
(g7
S'\xe4\x84\xaa\x8c\xf1g\xe4?'
p397
tp398
Rp399
aI0
aI0
aI0
aI0
aI0
aI0
aI0
aI0
aI0
aI0
aI0
aI0
aI0
aI0
aI0
aI0
aI0
aI0
aI0
aI0
aI0
aI0
aI0
aI0
aI0
aI0
aI0
aI0
aI0
aI0
aI0
aI0
aI0
aI0
aI0
aI0
aI0
aI0
aI0
aI0
aI0
aI0
aI0
ag3
(g7
S'\xd7\x83\x9a\xce\xa1\xf3+?'
p400
tp401
Rp402
aI0
aI0
aI0
aI0
aI0
aI0
aI0
aI0
aI0
ag3
(g7
S'\xc1\x96\x02f\xce!&?'
p403
tp404
Rp405
aI0
aI0
aI0
aI0
aI0
aI0
aI0
aI0
aI0
aI0
aI0
aI0
aI0
aI0
aI0
aI0
aI0
aI0
aI0
aI0
aI0
aI0
aI0
aI0
aI0
aI0
ag3
(g7
S'\xb4\x93\xa5\x85\x90,\x95?'
p406
tp407
Rp408
aI0
aI0
aI0
aI0
aI0
aI0
aI0
aI0
aI0
aI0
aI0
aI0
aI0
aI0
aI0
aI0
aI0
aI0
aI0
aI0
aI0
aI0
aI0
aI0
aI0
aI0
aI0
aI0
aI0
aI0
aI0
aI0
aI0
aI0
aI0
aI0
aI0
aI0
aI0
aI0
aI0
aI0
ag3
(g7
S'\xd4\r\x8cc\xc4\x9f\xb0?'
p409
tp410
Rp411
aI0
aI0
aI0
aI0
aI0
aI0
ag3
(g7
S'4\xb0\n\xc73#\x03?'
p412
tp413
Rp414
aI0
aI0
aI0
aI0
ag3
(g7
S'\x9dR\xc3\x9d/\xc7\x02?'
p415
tp416
Rp417
aI0
aI0
aI0
aI0
aI0
aI0
aI0
aI0
aI0
aI0
aI0
aI0
aI0
aI0
aI0
aI0
aI0
aI0
aI0
aI0
aI0
aI0
aI0
aI0
aI0
aI0
aI0
aI0
aI0
aI0
aI0
aI0
aI0
aI0
aI0
aI0
aI0
aI0
aI0
aI0
aI0
aI0
aI0
aI0
aI0
aI0
aI0
aI0
aI0
aI0
aI0
aI0
aI0
aI0
aI0
aI0
aI0
aI0
aI0
aI0
aI0
aI0
aI0
aI0
aI0
aI0
aI0
aI0
aI0
aI0
aI0
aI0
aI0
aI0
aI0
aI0
aI0
aI0
aI0
aI0
aI0
aI0
aI0
ag3
(g7
S'\x87\xf3\x93\x90\x0f\xe0\xcb?'
p418
tp419
Rp420
aI0
aI0
aI0
aI0
aI0
aI0
ag3
(g7
S'\xad\xd7\x00\x83.\x0b\x12?'
p421
tp422
Rp423
aI0
aI0
aI0
aI0
aI0
asS'assemblage-36-25'
p424
(lp425
I0
aI0
aI0
aI0
ag3
(g7
S'\xf5\x9bKw\xd1\xa7J?'
p426
tp427
Rp428
ag3
(g7
S'\xa0\xf0\x90d\x17\xb5\x19?'
p429
tp430
Rp431
aI0
aI0
aI0
aI0
aI0
aI0
aI0
aI0
aI0
aI0
aI0
aI0
aI0
aI0
aI0
aI0
ag3
(g7
S'/\xb8\xc3\xd0\xb4\xb2\x00?'
p432
tp433
Rp434
aI0
aI0
aI0
aI0
aI0
aI0
aI0
aI0
aI0
aI0
aI0
ag3
(g7
S'\x80\x18\xaa\x96\xf8Gr?'
p435
tp436
Rp437
aI0
aI0
aI0
aI0
aI0
aI0
aI0
aI0
aI0
aI0
ag3
(g7
S'\x0c\xb0\xb3U({|?'
p438
tp439
Rp440
aI0
aI0
aI0
aI0
aI0
aI0
aI0
aI0
aI0
aI0
aI0
aI0
aI0
aI0
aI0
aI0
aI0
aI0
aI0
aI0
aI0
aI0
aI0
aI0
aI0
aI0
aI0
aI0
aI0
aI0
aI0
aI0
aI0
aI0
aI0
aI0
aI0
aI0
ag3
(g7
S'm6\x10uhr#?'
p441
tp442
Rp443
aI0
aI0
aI0
aI0
aI0
aI0
aI0
aI0
aI0
aI0
aI0
aI0
aI0
aI0
aI0
aI0
aI0
aI0
aI0
aI0
aI0
aI0
aI0
aI0
aI0
aI0
aI0
aI0
aI0
aI0
aI0
aI0
aI0
aI0
aI0
aI0
aI0
aI0
aI0
aI0
aI0
aI0
aI0
aI0
aI0
aI0
aI0
aI0
aI0
aI0
aI0
aI0
aI0
aI0
aI0
ag3
(g7
S'\x14\x88\xcfF7x\xc9?'
p444
tp445
Rp446
aI0
aI0
aI0
aI0
aI0
aI0
aI0
aI0
aI0
aI0
aI0
aI0
aI0
aI0
aI0
aI0
aI0
aI0
aI0
aI0
aI0
aI0
aI0
aI0
aI0
aI0
aI0
aI0
ag3
(g7
S'\xc1\xc0\xca\xceL\x1e\xcb?'
p447
tp448
Rp449
aI0
aI0
aI0
aI0
aI0
aI0
aI0
aI0
aI0
aI0
aI0
aI0
aI0
aI0
aI0
aI0
aI0
aI0
aI0
aI0
aI0
aI0
aI0
aI0
aI0
aI0
aI0
aI0
aI0
aI0
aI0
aI0
aI0
aI0
aI0
aI0
aI0
aI0
aI0
aI0
ag3
(g7
S'af\xd5\xf4\xd2u\n?'
p450
tp451
Rp452
aI0
aI0
aI0
aI0
aI0
aI0
aI0
aI0
aI0
aI0
ag3
(g7
S'r\x137\xdb\nb\xce?'
p453
tp454
Rp455
aI0
aI0
aI0
aI0
aI0
aI0
aI0
aI0
aI0
aI0
aI0
aI0
aI0
aI0
aI0
aI0
aI0
aI0
aI0
aI0
aI0
aI0
aI0
aI0
aI0
aI0
aI0
aI0
aI0
ag3
(g7
S'l\x98\x08@\xbd\xed$?'
p456
tp457
Rp458
aI0
aI0
aI0
aI0
aI0
aI0
aI0
ag3
(g7
S'\x90FF\xc4\x86\x99\x08?'
p459
tp460
Rp461
aI0
aI0
aI0
aI0
ag3
(g7
S'\x9e\xd5\xd6\xd947\xb8?'
p462
tp463
Rp464
aI0
aI0
aI0
aI0
aI0
aI0
aI0
aI0
aI0
aI0
aI0
aI0
aI0
aI0
aI0
ag3
(g7
S'\xdc@\x05\x02J\x80\xf9>'
p465
tp466
Rp467
aI0
aI0
ag3
(g7
S'\xe2W\xf4p^\xb8\xfb>'
p468
tp469
Rp470
aI0
aI0
aI0
aI0
aI0
aI0
aI0
aI0
aI0
aI0
aI0
aI0
aI0
aI0
aI0
aI0
aI0
aI0
aI0
aI0
aI0
aI0
aI0
aI0
aI0
aI0
aI0
aI0
aI0
aI0
aI0
aI0
aI0
ag3
(g7
S'HI]\xe1\x0e\xae\xcb?'
p471
tp472
Rp473
aI0
aI0
aI0
aI0
aI0
aI0
aI0
aI0
aI0
aI0
aI0
aI0
aI0
aI0
ag3
(g7
S'\xf7L\x82Q$j\x9e?'
p474
tp475
Rp476
aI0
aI0
aI0
aI0
aI0
aI0
aI0
aI0
aI0
aI0
aI0
aI0
aI0
aI0
ag3
(g7
S'\xaa\xabh\xa8\xf4\x1cB?'
p477
tp478
Rp479
aI0
aI0
aI0
aI0
aI0
aI0
aI0
aI0
aI0
aI0
aI0
aI0
aI0
aI0
aI0
aI0
aI0
aI0
aI0
aI0
aI0
aI0
aI0
aI0
aI0
asS'assemblage-5-29'
p480
(lp481
I0
aI0
aI0
aI0
aI0
aI0
aI0
aI0
aI0
aI0
aI0
aI0
aI0
ag3
(g7
S'\x1adk7\x98\xf1\r?'
p482
tp483
Rp484
aI0
aI0
aI0
aI0
aI0
aI0
aI0
aI0
aI0
aI0
aI0
aI0
aI0
aI0
aI0
aI0
aI0
aI0
aI0
aI0
aI0
aI0
aI0
aI0
aI0
aI0
aI0
aI0
ag3
(g7
S'\xd3\xfd?\xf6\x0e4\x85?'
p485
tp486
Rp487
aI0
aI0
aI0
aI0
aI0
aI0
aI0
aI0
aI0
aI0
aI0
aI0
aI0
aI0
aI0
aI0
aI0
aI0
aI0
aI0
aI0
aI0
aI0
aI0
aI0
aI0
aI0
aI0
aI0
aI0
aI0
aI0
aI0
aI0
aI0
aI0
aI0
aI0
aI0
aI0
aI0
aI0
aI0
aI0
aI0
aI0
aI0
aI0
aI0
aI0
aI0
aI0
aI0
aI0
aI0
aI0
aI0
aI0
aI0
aI0
aI0
aI0
aI0
aI0
aI0
aI0
aI0
aI0
aI0
aI0
aI0
aI0
aI0
aI0
aI0
aI0
aI0
aI0
aI0
aI0
aI0
aI0
aI0
aI0
aI0
aI0
aI0
aI0
aI0
aI0
aI0
aI0
aI0
aI0
aI0
aI0
aI0
ag3
(g7
S'\x0b\xa9\x91\xb7\xa0\x9d\xec?'
p488
tp489
Rp490
aI0
aI0
aI0
aI0
aI0
aI0
aI0
aI0
aI0
aI0
aI0
aI0
aI0
aI0
aI0
aI0
aI0
aI0
aI0
aI0
aI0
aI0
aI0
aI0
aI0
aI0
aI0
aI0
aI0
aI0
aI0
ag3
(g7
S'\x8e\xa5\xec\xbe\x13\x8b;?'
p491
tp492
Rp493
aI0
aI0
aI0
aI0
aI0
aI0
aI0
aI0
aI0
aI0
aI0
aI0
aI0
aI0
aI0
aI0
aI0
aI0
aI0
aI0
aI0
aI0
ag3
(g7
S'Ox\xb09\xa1)R?'
p494
tp495
Rp496
aI0
aI0
aI0
aI0
aI0
aI0
aI0
aI0
aI0
aI0
aI0
aI0
aI0
aI0
aI0
aI0
aI0
aI0
aI0
aI0
aI0
ag3
(g7
S'5\x0b?l\xb8\x9c\x16?'
p497
tp498
Rp499
aI0
aI0
aI0
aI0
aI0
aI0
aI0
aI0
aI0
aI0
aI0
aI0
aI0
aI0
aI0
aI0
aI0
aI0
aI0
aI0
aI0
aI0
aI0
aI0
ag3
(g7
S'D\xba\xda\x80\xbe\x81\xa6?'
p500
tp501
Rp502
aI0
aI0
aI0
aI0
aI0
aI0
aI0
aI0
aI0
aI0
aI0
aI0
aI0
aI0
aI0
aI0
aI0
aI0
aI0
aI0
aI0
ag3
(g7
S'\x96A\xd7"h<\x87?'
p503
tp504
Rp505
aI0
aI0
aI0
aI0
aI0
aI0
aI0
aI0
aI0
aI0
aI0
aI0
aI0
aI0
aI0
aI0
aI0
aI0
aI0
aI0
aI0
aI0
aI0
aI0
aI0
aI0
aI0
aI0
aI0
aI0
aI0
aI0
aI0
aI0
aI0
aI0
aI0
aI0
aI0
aI0
aI0
aI0
aI0
aI0
aI0
aI0
aI0
aI0
aI0
aI0
aI0
aI0
aI0
aI0
aI0
aI0
aI0
aI0
aI0
aI0
aI0
aI0
aI0
aI0
aI0
ag3
(g7
S'\xcf\x03\xef\xc2E\x0b(?'
p506
tp507
Rp508
aI0
aI0
aI0
aI0
aI0
aI0
aI0
aI0
aI0
aI0
aI0
ag3
(g7
S'6\xc0(\x05l\x0c4?'
p509
tp510
Rp511
aI0
aI0
aI0
aI0
aI0
aI0
aI0
aI0
aI0
aI0
aI0
aI0
aI0
aI0
aI0
aI0
aI0
ag3
(g7
S'+\x92\xc8\xfe&\xe7\xa3?'
p512
tp513
Rp514
aI0
aI0
aI0
aI0
aI0
aI0
ag3
(g7
S'\xb5\x1c\xe6\x86\xf3x\x0e?'
p515
tp516
Rp517
aI0
aI0
aI0
aI0
aI0
asS'assemblage-31-24'
p518
(lp519
I0
aI0
aI0
aI0
aI0
aI0
aI0
aI0
aI0
aI0
aI0
aI0
aI0
aI0
aI0
aI0
ag3
(g7
S'\x13\xef[a\x1a\xbc\x02?'
p520
tp521
Rp522
aI0
aI0
aI0
aI0
aI0
aI0
aI0
aI0
aI0
aI0
aI0
aI0
aI0
ag3
(g7
S'z\r\x9ez\xba\x9b\x04?'
p523
tp524
Rp525
aI0
aI0
aI0
aI0
aI0
aI0
aI0
aI0
ag3
(g7
S'\x84k\x18\xdcL3\x10?'
p526
tp527
Rp528
aI0
aI0
ag3
(g7
S'\xf3\xdc7s*\xf3\xaa?'
p529
tp530
Rp531
aI0
aI0
aI0
aI0
aI0
ag3
(g7
S'\xe7\xef\x14\xb3^r\x01?'
p532
tp533
Rp534
aI0
aI0
aI0
aI0
aI0
aI0
aI0
aI0
aI0
aI0
aI0
aI0
aI0
aI0
aI0
aI0
aI0
aI0
ag3
(g7
S'Bjg",w\x02?'
p535
tp536
Rp537
aI0
aI0
aI0
aI0
aI0
aI0
aI0
aI0
aI0
aI0
aI0
aI0
aI0
aI0
aI0
aI0
aI0
aI0
aI0
aI0
aI0
aI0
aI0
aI0
aI0
aI0
aI0
aI0
aI0
aI0
aI0
aI0
aI0
aI0
aI0
aI0
aI0
aI0
aI0
aI0
aI0
aI0
aI0
aI0
aI0
aI0
aI0
aI0
aI0
aI0
aI0
aI0
aI0
aI0
aI0
ag3
(g7
S'\x98-\xaf\xfd\xc8[\x05?'
p538
tp539
Rp540
aI0
aI0
aI0
aI0
aI0
aI0
aI0
aI0
aI0
aI0
aI0
aI0
aI0
aI0
aI0
aI0
ag3
(g7
S'\x17\x8bPtgT\xe4?'
p541
tp542
Rp543
aI0
aI0
aI0
aI0
aI0
aI0
aI0
aI0
aI0
aI0
aI0
aI0
aI0
aI0
aI0
aI0
aI0
aI0
aI0
aI0
aI0
aI0
aI0
aI0
aI0
aI0
aI0
aI0
aI0
aI0
aI0
aI0
aI0
aI0
aI0
aI0
aI0
aI0
aI0
aI0
aI0
aI0
aI0
ag3
(g7
S'Y\xae\t\xc4\xae\xa9D?'
p544
tp545
Rp546
aI0
aI0
aI0
aI0
aI0
aI0
aI0
aI0
aI0
ag3
(g7
S'\xdd\xa4\xb5\xd2W\x92\x10?'
p547
tp548
Rp549
aI0
aI0
aI0
aI0
aI0
aI0
aI0
aI0
aI0
aI0
aI0
aI0
aI0
aI0
aI0
aI0
aI0
aI0
aI0
aI0
ag3
(g7
S'j2\xd2i\x96\xa3\x04?'
p550
tp551
Rp552
ag3
(g7
S'\xfcDo\tB\r\x02?'
p553
tp554
Rp555
aI0
aI0
aI0
aI0
ag3
(g7
S'\xba\x8e\xc4\xca\x1f\x9e\xa7?'
p556
tp557
Rp558
aI0
aI0
ag3
(g7
S'%\x01\x00\xbfML+?'
p559
tp560
Rp561
aI0
aI0
aI0
aI0
aI0
ag3
(g7
S'\x96\xd1\x12\xeah|\x02?'
p562
tp563
Rp564
aI0
aI0
aI0
aI0
aI0
aI0
aI0
aI0
aI0
aI0
aI0
aI0
aI0
aI0
aI0
aI0
aI0
aI0
aI0
aI0
aI0
aI0
aI0
aI0
aI0
aI0
aI0
aI0
aI0
aI0
aI0
aI0
aI0
ag3
(g7
S'A\x9b\xca\xf1\xc8;\xa9?'
p565
tp566
Rp567
aI0
aI0
aI0
aI0
aI0
aI0
aI0
aI0
aI0
aI0
aI0
ag3
(g7
S'R\x8fX/\xe4&\xfe>'
p568
tp569
Rp570
aI0
aI0
aI0
aI0
aI0
ag3
(g7
S'\xa1\xcf\x9e\xb6e*\x19?'
p571
tp572
Rp573
aI0
aI0
aI0
aI0
aI0
aI0
aI0
aI0
aI0
aI0
aI0
aI0
aI0
aI0
aI0
aI0
aI0
aI0
aI0
aI0
aI0
aI0
aI0
aI0
aI0
aI0
aI0
aI0
aI0
aI0
aI0
aI0
aI0
aI0
aI0
aI0
aI0
aI0
aI0
aI0
aI0
aI0
aI0
aI0
aI0
aI0
aI0
aI0
aI0
aI0
aI0
aI0
aI0
aI0
aI0
aI0
aI0
aI0
aI0
aI0
aI0
aI0
aI0
aI0
aI0
aI0
aI0
aI0
aI0
aI0
aI0
aI0
aI0
aI0
aI0
aI0
aI0
ag3
(g7
S'\x08\xb9c\xa8}\xc8\xcb?'
p574
tp575
Rp576
aI0
aI0
aI0
aI0
aI0
aI0
aI0
aI0
aI0
aI0
aI0
aI0
as.