(dp0
S'assemblage-754-622'
p1
(lp2
I0
aI0
aI0
aI0
aI0
aI0
aI0
acnumpy.core.multiarray
scalar
p3
(cnumpy
dtype
p4
(S'f8'
p5
I0
I1
tp6
Rp7
(I3
S'<'
p8
NNNI-1
I-1
I0
tp9
bS'AF\t\xbc\x93\x18\xdf?'
p10
tp11
Rp12
aI0
aI0
aI0
aI0
ag3
(g7
S'\x7f\xf7\x08{\xf9\x84\x82?'
p13
tp14
Rp15
aI0
aI0
aI0
aI0
aI0
aI0
aI0
aI0
aI0
aI0
aI0
aI0
aI0
aI0
aI0
aI0
aI0
aI0
aI0
aI0
aI0
aI0
aI0
aI0
aI0
aI0
aI0
aI0
aI0
aI0
aI0
aI0
aI0
aI0
aI0
ag3
(g7
S' &M\x1d\xfc\xcf\xdc?'
p16
tp17
Rp18
aI0
aI0
aI0
aI0
aI0
aI0
aI0
aI0
aI0
aI0
aI0
aI0
aI0
aI0
aI0
aI0
aI0
aI0
ag3
(g7
S'p0e,\xa1\x9c\x82?'
p19
tp20
Rp21
aI0
aI0
aI0
aI0
aI0
aI0
aI0
aI0
aI0
aI0
aI0
aI0
aI0
ag3
(g7
S'\t>\x7f\x04l\x81\xa0?'
p22
tp23
Rp24
asS'assemblage-845-335'
p25
(lp26
I0
aI0
aI0
aI0
aI0
aI0
aI0
aI0
aI0
aI0
ag3
(g7
S'UV\xfc\x89(U\xd1?'
p27
tp28
Rp29
ag3
(g7
S'\x99\xd3\x8b\xfe\xe9\x9d\xd8?'
p30
tp31
Rp32
aI0
aI0
aI0
aI0
aI0
aI0
aI0
aI0
aI0
aI0
aI0
aI0
aI0
aI0
aI0
aI0
aI0
aI0
aI0
ag3
(g7
S'\xa7\x84\x8f\x8cV \x8b?'
p33
tp34
Rp35
aI0
ag3
(g7
S'\x9f!;\xb3\x0e?\xc6?'
p36
tp37
Rp38
aI0
aI0
aI0
aI0
aI0
aI0
ag3
(g7
S'|27t\xd1@\xa8?'
p39
tp40
Rp41
aI0
aI0
aI0
aI0
aI0
aI0
aI0
aI0
aI0
aI0
aI0
aI0
aI0
aI0
aI0
aI0
aI0
ag3
(g7
S'\xb1\xc0\xe7\xa1\xb1\x00\x90?'
p42
tp43
Rp44
aI0
aI0
aI0
aI0
aI0
aI0
aI0
aI0
aI0
aI0
aI0
aI0
aI0
aI0
aI0
aI0
aI0
aI0
ag3
(g7
S'\xcb\xbd,\xeb\x89\xf7\xa6?'
p45
tp46
Rp47
aI0
aI0
aI0
ag3
(g7
S'\xe5ZP8\x1e\xe0\x9e?'
p48
tp49
Rp50
asS'assemblage-695-482'
p51
(lp52
I0
aI0
aI0
aI0
aI0
aI0
aI0
aI0
aI0
aI0
aI0
aI0
aI0
ag3
(g7
S'\xbb20-\x13\x83\xb2?'
p53
tp54
Rp55
aI0
aI0
aI0
aI0
aI0
aI0
aI0
aI0
aI0
aI0
aI0
aI0
aI0
aI0
ag3
(g7
S'\xde\x1b\x1a\xe8\xc4\xd7\xe7?'
p56
tp57
Rp58
aI0
aI0
aI0
aI0
aI0
aI0
aI0
aI0
aI0
aI0
aI0
aI0
aI0
aI0
aI0
aI0
aI0
aI0
aI0
aI0
ag3
(g7
S'\xd5o\x0fy[B\x96?'
p59
tp60
Rp61
aI0
aI0
aI0
aI0
aI0
aI0
aI0
aI0
aI0
aI0
aI0
aI0
aI0
aI0
ag3
(g7
S'H\x9b\xaf\xfd\xba\xcd\xaf?'
p62
tp63
Rp64
aI0
aI0
aI0
aI0
aI0
aI0
aI0
aI0
aI0
ag3
(g7
S'\x97\xc2U\xdcu\xc1\xb0?'
p65
tp66
Rp67
aI0
aI0
aI0
aI0
aI0
aI0
ag3
(g7
S'e\x9cyJ\xc0\xbe\x94?'
p68
tp69
Rp70
asS'assemblage-294-696'
p71
(lp72
I0
aI0
aI0
aI0
aI0
aI0
aI0
aI0
aI0
aI0
ag3
(g7
S'\x9f\xa9\x83}\xc7\xaf\xd4?'
p73
tp74
Rp75
ag3
(g7
S'\x98\xd5\xd5\x90\xfe\xf7\xd6?'
p76
tp77
Rp78
aI0
aI0
aI0
aI0
aI0
aI0
aI0
aI0
aI0
aI0
aI0
aI0
aI0
aI0
aI0
aI0
aI0
aI0
aI0
ag3
(g7
S'\xa9-\x8c\xc0\x93\xa4\xa1?'
p79
tp80
Rp81
aI0
ag3
(g7
S'\xab\x81\xa5v9\x11\xc5?'
p82
tp83
Rp84
aI0
aI0
aI0
aI0
aI0
aI0
ag3
(g7
S"'nP\xf9\x83\xc4\xa5?"
p85
tp86
Rp87
aI0
aI0
aI0
aI0
aI0
aI0
aI0
aI0
aI0
aI0
aI0
aI0
aI0
aI0
aI0
aI0
aI0
aI0
aI0
aI0
aI0
aI0
aI0
aI0
aI0
aI0
aI0
aI0
aI0
aI0
aI0
aI0
aI0
aI0
aI0
aI0
ag3
(g7
S'\xcc\xce\xcd\xedb\x03\xa2?'
p88
tp89
Rp90
aI0
aI0
aI0
ag3
(g7
S'\xe0\xd2xM\xfe\xd2\x97?'
p91
tp92
Rp93
asS'assemblage-680-956'
p94
(lp95
I0
aI0
aI0
aI0
aI0
aI0
aI0
ag3
(g7
S'oD\x11\xb5\xae\xa8\xc0?'
p96
tp97
Rp98
ag3
(g7
S'\x08\xcb\r\xd4\t\xa6\x93?'
p99
tp100
Rp101
aI0
aI0
aI0
aI0
ag3
(g7
S'\xb0*\xa9\\\xcdQ\xc7?'
p102
tp103
Rp104
aI0
aI0
aI0
aI0
aI0
aI0
aI0
aI0
ag3
(g7
S':+\x03\xfa\xf5\xd1t?'
p105
tp106
Rp107
aI0
aI0
aI0
aI0
ag3
(g7
S'\xc9\x15\xc7\x1b\xbd\xf1\x91?'
p108
tp109
Rp110
ag3
(g7
S'DE\x91/\xf3P\xd0?'
p111
tp112
Rp113
aI0
aI0
aI0
aI0
aI0
aI0
aI0
aI0
aI0
aI0
aI0
aI0
aI0
aI0
aI0
aI0
aI0
aI0
aI0
ag3
(g7
S'B\x11\x18[?\x16\xbc?'
p114
tp115
Rp116
aI0
aI0
aI0
aI0
ag3
(g7
S'\t\xb0>\xd8h0\x8e?'
p117
tp118
Rp119
aI0
aI0
aI0
aI0
aI0
aI0
aI0
aI0
aI0
aI0
aI0
aI0
aI0
aI0
aI0
aI0
aI0
aI0
ag3
(g7
S'R\x90\x96\x8f\xee\x8b|?'
p120
tp121
Rp122
aI0
aI0
ag3
(g7
S'\x83\xfa\xf1u}\xea\xc4?'
p123
tp124
Rp125
aI0
aI0
aI0
aI0
aI0
ag3
(g7
S'\xe6Z<\xe5*\xa3\xb2?'
p126
tp127
Rp128
asS'assemblage-367-832'
p129
(lp130
I0
aI0
aI0
aI0
aI0
aI0
aI0
aI0
aI0
aI0
aI0
aI0
aI0
aI0
aI0
aI0
aI0
aI0
aI0
aI0
aI0
aI0
aI0
aI0
aI0
aI0
aI0
aI0
ag3
(g7
S'\xc1y\xffoy!\xab?'
p131
tp132
Rp133
aI0
aI0
aI0
aI0
aI0
aI0
aI0
aI0
aI0
aI0
aI0
aI0
aI0
aI0
aI0
ag3
(g7
S'\x11\x04\x0e\xd8M&\xa1?'
p134
tp135
Rp136
aI0
aI0
aI0
aI0
aI0
aI0
aI0
aI0
ag3
(g7
S'Y\xe9\xa2\xa0\x80,\xec?'
p137
tp138
Rp139
aI0
aI0
aI0
aI0
aI0
aI0
aI0
aI0
aI0
aI0
aI0
aI0
aI0
aI0
aI0
aI0
aI0
ag3
(g7
S'\x1ba\x1a(\x1f\xf4\x88?'
p140
tp141
Rp142
aI0
aI0
aI0
aI0
aI0
aI0
aI0
aI0
aI0
ag3
(g7
S'\x16\x90\xa7D;\xcd\x89?'
p143
tp144
Rp145
asS'assemblage-324-414'
p146
(lp147
I0
aI0
aI0
aI0
aI0
aI0
ag3
(g7
S'\x80\xbd\xc3\x06\x7f\xf8\xc4?'
p148
tp149
Rp150
aI0
aI0
aI0
aI0
aI0
aI0
ag3
(g7
S'\xd4m\xb7\x89N\x02\xc1?'
p151
tp152
Rp153
ag3
(g7
S'\xa3\xf2\x80F;m\xc4?'
p154
tp155
Rp156
aI0
aI0
aI0
aI0
ag3
(g7
S'\xdb\x1cp\x01\x10/\x8a?'
p157
tp158
Rp159
aI0
aI0
aI0
aI0
aI0
aI0
aI0
aI0
ag3
(g7
S'\x06\xe4F\xc9\xeb\x84\xb2?'
p160
tp161
Rp162
aI0
aI0
aI0
aI0
ag3
(g7
S'\xb7k!\xacf\xca\x9f?'
p163
tp164
Rp165
aI0
aI0
ag3
(g7
S'\x0c\x0cc\x91i\xa5\x9e?'
p166
tp167
Rp168
aI0
aI0
aI0
aI0
aI0
aI0
aI0
aI0
aI0
aI0
aI0
aI0
aI0
aI0
aI0
aI0
ag3
(g7
S'\xd1\xb9[\x07r\xff\xb1?'
p169
tp170
Rp171
aI0
aI0
aI0
aI0
aI0
aI0
aI0
aI0
aI0
ag3
(g7
S'\xd46B\xd0\xb7\xfe\xca?'
p172
tp173
Rp174
aI0
aI0
aI0
aI0
aI0
aI0
aI0
aI0
aI0
aI0
aI0
aI0
aI0
aI0
ag3
(g7
S'\xd5\xf2\x0f\xf9\xd7@\xa5?'
p175
tp176
Rp177
ag3
(g7
S'\xee5}\x05\x8f\xfa\x8d?'
p178
tp179
Rp180
aI0
ag3
(g7
S'L\xf76\xae\x1b\t\xa1?'
p181
tp182
Rp183
asS'assemblage-783-921'
p184
(lp185
I0
aI0
aI0
aI0
aI0
aI0
aI0
aI0
aI0
aI0
aI0
aI0
aI0
ag3
(g7
S'd\x1bl\x98\xbev\xe9?'
p186
tp187
Rp188
aI0
aI0
aI0
aI0
aI0
aI0
aI0
aI0
aI0
ag3
(g7
S'\xfd>\xcd2\xe6\xdc\xab?'
p189
tp190
Rp191
aI0
aI0
aI0
aI0
aI0
aI0
aI0
aI0
aI0
aI0
aI0
aI0
aI0
aI0
aI0
aI0
aI0
aI0
aI0
aI0
aI0
aI0
aI0
aI0
ag3
(g7
S'1d\xa8\xdeN\xd7\x9f?'
p192
tp193
Rp194
aI0
aI0
aI0
ag3
(g7
S'\xc2\xa6\x0f\x9d-}\xa6?'
p195
tp196
Rp197
aI0
aI0
aI0
aI0
aI0
aI0
aI0
aI0
aI0
aI0
aI0
aI0
aI0
aI0
aI0
aI0
aI0
aI0
aI0
aI0
aI0
aI0
aI0
aI0
aI0
aI0
aI0
aI0
ag3
(g7
S"\xc5UEM'c\xb0?"
p198
tp199
Rp200
asS'assemblage-593-138'
p201
(lp202
I0
aI0
aI0
aI0
aI0
aI0
aI0
aI0
aI0
aI0
aI0
aI0
aI0
aI0
aI0
aI0
aI0
aI0
aI0
aI0
aI0
aI0
aI0
aI0
aI0
aI0
aI0
aI0
ag3
(g7
S'\x18\x0c*\x05\xd5\xb3\x9c?'
p203
tp204
Rp205
aI0
aI0
aI0
aI0
ag3
(g7
S'G\xd5\xf4AC\xb8\xb5?'
p206
tp207
Rp208
aI0
aI0
aI0
aI0
aI0
aI0
aI0
aI0
aI0
aI0
aI0
aI0
aI0
aI0
aI0
aI0
aI0
aI0
aI0
ag3
(g7
S'l#`\x02\xb3\xdd\xd0?'
p209
tp210
Rp211
aI0
aI0
ag3
(g7
S'\xee\\T\x1bP_\x8d?'
p212
tp213
Rp214
aI0
aI0
aI0
aI0
aI0
aI0
aI0
ag3
(g7
S'\xe1K\x03(\xbeP\xe0?'
p215
tp216
Rp217
aI0
ag3
(g7
S'\x07\xc2\xeb\x9c]\xd8\xb0?'
p218
tp219
Rp220
aI0
aI0
aI0
aI0
aI0
aI0
aI0
aI0
aI0
aI0
aI0
aI0
aI0
aI0
ag3
(g7
S'\x8e\xbeA\x03HN\x91?'
p221
tp222
Rp223
asS'assemblage-672-973'
p224
(lp225
I0
aI0
aI0
aI0
aI0
aI0
aI0
aI0
aI0
aI0
aI0
aI0
aI0
ag3
(g7
S'\x15\xa1\xd6\x9f\xb1v\xec?'
p226
tp227
Rp228
aI0
aI0
aI0
aI0
aI0
aI0
aI0
aI0
aI0
aI0
aI0
aI0
ag3
(g7
S'\x0bx{\xea\xc4xu?'
p229
tp230
Rp231
ag3
(g7
S'\xbaO9\x01B\x17\xa6?'
p232
tp233
Rp234
aI0
aI0
ag3
(g7
S'\xc8\xb3\x05\x82\xdct\x91?'
p235
tp236
Rp237
aI0
aI0
aI0
aI0
aI0
aI0
aI0
aI0
aI0
aI0
aI0
aI0
aI0
aI0
aI0
aI0
aI0
aI0
aI0
aI0
aI0
aI0
aI0
aI0
aI0
aI0
aI0
aI0
aI0
aI0
ag3
(g7
S'\xd0ND\xbd\x93\xee\x81?'
p238
tp239
Rp240
aI0
aI0
aI0
aI0
aI0
aI0
aI0
aI0
aI0
aI0
aI0
aI0
aI0
aI0
aI0
aI0
aI0
aI0
aI0
ag3
(g7
S'\xa3\\\xb1\xc8G\xfe\x9b?'
p241
tp242
Rp243
asS'assemblage-659-328'
p244
(lp245
I0
aI0
aI0
aI0
aI0
aI0
aI0
aI0
aI0
aI0
aI0
aI0
aI0
ag3
(g7
S'\xebT\xf2\xa4R\xe0\xe8?'
p246
tp247
Rp248
aI0
aI0
aI0
aI0
aI0
aI0
aI0
aI0
aI0
ag3
(g7
S'z\xed\xa7\xe2f\x8e\xb1?'
p249
tp250
Rp251
aI0
aI0
aI0
aI0
aI0
aI0
aI0
aI0
aI0
aI0
aI0
aI0
aI0
aI0
aI0
aI0
aI0
aI0
aI0
aI0
aI0
aI0
aI0
aI0
ag3
(g7
S'\xd8\xa8\xb1\xcfl\xa2\xa8?'
p252
tp253
Rp254
aI0
aI0
aI0
ag3
(g7
S'$:\x08B\x95B\xa4?'
p255
tp256
Rp257
aI0
aI0
aI0
aI0
aI0
aI0
aI0
aI0
aI0
aI0
aI0
aI0
aI0
aI0
aI0
aI0
aI0
aI0
aI0
aI0
aI0
aI0
aI0
aI0
aI0
aI0
aI0
aI0
ag3
(g7
S'\xfco\x1b\xab\x7f\x02\xac?'
p258
tp259
Rp260
asS'assemblage-724-779'
p261
(lp262
I0
aI0
ag3
(g7
S'62@\xaf\xd0\xe8\x86?'
p263
tp264
Rp265
aI0
aI0
aI0
aI0
aI0
aI0
aI0
aI0
aI0
aI0
ag3
(g7
S'\n\x15\xf4Q\xc9\xbc\x91?'
p266
tp267
Rp268
aI0
aI0
aI0
aI0
aI0
aI0
aI0
aI0
aI0
aI0
aI0
aI0
aI0
aI0
ag3
(g7
S'\x0f\x87j\x1f\x04\xe0\xd9?'
p269
tp270
Rp271
aI0
aI0
aI0
aI0
aI0
aI0
aI0
aI0
aI0
aI0
aI0
aI0
aI0
aI0
aI0
aI0
aI0
aI0
aI0
ag3
(g7
S'\xdc\x92\xb8\xd97\xfa\xb8?'
p272
tp273
Rp274
aI0
aI0
aI0
aI0
ag3
(g7
S'\x8d\x8a\xf7\xef\x11\x13\x87?'
p275
tp276
Rp277
aI0
aI0
aI0
aI0
aI0
aI0
aI0
aI0
aI0
aI0
aI0
aI0
aI0
aI0
aI0
aI0
aI0
aI0
aI0
aI0
aI0
ag3
(g7
S'Q\xc1LBn\x06\xd5?'
p278
tp279
Rp280
aI0
aI0
aI0
aI0
ag3
(g7
S')=\x1f\\\\v\xb4?'
p281
tp282
Rp283
ag3
(g7
S'?B\x0c\xa0@\r\xa0?'
p284
tp285
Rp286
asS'assemblage-672-983'
p287
(lp288
I0
aI0
aI0
aI0
aI0
aI0
aI0
aI0
aI0
aI0
aI0
aI0
aI0
ag3
(g7
S'\xd0;\xcb6\xecd\xeb?'
p289
tp290
Rp291
aI0
aI0
aI0
aI0
aI0
aI0
aI0
aI0
aI0
aI0
aI0
aI0
aI0
ag3
(g7
S'\xb7S\xf4\x9fa\xb7\xac?'
p292
tp293
Rp294
aI0
aI0
ag3
(g7
S'\xfa\xfac\x0fp;\x9a?'
p295
tp296
Rp297
aI0
aI0
aI0
aI0
aI0
aI0
aI0
aI0
aI0
aI0
aI0
aI0
aI0
aI0
aI0
aI0
aI0
aI0
aI0
aI0
aI0
aI0
aI0
aI0
aI0
aI0
aI0
aI0
aI0
aI0
ag3
(g7
S'\xe5C\xde\x0f\x83\xda\x90?'
p298
tp299
Rp300
aI0
aI0
aI0
aI0
aI0
aI0
aI0
aI0
aI0
aI0
aI0
aI0
aI0
aI0
aI0
aI0
aI0
aI0
aI0
ag3
(g7
S'\xd8!$\xde\x0bu\xa2?'
p301
tp302
Rp303
asS'assemblage-541-439'
p304
(lp305
I0
aI0
aI0
aI0
aI0
aI0
aI0
aI0
aI0
aI0
aI0
aI0
aI0
aI0
aI0
aI0
aI0
aI0
aI0
aI0
aI0
aI0
aI0
aI0
aI0
aI0
aI0
aI0
ag3
(g7
S'V%,n\xfa?\x91?'
p306
tp307
Rp308
aI0
aI0
aI0
aI0
ag3
(g7
S'\x1d\x10*X}\xd5\xb1?'
p309
tp310
Rp311
aI0
aI0
aI0
aI0
aI0
aI0
aI0
aI0
aI0
aI0
aI0
aI0
aI0
aI0
aI0
aI0
aI0
aI0
aI0
ag3
(g7
S'#\x10\x98QZ\xa8\xd3?'
p312
tp313
Rp314
aI0
aI0
ag3
(g7
S'\xd8=T\xb6\xdd\xfc\x89?'
p315
tp316
Rp317
aI0
aI0
aI0
aI0
aI0
aI0
aI0
ag3
(g7
S'^jQ7;\x18\xdf?'
p318
tp319
Rp320
aI0
ag3
(g7
S'\xd4U\xa5\x88\x0b#\xb5?'
p321
tp322
Rp323
aI0
aI0
aI0
aI0
aI0
aI0
aI0
aI0
aI0
aI0
aI0
aI0
aI0
aI0
ag3
(g7
S'Z\xc4D\t\xd3\xc5\x83?'
p324
tp325
Rp326
asS'assemblage-322-394'
p327
(lp328
I0
aI0
aI0
aI0
aI0
aI0
aI0
aI0
aI0
aI0
aI0
aI0
aI0
ag3
(g7
S'K\xbd\xc51U\xa7\xb9?'
p329
tp330
Rp331
aI0
aI0
aI0
aI0
aI0
aI0
aI0
aI0
aI0
aI0
aI0
aI0
aI0
aI0
ag3
(g7
S'\x92\x03\xc0L\x1fz\xe5?'
p332
tp333
Rp334
aI0
aI0
aI0
aI0
aI0
aI0
aI0
aI0
aI0
aI0
aI0
aI0
aI0
aI0
aI0
aI0
aI0
aI0
aI0
aI0
ag3
(g7
S'}\xe0\xac[\xc9\x10\x9a?'
p335
tp336
Rp337
aI0
aI0
aI0
aI0
aI0
aI0
aI0
aI0
aI0
aI0
aI0
aI0
aI0
aI0
ag3
(g7
S'm\xa33\xba\xea\x97\xb4?'
p338
tp339
Rp340
aI0
aI0
aI0
aI0
aI0
aI0
aI0
aI0
aI0
ag3
(g7
S'\xeb1I\x81\t\t\xb9?'
p341
tp342
Rp343
aI0
aI0
aI0
aI0
aI0
aI0
ag3
(g7
S'\xb6\x05\xcf/\rD\x83?'
p344
tp345
Rp346
asS'assemblage-155-860'
p347
(lp348
I0
aI0
aI0
aI0
aI0
aI0
aI0
aI0
aI0
aI0
aI0
aI0
aI0
ag3
(g7
S'\xc8\xba\x17\x13\x83\x88\x91?'
p349
tp350
Rp351
aI0
aI0
aI0
aI0
aI0
aI0
aI0
aI0
aI0
aI0
aI0
aI0
aI0
aI0
ag3
(g7
S'0(\xb5:\xba\x9a\xe1?'
p352
tp353
Rp354
aI0
aI0
aI0
aI0
aI0
aI0
aI0
aI0
aI0
aI0
aI0
aI0
aI0
aI0
aI0
aI0
aI0
aI0
aI0
aI0
aI0
aI0
aI0
aI0
ag3
(g7
S'O1>\x04he\xd9?'
p355
tp356
Rp357
aI0
aI0
aI0
aI0
aI0
aI0
aI0
aI0
aI0
aI0
aI0
aI0
aI0
aI0
aI0
aI0
aI0
aI0
aI0
aI0
aI0
aI0
aI0
aI0
aI0
aI0
aI0
ag3
(g7
S'\xd9\xc5"\x1b\xc0\xdc\x98?'
p358
tp359
Rp360
as.