(dp0
S'assemblage-12-17'
p1
(lp2
S'assemblage-47-16'
p3
aS'assemblage-35-61'
p4
aS'assemblage-48-11'
p5
aS'assemblage-17-53'
p6
aS'assemblage-5-34'
p7
aS'assemblage-55-53'
p8
aS'assemblage-46-6'
p9
aS'assemblage-36-4'
p10
aS'assemblage-15-62'
p11
asg10
(lp12
g1
ag3
ag4
ag5
ag6
ag7
ag8
ag9
ag11
asg4
(lp13
g1
ag3
ag5
ag6
ag7
ag8
ag9
ag10
ag11
asg5
(lp14
g1
ag3
ag4
ag6
ag7
ag8
ag9
ag10
ag11
asg6
(lp15
g1
ag3
ag4
ag5
ag7
ag8
ag9
ag10
ag11
asg7
(lp16
g1
ag3
ag4
ag5
ag6
ag8
ag9
ag10
ag11
asg8
(lp17
g1
ag3
ag4
ag5
ag6
ag7
ag9
ag10
ag11
asg9
(lp18
g1
ag3
ag4
ag5
ag6
ag7
ag8
ag10
ag11
asg3
(lp19
g1
ag4
ag5
ag6
ag7
ag8
ag9
ag10
ag11
asg11
(lp20
g1
ag3
ag4
ag5
ag6
ag7
ag8
ag9
ag10
as.