ccopy_reg
_reconstructor
p0
(cnetworkx.classes.graph
Graph
p1
c__builtin__
object
p2
Ntp3
Rp4
(dp5
S'node'
p6
(dp7
S'assemblage-827-268'
p8
(dp9
S'name'
p10
g8
ssS'assemblage-953-254'
p11
(dp12
g10
g11
ssS'assemblage-553-456'
p13
(dp14
g10
g13
ssS'assemblage-838-264'
p15
(dp16
g10
g15
ssS'assemblage-521-457'
p17
(dp18
g10
g17
ssS'assemblage-838-232'
p19
(dp20
g10
g19
ssS'assemblage-314-250'
p21
(dp22
g10
g21
ssS'assemblage-372-680'
p23
(dp24
g10
g23
ssS'assemblage-183-759'
p25
(dp26
g10
g25
ssS'assemblage-567-336'
p27
(dp28
g10
g27
ssS'assemblage-397-360'
p29
(dp30
g10
g29
ssS'assemblage-876-854'
p31
(dp32
g10
g31
ssS'assemblage-387-349'
p33
(dp34
g10
g33
ssS'assemblage-576-679'
p35
(dp36
g10
g35
ssS'assemblage-560-348'
p37
(dp38
g10
g37
ssS'assemblage-773-185'
p39
(dp40
g10
g39
sssS'graph'
p41
(dp42
S'is_directed'
p43
I00
ssS'edge'
p44
(dp45
g8
(dp46
g11
(dp47
S'weight'
p48
S'MMMMMMMMMMMMMUMMMMMMMMMMMMMDMMUMMMMMMMMMMMMMMMMMMMMMMMMMMMMUMMMMMMMMMMMMMDMMUMMMMMDMMMDDMMMMMMMMMMMMMMMMMMUMMMDMMUMUMUU'
p49
ssg13
(dp50
g48
S'MMMMMMMMMMMMMMMUMMMMMMMMMMMDMMDMMUMMMMMMUMMMMMUMUUMMMMMMMMMMMUMMMMMMMMMMMDMMMMMMMMDMMDDDMMMMMMMUMMMMMMUMMMMMMMDUMMMMMDU'
p51
ssg15
(dp52
g48
S'MMMMMMMMMMMUMMMMMMMMUMMMMMMDMMUMMMMMMMMMMMMMMMMMMMMMMMMMMMMMMMMMMMMMMMMUMDMMUUMMMMDMMDDDUUMMMMMMMMMMMMMMMMMMMMDMMUMMMDU'
p53
ssg17
(dp54
g48
S'MMMMMMMMMMMMMMMUMMMMMMMMMMMDMMDMMUMMMMMMUMMMMMUMUUMMMMMMMMMMMUMMMMMMMMMMMDMMMMMMMMDMMDDDMMMMMMMUMMMMMMUMMMMMMMDUMMMMMDU'
p55
ssg19
(dp56
g48
S'MMMMMMMMMMMMMMMMMMMMMMMMMMMDMMMMMMMMMMMMMMMMMMMMMMMMMMMMMMMMMMMMMMMMMMMMMUMMMMMMMMUMMDDUMMMMMMMMMMMMMMMMMMMMMMMMMMMMMDD'
p57
ssg21
(dp58
g48
S'MMMMMMMMMMUMMMMMMMMMMMMMMMMDMMUMMMUMMMMMMMMMMMMMMMMMMMMMMMMMMMMMMMUMMMMMMDMMMMMMMMDMMDDDUMMMMMMMMMMMMMMMMMMMUMDMMUMUMDU'
p59
ssg23
(dp60
g48
S'MMMMMMMMMMMMMMMMMMMMMMMMMMMDMMUMMMMMMMMMMMMMMMMMMMMMMMMMMMMMMMMMMMMMMMMMMDMMMMMMMUDMMDDDMMMMMMUMUMMMMMUMMMMMMMDMMUMMMDU'
p61
ssg25
(dp62
g48
S'MMMMMMMMMMMMMMMMMMMMMMMMMMMDMMDUMMMUMUMMMUUMMMMMMMMMMMMMMMMMMMMMMMMMMMMUMDMMMMUMMMDUMDDDUMMMMMMMMUMMMMMMMMMUMMDMMMMMUDU'
p63
ssg27
(dp64
g48
S'MMMMMMMMMMMUMMMMMMMMUMMMMMMDMMUMMMMMMMMMMMMMMMMMMMMMMMMMMMMMMMMMMMMMMMMUMDMMUUMMMMDMMDDDUUMMMMMMMMMMMMMMMMMMMMDMMUMMMDU'
p65
ssg29
(dp66
g48
S'MMUMMMMMMMMMMUMMMMMMMMMMMMUDMMUMMMMMMMMMMMMMMMMMUMMMMMMMMMMMMMMMUMMMMMUMMDMMMMMMMMDMMDDDMMMMMMUMMMMMMMUMMMMMMMDMMMMMMDU'
p67
ssg31
(dp68
g48
S'MMMMMMUMMMMMMMMMMUMMMMMMMMMDMMUMMMUMMMMMMMMMMMMMMMMMMMMMMMMMMMMMMMMMMMMMMUMMMMUMMMDMMDDDMMMMMMMMMMMMMMMMMMMMMMUMMMMMMDU'
p69
ssg33
(dp70
g48
S'MMUMMMMMMMMMMMMMMMMMMMMMMMUDMMUMMMMMMMMMMMMMMMMMMMUMMMMMMMUMUMMMUMMMMMUMMDMMMMMMMMDMMDDDMMMMMMMMMMMMMMUMMMMMMUDMMUMMMDU'
p71
ssg35
(dp72
g48
S'MMMMMMMMMUMMMMMMMMMMMMMMMMMDMMUMMMMMMMMMMMMMMMMMMMMMMMMMMMMUMMMMMMMMMMMMMDMMUMMMMUDMUDDDMMMUMMMMMMMMMMMMMMMMMMDMMUMUMDU'
p73
ssg37
(dp74
g48
S'MMMMMMMMMMUMMMMMMMMMMMMMMMMDMMUMMMUMMMMMMMMMMMMMMMMMMMMMMMMMMMMMMMUMMMMMMDMMMMMMMMDMMDDDUMMMMMMMMMMMMMMMMMMMUMDMMUMUMDM'
p75
ssg39
(dp76
g48
S'MMMMMMMMMMMMMMMMMMMMMMMUMMMDMMDMMUMMMMMMMMMMMMMMMMUMMMMMMMMMMMMMMMMMUMUMMDMUMMMMMMDMMDDDMMUMMMMMMMMMMMUMMMMMMMDMMMMMMDU'
p77
sssg11
(dp78
g8
g47
sg13
(dp79
g48
S'MMMMMMMMMMMMMUMDMMMMMMMMMMMMMMUMMDMMMMMMDMMMMMDMDDMMMMMMMMMUMDMMMMMMMMMMMMMMUMMMMMMMMUMUMMMMMMMDMMMMMMDMMMUMMMMDMUMUMUU'
p80
ssg15
(dp81
g48
S'MMMMMMMMMMMDMUMMMMMMDMMMMMMMMMUMMMMMMMMMMMMMMMMMMMMMMMMMMMMUMMMMMMMMMMMDMMMMDDMMMMMMMUMUDDMMMMMMMMMMMMMMMMUMMMMMMUMUMUU'
p82
ssg17
(dp83
g48
S'MMMMMMMMMMMMMDMUMMMMMMMMMMMMMMDMMUMMMMMMUMMMMMUMUUMMMMMMMMMDMUMMMMMMMMMMMMMMDMMMMMMMMDMDMMMMMMMUMMMMMMUMMMDMMMMUMDMDMDD'
p84
ssg19
(dp85
g48
S'MMMMMMMMMMMMMUMMMMMMMMMMMMMDMMUMMMMMMMMMMMMMMMMMMMMMMMMMMMMUMMMMMMMMMMMMMDMMUMMMMMDMMUDDMMMMMMMMMMMMMMMMMMUMMMDMMUMUMUU'
p86
ssg21
(dp87
g48
S'MMMMMMMMMMUMMDMMMMMMMMMMMMMMMMUMMMUMMMMMMMMMMMMMMMMMMMMMMMMDMMMMMMUMMMMMMMMMDMMMMMMMMDMDUMMMMMMMMMMMMMMMMMDMUMMMMDMUMDD'
p88
ssg23
(dp89
g48
S'MMMMMMMMMMMMMDMMMMMMMMMMMMMMMMUMMMMMMMMMMMMMMMMMMMMMMMMMMMMDMMMMMMMMMMMMMMMMDMMMMUMMMDMDMMMMMMUMUMMMMMUMMMDMMMMMMUMDMDD'
p90
ssg25
(dp91
g48
S'MMMMMMMMMMMMMDMMMMMMMMMMMMMMMMDUMMMUMUMMMUUMMMMMMMMMMMMMMMMDMMMMMMMMMMMUMMMMDMUMMMMUMDUDUMMMMMMMMUMMMMMMMMDUMMMMMDMDUDD'
p92
ssg27
(dp93
g48
S'MMMMMMMMMMMUMDMMMMMMUMMMMMMMMMDMMMMMMMMMMMMMMMMMMMMMMMMMMMMDMMMMMMMMMMMUMMMMUUMMMMMMMDMDUUMMMMMMMMMMMMMMMMDMMMMMMDMDMDD'
p94
ssg29
(dp95
g48
S'MMDMMMMMMMMMMMMMMMMMMMMMMMDMMMUMMMMMMMMMMMMMMMMMDMMMMMMMMMMUMMMMDMMMMMDMMMMMUMMMMMMMMUMUMMMMMMDMMMMMMMDMMMUMMMMMMUMUMUU'
p96
ssg31
(dp97
g48
S'MMMMMMUMMMMMMDMMMUMMMMMMMMMMMMUMMMUMMMMMMMMMMMMMMMMMMMMMMMMDMMMMMMMMMMMMMUMMDMUMMMMMMDMDMMMMMMMMMMMMMMMMMMDMMMUMMDMDMDD'
p98
ssg33
(dp99
g48
S'MMUMMMMMMMMMMDMMMMMMMMMMMMUMMMUMMMMMMMMMMMMMMMMMMMUMMMMMMMUDUMMMUMMMMMUMMMMMDMMMMMMMMDMDMMMMMMMMMMMMMMUMMMDMMUMMMDMDMDD'
p100
ssg35
(dp101
g48
S'MMMMMMMMMUMMMDMMMMMMMMMMMMMMMMDMMMMMMMMMMMMMMMMMMMMMMMMMMMMDMMMMMMMMMMMMMMMMUMMMMUMMUDMDMMMUMMMMMMMMMMMMMMDMMMMMMUMUMDD'
p102
ssg37
(dp103
g48
S'MMMMMMMMMMUMMDMMMMMMMMMMMMMMMMUMMMUMMMMMMMMMMMMMMMMMMMMMMMMDMMMMMMUMMMMMMMMMDMMMMMMMMDMDUMMMMMMMMMMMMMMMMMDMUMMMMDMUMDD'
p104
ssg39
(dp105
g48
S'MMMMMMMMMMMMMDMMMMMMMMMUMMMMMMDMMUMMMMMMMMMMMMMMMMUMMMMMMMMDMMMMMMMMUMUMMMMUDMMMMMMMMDMDMMUMMMMMMMMMMMUMMMDMMMMMMDMDMDD'
p106
sssg13
(dp107
g8
g50
sg11
g79
sg15
(dp108
g48
S'MMMMMMMMMMMUMMMDMMMMUMMMMMMMMMUMMDMMMMMMDMMMMMDMDDMMMMMMMMMMMDMMMMMMMMMUMMMMUUMMMMMMMMMMUUMMMMMDMMMMMMDMMMMMMMMDMUMMMMD'
p109
ssg17
(dp110
g48
S'MMMMMMMMMMMMMMMMMMMMMMMMMMMMMMMMMUMMMMMMUMMMMMDMUDMMMMMMMMMMMDMMMMMMMMMMMMMMMMMMMMMMMMMMMMMMMMMUMMMMMMMMMMMMMMMUMMMMMMD'
p111
ssg19
(dp112
g48
S'MMMMMMMMMMMMMMMUMMMMMMMMMMMDMMDMMUMMMMMMUMMMMMUMUUMMMMMMMMMMMUMMMMMMMMMMMDMMMMMMMMDMMDDDMMMMMMMUMMMMMMUMMMMMMMDUMMMMMDU'
p113
ssg21
(dp114
g48
S'MMMMMMMMMMUMMMMDMMMMMMMMMMMMMMUMMDUMMMMMDMMMMMDMDDMMMMMMMMMMMDMMMMUMMMMMMMMMMMMMMMMMMMMMUMMMMMMDMMMMMMDMMMMMUMMDMUMUMUD'
p115
ssg23
(dp116
g48
S'MMMMMMMMMMMMMMMDMMMMMMMMMMMMMMUMMDMMMMMMDMMMMMDMDDMMMMMMMMMMMDMMMMMMMMMMMMMMMMMMMUMMMMMMMMMMMMUDUMMMMMDMMMMMMMMDMUMMMMD'
p117
ssg25
(dp118
g48
S'MMMMMMMMMMMMMMMDMMMMMMMMMMMMMMUUMDMUMUMMDUUMMMDMDDMMMMMMMMMMMDMMMMMMMMMUMMMMMMUMMMMUMMUMUMMMMMMDMUMMMMDMMMMUMMMDMMMMUMD'
p119
ssg27
(dp120
g48
S'MMMMMMMMMMMUMMMDMMMMUMMMMMMMMMUMMDMMMMMMDMMMMMDMDDMMMMMMMMMMMDMMMMMMMMMUMMMMUUMMMMMMMMMMUUMMMMMDMMMMMMDMMMMMMMMDMUMMMMD'
p121
ssg29
(dp122
g48
S'MMUMMMMMMMMMMUMDMMMMMMMMMMUMMMUMMDMMMMMMDMMMMMDMDDMMMMMMMMMMMDMMUMMMMMUMMMMMMMMMMMMMMMMMMMMMMMUDMMMMMMUMMMMMMMMDMMMMMMD'
p123
ssg31
(dp124
g48
S'MMMMMMUMMMMMMMMDMUMMMMMMMMMMMMUMMDUMMMMMDMMMMMDMDDMMMMMMMMMMMDMMMMMMMMMMMUMMMMUMMMMMMMMMMMMMMMMDMMMMMMDMMMMMMMUDMMMMMMD'
p125
ssg33
(dp126
g48
S'MMUMMMMMMMMMMMMDMMMMMMMMMMUMMMUMMDMMMMMMDMMMMMDMDDUMMMMMMMUMUDMMUMMMMMUMMMMMMMMMMMMMMMMMMMMMMMMDMMMMMMDMMMMMMUMDMUMMMMD'
p127
ssg35
(dp128
g48
S'MMMMMMMMMUMMMMMDMMMMMMMMMMMMMMUMMDMMMMMMDMMMMMDMDDMMMMMMMMMUMDMMMMMMMMMMMMMMUMMMMUMMUMMMMMMUMMMDMMMMMMDMMMMMMMMDMUMUMMD'
p129
ssg37
(dp130
g48
S'MMMMMMMMMMUMMMMDMMMMMMMMMMMMMMUMMDUMMMMMDMMMMMDMDDMMMMMMMMMMMDMMMMUMMMMMMMMMMMMMMMMMMMMMUMMMMMMDMMMMMMDMMMMMUMMDMUMUMUD'
p131
ssg39
(dp132
g48
S'MMMMMMMMMMMMMMMDMMMMMMMUMMMMMMMMMDMMMMMMDMMMMMDMDDUMMMMMMMMMMDMMMMMMUMUMMMMUMMMMMMMMMMMMMMUMMMMDMMMMMMUMMMMMMMMDMMMMMMD'
p133
sssg15
(dp134
g8
g52
sg11
g81
sg13
g108
sg17
(dp135
g48
S'MMMMMMMMMMMDMMMUMMMMDMMMMMMMMMDMMUMMMMMMUMMMMMUMUUMMMMMMMMMMMUMMMMMMMMMDMMMMDDMMMMMMMMMMDDMMMMMUMMMMMMUMMMMMMMMUMDMMMMU'
p136
ssg19
(dp137
g48
S'MMMMMMMMMMMUMMMMMMMMUMMMMMMDMMUMMMMMMMMMMMMMMMMMMMMMMMMMMMMMMMMMMMMMMMMUMDMMUUMMMMDMMDDDUUMMMMMMMMMMMMMMMMMMMMDMMUMMMDU'
p138
ssg21
(dp139
g48
S'MMMMMMMMMMUDMMMMMMMMDMMMMMMMMMUMMMUMMMMMMMMMMMMMMMMMMMMMMMMMMMMMMMUMMMMDMMMMDDMMMMMMMMMMDDMMMMMMMMMMMMMMMMMMUMMMMMMUMUU'
p140
ssg23
(dp141
g48
S'MMMMMMMMMMMDMMMMMMMMDMMMMMMMMMUMMMMMMMMMMMMMMMMMMMMMMMMMMMMMMMMMMMMMMMMDMMMMDDMMMUMMMMMMDDMMMMUMUMMMMMUMMMMMMMMMMUMMMMU'
p142
ssg25
(dp143
g48
S'MMMMMMMMMMMDMMMMMMMMDMMMMMMMMMDUMMMUMUMMMUUMMMMMMMMMMMMMMMMMMMMMMMMMMMMDMMMMDDUMMMMUMMUMDDMMMMMMMUMMMMMMMMMUMMMMMDMMUMU'
p144
ssg27
(dp145
g48
S'MMMMMMMMMMMDMMMMMMMMDMMMMMMMMMUMMMMMMMMMMMMMMMMMMMMMMMMMMMMMMMMMMMMMMMMMMMMMMDMMMMMMMMMMMDMMMMMMMMMMMMMMMMMMMMMMMMMMMMU'
p146
ssg29
(dp147
g48
S'MMUMMMMMMMMDMUMMMMMMDMMMMMUMMMUMMMMMMMMMMMMMMMMMUMMMMMMMMMMMMMMMUMMMMMUDMMMMDDMMMMMMMMMMDDMMMMUMMMMMMMUMMMMMMMMMMDMMMMU'
p148
ssg31
(dp149
g48
S'MMMMMMUMMMMDMMMMMUMMDMMMMMMMMMUMMMUMMMMMMMMMMMMMMMMMMMMMMMMMMMMMMMMMMMMDMUMMDDUMMMMMMMMMDDMMMMMMMMMMMMMMMMMMMMUMMDMMMMU'
p150
ssg33
(dp151
g48
S'MMUMMMMMMMMDMMMMMMMMDMMMMMUMMMUMMMMMMMMMMMMMMMMMMMUMMMMMMMUMUMMMUMMMMMUDMMMMDDMMMMMMMMMMDDMMMMMMMMMMMMUMMMMMMUMMMDMMMMU'
p152
ssg35
(dp153
g48
S'MMMMMMMMMUMDMMMMMMMMDMMMMMMMMMUMMMMMMMMMMMMMMMMMMMMMMMMMMMMUMMMMMMMMMMMDMMMMMDMMMUMMUMMMDDMUMMMMMMMMMMMMMMMMMMMMMUMUMMM'
p154
ssg37
(dp155
g48
S'MMMMMMMMMMUDMMMMMMMMDMMMMMMMMMUMMMUMMMMMMMMMMMMMMMMMMMMMMMMMMMMMMMUMMMMDMMMMDDMMMMMMMMMMDDMMMMMMMMMMMMMMMMMMUMMMMDMUMUD'
p156
ssg39
(dp157
g48
S'MMMMMMMMMMMDMMMMMMMMDMMUMMMMMMDMMUMMMMMMMMMMMMMMMMUMMMMMMMMMMMMMMMMMUMUDMMMUDDMMMMMMMMMMDDUMMMMMMMMMMMUMMMMMMMMMMDMMMMU'
p158
sssg17
(dp159
g8
g54
sg11
g83
sg13
g110
sg15
g135
sg19
(dp160
g48
S'MMMMMMMMMMMMMMMUMMMMMMMMMMMDMMDMMUMMMMMMUMMMMMUMUUMMMMMMMMMMMUMMMMMMMMMMMDMMMMMMMMDMMDDDMMMMMMMUMMMMMMUMMMMMMMDUMMMMMDU'
p161
ssg21
(dp162
g48
S'MMMMMMMMMMDMMMMUMMMMMMMMMMMMMMDMMUDMMMMMUMMMMMUMUUMMMMMMMMMMMUMMMMDMMMMMMMMMMMMMMMMMMMMMDMMMMMMUMMMMMMUMMMMMDMMUMDMDMDM'
p163
ssg23
(dp164
g48
S'MMMMMMMMMMMMMMMUMMMMMMMMMMMMMMDMMUMMMMMMUMMMMMUMUUMMMMMMMMMMMUMMMMMMMMMMMMMMMMMMMDMMMMMMMMMMMMDUDMMMMMUMMMMMMMMUMDMMMMD'
p165
ssg25
(dp166
g48
S'MMMMMMMMMMMMMMMUMMMMMMMMMMMMMMDDMUMDMDMMUDDMMMUMUUMMMMMMMMMMMUMMMMMMMMMDMMMMMMDMMMMDMMDMDMMMMMMUMDMMMMUMMMMDMMMUMMMMDMM'
p167
ssg27
(dp168
g48
S'MMMMMMMMMMMDMMMUMMMMDMMMMMMMMMDMMUMMMMMMUMMMMMUMUUMMMMMMMMMMMUMMMMMMMMMDMMMMDDMMMMMMMMMMDDMMMMMUMMMMMMUMMMMMMMMUMDMMMMM'
p169
ssg29
(dp170
g48
S'MMDMMMMMMMMMMDMUMMMMMMMMMMDMMMDMMUMMMMMMUMMMMMUMUUMMMMMMMMMMMUMMDMMMMMDMMMMMMMMMMMMMMMMMMMMMMMDUMMMMMMDMMMMMMMMUMMMMMMD'
p171
ssg31
(dp172
g48
S'MMMMMMUMMMMMMMMDMUMMMMMMMMMMMMUMMDUMMMMMDMMMMMDMDDMMMMMMMMMMMDMMMMMMMMMMMUMMMMUMMMMMMMMMMMMMMMMDMMMMMMDMMMMMMMUDMMMMMMU'
p173
ssg33
(dp174
g48
S'MMUMMMMMMMMMMMMDMMMMMMMMMMUMMMUMMDMMMMMMDMMMMMDMDDUMMMMMMMUMUDMMUMMMMMUMMMMMMMMMMMMMMMMMMMMMMMMDMMMMMMDMMMMMMUMDMUMMMMM'
p175
ssg35
(dp176
g48
S'MMMMMMMMMUMMMMMDMMMMMMMMMMMMMMUMMDMMMMMMDMMMMMDMDDMMMMMMMMMUMDMMMMMMMMMMMMMMUMMMMUMMUMMMMMMUMMMDMMMMMMDMMMMMMMMDMUMUMMD'
p177
ssg37
(dp178
g48
S'MMMMMMMMMMUMMMMDMMMMMMMMMMMMMMUMMDUMMMMMDMMMMMDMDDMMMMMMMMMMMDMMMMUMMMMMMMMMMMMMMMMMMMMMUMMMMMMDMMMMMMDMMMMMUMMDMUMUMUD'
p179
ssg39
(dp180
g48
S'MMMMMMMMMMMMMMMDMMMMMMMUMMMMMMMMMDMMMMMMDMMMMMDMDDUMMMMMMMMMMDMMMMMMUMUMMMMUMMMMMMMMMMMMMMUMMMMDMMMMMMUMMMMMMMMDMMMMMMM'
p181
sssg19
(dp182
g8
g56
sg13
g112
sg15
g137
sg17
g160
sg11
g85
sg21
(dp183
g48
S'MMMMMMMMMMUMMMMMMMMMMMMMMMMDMMUMMMUMMMMMMMMMMMMMMMMMMMMMMMMMMMMMMMUMMMMMMDMMMMMMMMDMMDDDUMMMMMMMMMMMMMMMMMMMUMDMMUMUMDU'
p184
ssg23
(dp185
g48
S'MMMMMMMMMMMMMMMMMMMMMMMMMMMDMMUMMMMMMMMMMMMMMMMMMMMMMMMMMMMMMMMMMMMMMMMMMDMMMMMMMUDMMDDDMMMMMMUMUMMMMMUMMMMMMMDMMUMMMDU'
p186
ssg25
(dp187
g48
S'MMMMMMMMMMMMMMMMMMMMMMMMMMMDMMDUMMMUMUMMMUUMMMMMMMMMMMMMMMMMMMMMMMMMMMMUMDMMMMUMMMDUMDDDUMMMMMMMMUMMMMMMMMMUMMDMMMMMUDU'
p188
ssg27
(dp189
g48
S'MMMMMMMMMMMUMMMMMMMMUMMMMMMDMMUMMMMMMMMMMMMMMMMMMMMMMMMMMMMMMMMMMMMMMMMUMDMMUUMMMMDMMDDDUUMMMMMMMMMMMMMMMMMMMMDMMUMMMDU'
p190
ssg29
(dp191
g48
S'MMUMMMMMMMMMMUMMMMMMMMMMMMUDMMUMMMMMMMMMMMMMMMMMUMMMMMMMMMMMMMMMUMMMMMUMMDMMMMMMMMDMMDDDMMMMMMUMMMMMMMUMMMMMMMDMMMMMMDU'
p192
ssg31
(dp193
g48
S'MMMMMMUMMMMMMMMMMUMMMMMMMMMDMMUMMMUMMMMMMMMMMMMMMMMMMMMMMMMMMMMMMMMMMMMMMUMMMMUMMMDMMDDDMMMMMMMMMMMMMMMMMMMMMMUMMMMMMDU'
p194
ssg33
(dp195
g48
S'MMUMMMMMMMMMMMMMMMMMMMMMMMUDMMUMMMMMMMMMMMMMMMMMMMUMMMMMMMUMUMMMUMMMMMUMMDMMMMMMMMDMMDDDMMMMMMMMMMMMMMUMMMMMMUDMMUMMMDU'
p196
ssg35
(dp197
g48
S'MMMMMMMMMUMMMMMMMMMMMMMMMMMDMMUMMMMMMMMMMMMMMMMMMMMMMMMMMMMUMMMMMMMMMMMMMDMMUMMMMUDMUDDDMMMUMMMMMMMMMMMMMMMMMMDMMUMUMDU'
p198
ssg37
(dp199
g48
S'MMMMMMMMMMUMMMMMMMMMMMMMMMMDMMUMMMUMMMMMMMMMMMMMMMMMMMMMMMMMMMMMMMUMMMMMMDMMMMMMMMDMMDDDUMMMMMMMMMMMMMMMMMMMUMDMMUMUMDM'
p200
ssg39
(dp201
g48
S'MMMMMMMMMMMMMMMMMMMMMMMUMMMDMMDMMUMMMMMMMMMMMMMMMMUMMMMMMMMMMMMMMMMMUMUMMDMUMMMMMMDMMDDDMMUMMMMMMMMMMMUMMMMMMMDMMMMMMDU'
p202
sssg21
(dp203
g8
g58
sg11
g87
sg13
g114
sg15
g139
sg17
g162
sg19
g183
sg23
(dp204
g48
S'MMMMMMMMMMDMMMMMMMMMMMMMMMMMMMDMMMDMMMMMMMMMMMMMMMMMMMMMMMMMMMMMMMDMMMMMMMMMMMMMMUMMMMMMDMMMMMUMUMMMMMUMMMMMDMMMMUMDMDU'
p205
ssg25
(dp206
g48
S'MMMMMMMMMMDMMMMMMMMMMMMMMMMMMMDUMMDUMUMMMUUMMMMMMMMMMMMMMMMMMMMMMMDMMMMUMMMMMMUMMMMUMMUMUMMMMMMMMUMMMMMMMMMUDMMMMDMDUDM'
p207
ssg27
(dp208
g48
S'MMMMMMMMMMDUMMMMMMMMUMMMMMMMMMDMMMDMMMMMMMMMMMMMMMMMMMMMMMMMMMMMMMDMMMMUMMMMUUMMMMMMMMMMUUMMMMMMMMMMMMMMMMMMDMMMMMMDMDU'
p209
ssg29
(dp210
g48
S'MMDMMMMMMMUMMDMMMMMMMMMMMMDMMMUMMMUMMMMMMMMMMMMMDMMMMMMMMMMMMMMMDMUMMMDMMMMMMMMMMMMMMMMMUMMMMMDMMMMMMMDMMMMMUMMMMUMUMUD'
p211
ssg31
(dp212
g48
S'MMMMMMUMMMDMMMMMMUMMMMMMMMMMMMUMMMDMMMMMMMMMMMMMMMMMMMMMMMMMMMMMMMDMMMMMMUMMMMUMMMMMMMMMDMMMMMMMMMMMMMMMMMMMDMUMMDMDMDU'
p213
ssg33
(dp214
g48
S'MMUMMMMMMMDMMMMMMMMMMMMMMMUMMMUMMMDMMMMMMMMMMMMMMMUMMMMMMMUMUMMMUMDMMMUMMMMMMMMMMMMMMMMMDMMMMMMMMMMMMMUMMMMMDUMMMDMDMDU'
p215
ssg35
(dp216
g48
S'MMMMMMMMMUDMMMMMMMMMMMMMMMMMMMDMMMDMMMMMMMMMMMMMMMMMMMMMMMMUMMMMMMDMMMMMMMMMUMMMMUMMUMMMDMMUMMMMMMMMMMMMMMMMDMMMMUMUMDM'
p217
ssg37
(dp218
g48
S'MMMMMMMMMMUMMMMMMMMMMMMMMMMMMMDMMMMMMMMMMMMMMMMMMMMMMMMMMMMMMMMMMMUMMMMMMMMMMMMMMMMMMMMMUMMMMMMMMMMMMMMMMMMMMMMMMDMMMUD'
p219
ssg39
(dp220
g48
S'MMMMMMMMMMDMMMMMMMMMMMMUMMMMMMDMMUDMMMMMMMMMMMMMMMUMMMMMMMMMMMMMMMDMUMUMMMMUMMMMMMMMMMMMDMUMMMMMMMMMMMUMMMMMDMMMMDMDMDM'
p221
sssg23
(dp222
g8
g60
sg11
g89
sg13
g116
sg15
g141
sg17
g164
sg19
g185
sg21
g204
sg25
(dp223
g48
S'MMMMMMMMMMMMMMMMMMMMMMMMMMMMMMDUMMMUMUMMMUUMMMMMMMMMMMMMMMMMMMMMMMMMMMMUMMMMMMUMMDMUMMUMUMMMMMDMDUMMMMDMMMMUMMMMMDMMUMD'
p224
ssg27
(dp225
g48
S'MMMMMMMMMMMUMMMMMMMMUMMMMMMMMMDMMMMMMMMMMMMMMMMMMMMMMMMMMMMMMMMMMMMMMMMUMMMMUUMMMDMMMMMMUUMMMMDMDMMMMMDMMMMMMMMMMDMMMMM'
p226
ssg29
(dp227
g48
S'MMDMMMMMMMMMMDMMMMMMMMMMMMDMMMUMMMMMMMMMMMMMMMMMDMMMMMMMMMMMMMMMDMMMMMDMMMMMMMMMMUMMMMMMMMMMMMUMUMMMMMDMMMMMMMMMMUMMMMD'
p228
ssg31
(dp229
g48
S'MMMMMMUMMMMMMMMMMUMMMMMMMMMMMMUMMMUMMMMMMMMMMMMMMMMMMMMMMMMMMMMMMMMMMMMMMUMMMMUMMDMMMMMMMMMMMMDMDMMMMMDMMMMMMMUMMDMMMMU'
p230
ssg33
(dp231
g48
S'MMUMMMMMMMMMMMMMMMMMMMMMMMUMMMUMMMMMMMMMMMMMMMMMMMUMMMMMMMUMUMMMUMMMMMUMMMMMMMMMMDMMMMMMMMMMMMDMDMMMMMDMMMMMMUMMMDMMMMM'
p232
ssg35
(dp233
g48
S'MMMMMMMMMUMMMMMMMMMMMMMMMMMMMMDMMMMMMMMMMMMMMMMMMMMMMMMMMMMUMMMMMMMMMMMMMMMMUMMMMDMMUMMMMMMUMMDMDMMMMMDMMMMMMMMMMDMUMMD'
p234
ssg37
(dp235
g48
S'MMMMMMMMMMUMMMMMMMMMMMMMMMMMMMUMMMUMMMMMMMMMMMMMMMMMMMMMMMMMMMMMMMUMMMMMMMMMMMMMMDMMMMMMUMMMMMDMDMMMMMDMMMMMUMMMMDMUMUD'
p236
ssg39
(dp237
g48
S'MMMMMMMMMMMMMMMMMMMMMMMUMMMMMMDMMUMMMMMMMMMMMMMMMMUMMMMMMMMMMMMMMMMMUMUMMMMUMMMMMDMMMMMMMMUMMMDMDMMMMMUMMMMMMMMMMDMMMMD'
p238
sssg25
(dp239
g8
g62
sg11
g91
sg13
g118
sg15
g143
sg17
g166
sg19
g187
sg21
g206
sg23
g223
sg27
(dp240
g48
S'MMMMMMMMMMMUMMMMMMMMUMMMMMMMMMUDMMMDMDMMMDDMMMMMMMMMMMMMMMMMMMMMMMMMMMMUMMMMUUDMMMMDMMDMUUMMMMMMMDMMMMMMMMMDMMMMMUMMDMM'
p241
ssg29
(dp242
g48
S'MMDMMMMMMMMMMDMMMMMMMMMMMMDMMMDUMMMUMUMMMUUMMMMMDMMMMMMMMMMMMMMMDMMMMMDUMMMMMMUMMMMUMMUMUMMMMMDMMUMMMMDMMMMUMMMMMMMMUMD'
p243
ssg31
(dp244
g48
S'MMMMMMUMMMMMMMMMMUMMMMMMMMMMMMUDMMUDMDMMMDDMMMMMMMMMMMMMMMMMMMMMMMMMMMMDMUMMMMUMMMMDMMDMDMMMMMMMMDMMMMMMMMMDMMUMMMMMDMU'
p245
ssg33
(dp246
g48
S'MMUMMMMMMMMMMMMMMMMMMMMMMMUMMMUDMMMDMDMMMDDMMMMMMMUMMMMMMMUMUMMMUMMMMMUDMMMMMMDMMMMDMMDMDMMMMMMMMDMMMMUMMMMDMUMMMUMMDMU'
p247
ssg35
(dp248
g48
S'MMMMMMMMMUMMMMMMMMMMMMMMMMMMMMUDMMMDMDMMMDDMMMMMMMMMMMMMMMMUMMMMMMMMMMMDMMMMUMDMMUMDUMDMDMMUMMMMMDMMMMMMMMMDMMMMMUMUDMD'
p249
ssg37
(dp250
g48
S'MMMMMMMMMMUMMMMMMMMMMMMMMMMMMMUDMMUDMDMMMDDMMMMMMMMMMMMMMMMMMMMMMMUMMMMDMMMMMMDMMMMDMMDMDMMMMMMMMDMMMMMMMMMDUMMMMUMUDUD'
p251
ssg39
(dp252
g48
S'MMMMMMMMMMMMMMMMMMMMMMMUMMMMMMDDMUMDMDMMMDDMMMMMMMUMMMMMMMMMMMMMMMMMUMUDMMMUMMDMMMMDMMDMDMUMMMMMMDMMMMUMMMMDMMMMMMMMDMM'
p253
sssg27
(dp254
g8
g64
sg11
g93
sg13
g120
sg15
g145
sg17
g168
sg19
g189
sg21
g208
sg23
g225
sg25
g240
sg29
(dp255
g48
S'MMDMMMMMMMMUMDMMMMMMUMMMMMDMMMDMMMMMMMMMMMMMMMMMDMMMMMMMMMMMMMMMDMMMMMDUMMMMUUMMMMMMMMMMUUMMMMDMMMMMMMDMMMMMMMMMMUMMMMD'
p256
ssg31
(dp257
g48
S'MMMMMMUMMMMDMMMMMUMMDMMMMMMMMMUMMMUMMMMMMMMMMMMMMMMMMMMMMMMMMMMMMMMMMMMDMUMMDDUMMMMMMMMMDDMMMMMMMMMMMMMMMMMMMMUMMDMMMMU'
p258
ssg33
(dp259
g48
S'MMUMMMMMMMMDMMMMMMMMDMMMMMUMMMUMMMMMMMMMMMMMMMMMMMUMMMMMMMUMUMMMUMMMMMUDMMMMDDMMMMMMMMMMDDMMMMMMMMMMMMUMMMMMMUMMMDMMMMM'
p260
ssg35
(dp261
g48
S'MMMMMMMMMUMDMMMMMMMMDMMMMMMMMMUMMMMMMMMMMMMMMMMMMMMMMMMMMMMUMMMMMMMMMMMDMMMMMDMMMUMMUMMMDDMUMMMMMMMMMMMMMMMMMMMMMUMUMMD'
p262
ssg37
(dp263
g48
S'MMMMMMMMMMUDMMMMMMMMDMMMMMMMMMUMMMUMMMMMMMMMMMMMMMMMMMMMMMMMMMMMMMUMMMMDMMMMDDMMMMMMMMMMDDMMMMMMMMMMMMMMMMMMUMMMMDMUMUD'
p264
ssg39
(dp265
g48
S'MMMMMMMMMMMDMMMMMMMMDMMUMMMMMMDMMUMMMMMMMMMMMMMMMMUMMMMMMMMMMMMMMMMMUMUDMMMUDDMMMMMMMMMMDDUMMMMMMMMMMMUMMMMMMMMMMDMMMMM'
p266
sssg29
(dp267
g8
g66
sg11
g95
sg13
g122
sg15
g147
sg19
g191
sg21
g210
sg23
g227
sg25
g242
sg27
g255
sg17
g170
sg31
(dp268
g48
S'MMDMMMUMMMMMMDMMMUMMMMMMMMDMMMUMMMUMMMMMMMMMMMMMDMMMMMMMMMMMMMMMDMMMMMDMMUMMMMUMMMMMMMMMMMMMMMDMMMMMMMDMMMMMMMUMMMMMMMM'
p269
ssg33
(dp270
g48
S'MMDMMMMMMMMMMDMMMMMMMMMMMMMMMMUMMMMMMMMMMMMMMMMMDMUMMMMMMMUMUMMMDMMMMMDMMMMMMMMMMMMMMMMMMMMMMMDMMMMMMMDMMMMMMUMMMUMMMMD'
p271
ssg35
(dp272
g48
S'MMDMMMMMMUMMMDMMMMMMMMMMMMDMMMDMMMMMMMMMMMMMMMMMDMMMMMMMMMMUMMMMDMMMMMDMMMMMUMMMMUMMUMMMMMMUMMDMMMMMMMDMMMMMMMMMMUMUMMD'
p273
ssg37
(dp274
g48
S'MMDMMMMMMMUMMDMMMMMMMMMMMMDMMMUMMMUMMMMMMMMMMMMMDMMMMMMMMMMMMMMMDMUMMMDMMMMMMMMMMMMMMMMMUMMMMMDMMMMMMMDMMMMMUMMMMUMUMUD'
p275
ssg39
(dp276
g48
S'MMDMMMMMMMMMMDMMMMMMMMMUMMDMMMDMMUMMMMMMMMMMMMMMDMUMMMMMMMMMMMMMDMMMUMUMMMMUMMMMMMMMMMMMMMUMMMDMMMMMMMUMMMMMMMMMMMMMMMD'
p277
sssg31
(dp278
g8
g68
sg11
g97
sg13
g124
sg15
g149
sg17
g172
sg19
g193
sg21
g212
sg23
g229
sg25
g244
sg27
g257
sg29
g268
sg35
(dp279
g48
S'MMMMMMDMMUMMMMMMMDMMMMMMMMMMMMDMMMDMMMMMMMMMMMMMMMMMMMMMMMMUMMMMMMMMMMMMMDMMUMDMMUMMUMMMMMMUMMMMMMMMMMMMMMMMMMDMMUMUMMD'
p280
ssg33
(dp281
g48
S'MMUMMMDMMMMMMMMMMDMMMMMMMMUMMMUMMMDMMMMMMMMMMMMMMMUMMMMMMMUMUMMMUMMMMMUMMDMMMMDMMMMMMMMMMMMMMMMMMMMMMMUMMMMMMUDMMUMMMMD'
p282
ssg37
(dp283
g48
S'MMMMMMDMMMUMMMMMMDMMMMMMMMMMMMDMMMUMMMMMMMMMMMMMMMMMMMMMMMMMMMMMMMUMMMMMMDMMMMDMMMMMMMMMUMMMMMMMMMMMMMMMMMMMUMDMMUMUMUD'
p284
ssg39
(dp285
g48
S'MMMMMMDMMMMMMMMMMDMMMMMUMMMMMMDMMUDMMMMMMMMMMMMMMMUMMMMMMMMMMMMMMMMMUMUMMDMUMMDMMMMMMMMMMMUMMMMMMMMMMMUMMMMMMMDMMMMMMMD'
p286
sssg33
(dp287
g8
g70
sg11
g99
sg13
g126
sg15
g151
sg17
g174
sg19
g195
sg21
g214
sg23
g231
sg25
g246
sg27
g259
sg29
g270
sg31
g281
sg35
(dp288
g48
S'MMDMMMMMMUMMMMMMMMMMMMMMMMDMMMDMMMMMMMMMMMMMMMMMMMDMMMMMMMDUDMMMDMMMMMDMMMMMUMMMMUMMUMMMMMMUMMMMMMMMMMDMMMMMMDMMMUMUMMD'
p289
ssg37
(dp290
g48
S'MMDMMMMMMMUMMMMMMMMMMMMMMMDMMMDMMMUMMMMMMMMMMMMMMMDMMMMMMMDMDMMMDMUMMMDMMMMMMMMMMMMMMMMMUMMMMMMMMMMMMMDMMMMMUDMMMDMUMUD'
p291
ssg39
(dp292
g48
S'MMDMMMMMMMMMMMMMMMMMMMMUMMDMMMDMMUMMMMMMMMMMMMMMMMDMMMMMMMDMDMMMDMMMUMUMMMMUMMMMMMMMMMMMMMUMMMMMMMMMMMUMMMMMMDMMMDMMMMD'
p293
sssg35
(dp294
g8
g72
sg11
g101
sg13
g128
sg15
g153
sg17
g176
sg19
g197
sg21
g216
sg23
g233
sg25
g248
sg27
g261
sg29
g272
sg31
g279
sg33
g288
sg37
(dp295
g48
S'MMMMMMMMMDUMMMMMMMMMMMMMMMMMMMUMMMUMMMMMMMMMMMMMMMMMMMMMMMMDMMMMMMUMMMMMMMMMDMMMMDMMDMMMUMMDMMMMMMMMMMMMMMMMUMMMMDMDMUD'
p296
ssg39
(dp297
g48
S'MMMMMMMMMDMMMMMMMMMMMMMUMMMMMMDMMUMMMMMMMMMMMMMMMMUMMMMMMMMDMMMMMMMMUMUMMMMUDMMMMDMMDMMMMMUDMMMMMMMMMMUMMMMMMMMMMDMDMMU'
p298
sssg37
(dp299
g8
g74
sg11
g103
sg13
g130
sg15
g155
sg17
g178
sg19
g199
sg21
g218
sg23
g235
sg25
g250
sg27
g263
sg29
g274
sg31
g283
sg33
g290
sg35
g295
sg39
(dp300
g48
S'MMMMMMMMMMDMMMMMMMMMMMMUMMMMMMDMMUDMMMMMMMMMMMMMMMUMMMMMMMMMMMMMMMDMUMUMMMMUMMMMMMMMMMMMDMUMMMMMMMMMMMUMMMMMDMMMMDMDMDU'
p301
sssg39
(dp302
g8
g76
sg11
g105
sg13
g132
sg15
g157
sg17
g180
sg19
g201
sg21
g220
sg23
g237
sg25
g252
sg27
g265
sg29
g276
sg31
g285
sg33
g292
sg35
g297
sg37
g300
sssS'adj'
p303
g45
sb.