(dp0
S'assemblage-827-268'
p1
(lp2
I0
aI0
aI0
aI0
aI0
aI0
aI0
aI0
aI0
aI0
aI0
aI0
aI0
aI0
aI0
aI0
aI0
aI0
aI0
aI0
aI0
aI0
aI0
aI0
aI0
aI0
aI0
acnumpy.core.multiarray
scalar
p3
(cnumpy
dtype
p4
(S'f8'
p5
I0
I1
tp6
Rp7
(I3
S'<'
p8
NNNI-1
I-1
I0
tp9
bS'hY\x99\xf8\xde~\x96?'
p10
tp11
Rp12
aI0
aI0
ag3
(g7
S'8r\xa1\xe4\x05H\xc1?'
p13
tp14
Rp15
aI0
aI0
aI0
aI0
aI0
aI0
aI0
aI0
aI0
aI0
aI0
aI0
aI0
aI0
aI0
aI0
aI0
aI0
aI0
aI0
aI0
aI0
aI0
aI0
aI0
aI0
aI0
aI0
aI0
aI0
aI0
aI0
aI0
aI0
aI0
aI0
aI0
aI0
aI0
aI0
aI0
aI0
ag3
(g7
S'/F\xdeb-\x95\x99?'
p16
tp17
Rp18
aI0
aI0
aI0
aI0
aI0
aI0
aI0
aI0
ag3
(g7
S'\xaeLTz\xa1\x80\xa2?'
p19
tp20
Rp21
aI0
aI0
ag3
(g7
S'jD\xfa0\xf2?\xa0?'
p22
tp23
Rp24
ag3
(g7
S'd\xd5 \x0e\xea]\xc6?'
p25
tp26
Rp27
ag3
(g7
S'\x16\xeek\x8d\xf73\xdc?'
p28
tp29
Rp30
aI0
aI0
aI0
aI0
aI0
aI0
aI0
aI0
aI0
aI0
aI0
aI0
aI0
aI0
aI0
aI0
aI0
aI0
aI0
aI0
aI0
aI0
ag3
(g7
S'\x08\xde\xaf\x00\x9f\r\x87?'
p31
tp32
Rp33
aI0
aI0
aI0
aI0
aI0
aI0
ag3
(g7
S'\xbe\xbet\xb6\xe6_\xb0?'
p34
tp35
Rp36
ag3
(g7
S'\xa1\xc9\xa4\n\x11\xff\xa2?'
p37
tp38
Rp39
asS'assemblage-953-254'
p40
(lp41
I0
aI0
aI0
aI0
aI0
aI0
aI0
aI0
aI0
aI0
aI0
aI0
aI0
ag3
(g7
S'\x9bT/\xf3]\xb1\xb2?'
p42
tp43
Rp44
aI0
aI0
aI0
aI0
aI0
aI0
aI0
aI0
aI0
aI0
aI0
aI0
aI0
aI0
aI0
aI0
ag3
(g7
S'\xcb\xf7nx\xcf\x1c\xd6?'
p45
tp46
Rp47
aI0
aI0
aI0
aI0
aI0
aI0
aI0
aI0
aI0
aI0
aI0
aI0
aI0
aI0
aI0
aI0
aI0
aI0
aI0
aI0
aI0
aI0
aI0
aI0
aI0
aI0
aI0
aI0
ag3
(g7
S'\xc4z\xad=\xfbg\xae?'
p48
tp49
Rp50
aI0
aI0
aI0
aI0
aI0
aI0
aI0
aI0
aI0
aI0
aI0
aI0
aI0
aI0
aI0
aI0
ag3
(g7
S'\x111\n<\xa4.\xa9?'
p51
tp52
Rp53
aI0
aI0
aI0
aI0
aI0
aI0
aI0
aI0
ag3
(g7
S'\x0c\xe8\x02\x00\xa7\xec\xa1?'
p54
tp55
Rp56
aI0
ag3
(g7
S'1l\xbana\xae\x92?'
p57
tp58
Rp59
aI0
aI0
aI0
aI0
aI0
aI0
aI0
aI0
aI0
aI0
aI0
aI0
aI0
aI0
aI0
aI0
aI0
aI0
ag3
(g7
S'\x94\x19\x06\xc0_?\x8a?'
p60
tp61
Rp62
aI0
aI0
aI0
aI0
aI0
aI0
ag3
(g7
S'\x1e\x03{\x13\xc6\xff\xc7?'
p63
tp64
Rp65
aI0
ag3
(g7
S'f\xf9\x07=\xb3\xda\x8e?'
p66
tp67
Rp68
aI0
ag3
(g7
S'\xecI\xb7\xb5\x03c\xb8?'
p69
tp70
Rp71
ag3
(g7
S'\xb1\xe5\xd4\x86\x10\\\xb5?'
p72
tp73
Rp74
asS'assemblage-553-456'
p75
(lp76
I0
aI0
aI0
aI0
aI0
aI0
aI0
aI0
aI0
aI0
aI0
aI0
aI0
aI0
aI0
ag3
(g7
S'\x12\x8e\xac\xbc\x02J\x93?'
p77
tp78
Rp79
aI0
aI0
aI0
aI0
aI0
aI0
aI0
aI0
aI0
aI0
aI0
aI0
aI0
aI0
aI0
aI0
aI0
ag3
(g7
S'\x04\xc3\xd3\x1b\xa6\xe8\xd6?'
p80
tp81
Rp82
aI0
aI0
aI0
aI0
aI0
aI0
ag3
(g7
S'\xbe\xb7\xb8\xcev\xc7}?'
p83
tp84
Rp85
aI0
aI0
aI0
aI0
aI0
ag3
(g7
S'\x1e\xf2h\xb9$T\xbb?'
p86
tp87
Rp88
aI0
ag3
(g7
S'\x04\x98\x8f\x19\x95v\xc3?'
p89
tp90
Rp91
ag3
(g7
S'\xe3\xd8\x1av\xe1&\xac?'
p92
tp93
Rp94
aI0
aI0
aI0
aI0
aI0
aI0
aI0
aI0
aI0
aI0
aI0
ag3
(g7
S'\xd6\xe1\x96A:;\x8e?'
p95
tp96
Rp97
aI0
aI0
aI0
aI0
aI0
aI0
aI0
aI0
aI0
aI0
aI0
aI0
aI0
aI0
aI0
aI0
aI0
aI0
aI0
aI0
aI0
aI0
aI0
aI0
aI0
aI0
aI0
aI0
aI0
aI0
aI0
aI0
aI0
ag3
(g7
S'\xde8\xddR\x04\x93\xb6?'
p98
tp99
Rp100
aI0
aI0
aI0
aI0
aI0
aI0
ag3
(g7
S'\xb6Y\xf1\xa1p/\xb6?'
p101
tp102
Rp103
aI0
aI0
aI0
aI0
aI0
aI0
aI0
aI0
ag3
(g7
S'*\xb6\xa2\x85\x82\x82\x8b?'
p104
tp105
Rp106
aI0
aI0
aI0
aI0
aI0
aI0
ag3
(g7
S'\xa8>&\xfd\xad\x13\xb3?'
p107
tp108
Rp109
asS'assemblage-838-264'
p110
(lp111
I0
aI0
aI0
aI0
aI0
aI0
aI0
aI0
aI0
aI0
aI0
ag3
(g7
S'+\x9e\xed#\xd2\x9b\xb0?'
p112
tp113
Rp114
aI0
aI0
aI0
aI0
aI0
aI0
aI0
aI0
ag3
(g7
S'\x05\x87\x0bf\xc6\x12\xb6?'
p115
tp116
Rp117
aI0
aI0
aI0
aI0
aI0
aI0
aI0
aI0
aI0
ag3
(g7
S'\xea`\x19\xda\xaaK\xc9?'
p118
tp119
Rp120
aI0
aI0
aI0
aI0
aI0
aI0
aI0
aI0
aI0
aI0
aI0
aI0
aI0
aI0
aI0
aI0
aI0
aI0
aI0
aI0
aI0
aI0
aI0
aI0
aI0
aI0
aI0
aI0
aI0
aI0
aI0
aI0
aI0
aI0
aI0
aI0
aI0
aI0
aI0
aI0
ag3
(g7
S'\xb4\x85\x85\xbb>\xee\xb3?'
p121
tp122
Rp123
aI0
aI0
aI0
aI0
ag3
(g7
S'\x7fs<\xecG\x1b\xc8?'
p124
tp125
Rp126
ag3
(g7
S'\xd8\x0c\x1f=V\xbf\x9b?'
p127
tp128
Rp129
aI0
aI0
aI0
aI0
aI0
aI0
aI0
aI0
aI0
aI0
ag3
(g7
S'\xa5\x8e=\r\xfe9\xcb?'
p130
tp131
Rp132
ag3
(g7
S'\xc3He\x0c\x1dy\x9c?'
p133
tp134
Rp135
aI0
aI0
aI0
aI0
aI0
aI0
aI0
aI0
aI0
aI0
aI0
aI0
aI0
aI0
aI0
aI0
aI0
aI0
aI0
aI0
aI0
aI0
aI0
ag3
(g7
S'7\xd8\x12}9\xaa\xaa?'
p136
tp137
Rp138
aI0
aI0
aI0
aI0
ag3
(g7
S'\x86~\xc8\xcd\x82\x08\xa5?'
p139
tp140
Rp141
asS'assemblage-521-457'
p142
(lp143
I0
aI0
aI0
aI0
aI0
aI0
aI0
aI0
aI0
aI0
aI0
aI0
aI0
aI0
aI0
ag3
(g7
S'a+\xea\xa1:\\\x92?'
p144
tp145
Rp146
aI0
aI0
aI0
aI0
aI0
aI0
aI0
aI0
aI0
aI0
aI0
aI0
aI0
aI0
aI0
aI0
aI0
ag3
(g7
S'J\xfe\x8a\xe4\x92+\xd9?'
p147
tp148
Rp149
aI0
aI0
aI0
aI0
aI0
aI0
ag3
(g7
S'\xa0\x05\xef\xb2\xe9\xbd\x86?'
p150
tp151
Rp152
aI0
aI0
aI0
aI0
aI0
ag3
(g7
S'Qm\xa4\x082\xdd\xb3?'
p153
tp154
Rp155
aI0
ag3
(g7
S'\xb1\xa6\x7f\xedA\xcd\xc4?'
p156
tp157
Rp158
ag3
(g7
S'\xbb\xf5^\x801\xd2\xa6?'
p159
tp160
Rp161
aI0
aI0
aI0
aI0
aI0
aI0
aI0
aI0
aI0
aI0
aI0
ag3
(g7
S'\x9c/4\xe4*I\x81?'
p162
tp163
Rp164
aI0
aI0
aI0
aI0
aI0
aI0
aI0
aI0
aI0
aI0
aI0
aI0
aI0
aI0
aI0
aI0
aI0
aI0
aI0
aI0
aI0
aI0
aI0
aI0
aI0
aI0
aI0
aI0
aI0
aI0
aI0
aI0
aI0
ag3
(g7
S'O\xfdGj\x8b#\xba?'
p165
tp166
Rp167
aI0
aI0
aI0
aI0
aI0
aI0
ag3
(g7
S'w\x12`\x99hQ\xb6?'
p168
tp169
Rp170
aI0
aI0
aI0
aI0
aI0
aI0
aI0
aI0
ag3
(g7
S'\x9c\xef\x94\x13\xd9w\x99?'
p171
tp172
Rp173
aI0
aI0
aI0
aI0
aI0
aI0
ag3
(g7
S'u\x88\xc8\x14\xae\x8e\xa8?'
p174
tp175
Rp176
asS'assemblage-838-232'
p177
(lp178
I0
aI0
aI0
aI0
aI0
aI0
aI0
aI0
aI0
aI0
aI0
aI0
aI0
aI0
aI0
aI0
aI0
aI0
aI0
aI0
aI0
aI0
aI0
aI0
aI0
aI0
aI0
ag3
(g7
S'r\x12\x9d\xb0\x1d\xce\x89?'
p179
tp180
Rp181
aI0
aI0
ag3
(g7
S'U\x17x\x87R\x91\xc0?'
p182
tp183
Rp184
aI0
aI0
aI0
aI0
aI0
aI0
aI0
aI0
aI0
aI0
aI0
aI0
aI0
aI0
aI0
aI0
aI0
aI0
aI0
aI0
aI0
aI0
aI0
aI0
aI0
aI0
aI0
aI0
aI0
aI0
aI0
aI0
aI0
aI0
aI0
aI0
aI0
aI0
aI0
aI0
aI0
aI0
ag3
(g7
S'\x87\xcdz\xb7\xec2\xac?'
p185
tp186
Rp187
aI0
aI0
aI0
aI0
aI0
aI0
aI0
aI0
ag3
(g7
S"U\xb1'c\x08\xae\xa5?"
p188
tp189
Rp190
aI0
aI0
ag3
(g7
S'L]\x14\xaaK-\x89?'
p191
tp192
Rp193
ag3
(g7
S'\x8a\n\n\xd8\xfc\x92\xc3?'
p194
tp195
Rp196
ag3
(g7
S'D[.W)\x1c\xde?'
p197
tp198
Rp199
aI0
aI0
aI0
aI0
aI0
aI0
aI0
aI0
aI0
aI0
aI0
aI0
aI0
aI0
aI0
aI0
aI0
aI0
aI0
aI0
aI0
aI0
ag3
(g7
S'+F\xc3C,[\x8a?'
p200
tp201
Rp202
aI0
aI0
aI0
aI0
aI0
aI0
ag3
(g7
S'\x98Bb*\xa6g\xad?'
p203
tp204
Rp205
ag3
(g7
S'\x8c>P\xd20/\xa1?'
p206
tp207
Rp208
asS'assemblage-314-250'
p209
(lp210
I0
aI0
aI0
aI0
aI0
aI0
aI0
aI0
aI0
aI0
ag3
(g7
S'\xd1R\x80v\xb4\xaa\x80?'
p211
tp212
Rp213
aI0
aI0
aI0
aI0
aI0
aI0
aI0
aI0
aI0
aI0
aI0
aI0
aI0
aI0
aI0
aI0
aI0
aI0
aI0
ag3
(g7
S'k:\xdd\x83\xf0}\xda?'
p214
tp215
Rp216
aI0
aI0
aI0
ag3
(g7
S'N\xc5\xed,\xf4\x9b\xca?'
p217
tp218
Rp219
aI0
aI0
aI0
aI0
aI0
aI0
aI0
aI0
aI0
aI0
aI0
aI0
aI0
aI0
aI0
aI0
aI0
aI0
aI0
aI0
aI0
aI0
aI0
aI0
aI0
aI0
aI0
aI0
aI0
aI0
aI0
ag3
(g7
S'\xb9\xb4z\xfc(\xd9\xb8?'
p220
tp221
Rp222
aI0
aI0
aI0
aI0
aI0
aI0
aI0
aI0
aI0
aI0
aI0
aI0
aI0
aI0
aI0
aI0
aI0
aI0
aI0
aI0
aI0
ag3
(g7
S']\x17 \xe9\xbah\xa0?'
p223
tp224
Rp225
aI0
aI0
aI0
aI0
aI0
aI0
aI0
aI0
aI0
aI0
aI0
aI0
aI0
aI0
aI0
aI0
aI0
aI0
aI0
ag3
(g7
S'\x14\xa3Q\x102\xad\x91?'
p226
tp227
Rp228
aI0
aI0
aI0
aI0
ag3
(g7
S'\xbbI\xfd\xbc\x92\n\xaa?'
p229
tp230
Rp231
aI0
ag3
(g7
S'k\xcf\x8bi\xe1\xa0\xb1?'
p232
tp233
Rp234
aI0
ag3
(g7
S'\x0b\xbf\xbe\x83\x9a\x01\xa3?'
p235
tp236
Rp237
ag3
(g7
S'\x8a\xa1&"\\\n\xa7?'
p238
tp239
Rp240
asS'assemblage-372-680'
p241
(lp242
I0
aI0
aI0
aI0
aI0
aI0
aI0
aI0
aI0
aI0
aI0
aI0
aI0
aI0
aI0
aI0
aI0
aI0
aI0
aI0
aI0
aI0
aI0
aI0
aI0
aI0
aI0
aI0
aI0
aI0
ag3
(g7
S'h\xb4\xf1\xbe?\xda\xd8?'
p243
tp244
Rp245
aI0
aI0
aI0
aI0
aI0
aI0
aI0
aI0
aI0
aI0
aI0
aI0
aI0
aI0
aI0
aI0
aI0
aI0
aI0
aI0
aI0
aI0
aI0
aI0
aI0
aI0
aI0
aI0
aI0
aI0
aI0
aI0
aI0
aI0
aI0
aI0
aI0
aI0
aI0
aI0
aI0
aI0
aI0
aI0
aI0
aI0
aI0
aI0
aI0
aI0
ag3
(g7
S'\xa4C\x93O*\xe1\x9e?'
p246
tp247
Rp248
aI0
aI0
aI0
aI0
aI0
aI0
aI0
aI0
aI0
aI0
aI0
aI0
ag3
(g7
S'\xa2"\xcc_?\x0c\xb1?'
p249
tp250
Rp251
aI0
ag3
(g7
S'\xde&\xf43\xff:\x92?'
p252
tp253
Rp254
aI0
aI0
aI0
aI0
aI0
ag3
(g7
S'\x10I\x18Hr\xde\xa0?'
p255
tp256
Rp257
aI0
aI0
aI0
aI0
aI0
aI0
aI0
aI0
aI0
aI0
ag3
(g7
S'n\x87\xa8\x1fJI\xd9?'
p258
tp259
Rp260
aI0
aI0
aI0
aI0
ag3
(g7
S'=.&\xc3\x0c\xcd\xaa?'
p261
tp262
Rp263
asS'assemblage-183-759'
p264
(lp265
I0
aI0
aI0
aI0
aI0
aI0
aI0
aI0
aI0
aI0
aI0
aI0
aI0
aI0
aI0
aI0
aI0
aI0
aI0
aI0
aI0
aI0
aI0
aI0
aI0
aI0
aI0
aI0
aI0
aI0
ag3
(g7
S'E,R\xdc\x00\xc2\xa0?'
p266
tp267
Rp268
ag3
(g7
S'\xf4\xf9!\xc2\x84R\x99?'
p269
tp270
Rp271
aI0
aI0
aI0
ag3
(g7
S'\x82\x11y\xa9\xda\xc0\xb4?'
p272
tp273
Rp274
aI0
ag3
(g7
S'Dp\x93\x14\xa9\r\x9c?'
p275
tp276
Rp277
aI0
aI0
aI0
ag3
(g7
S'*\xdc\'P"\x19\xb2?'
p278
tp279
Rp280
ag3
(g7
S'\xc2E\xb6\x06F4\xcf?'
p281
tp282
Rp283
aI0
aI0
aI0
aI0
aI0
aI0
aI0
aI0
aI0
aI0
aI0
aI0
aI0
aI0
aI0
aI0
aI0
aI0
aI0
aI0
aI0
aI0
aI0
aI0
aI0
aI0
aI0
aI0
ag3
(g7
S'\xb7BJ\\\xb8\x9f\xaa?'
p284
tp285
Rp286
aI0
aI0
aI0
aI0
aI0
aI0
ag3
(g7
S'\xe61\x93\x07.\x89|?'
p287
tp288
Rp289
aI0
aI0
aI0
aI0
ag3
(g7
S'M\xccx\xd3\x0b\x10\x91?'
p290
tp291
Rp292
aI0
aI0
ag3
(g7
S'\xe4\xc9\xb3/\xc8\xd0\xbe?'
p293
tp294
Rp295
aI0
ag3
(g7
S'\x9ba\xc3ak\xdf\xbd?'
p296
tp297
Rp298
aI0
aI0
aI0
aI0
aI0
aI0
aI0
aI0
ag3
(g7
S'\x9f\x91\xd9\x19\x9b\xb8\xb7?'
p299
tp300
Rp301
aI0
aI0
aI0
aI0
aI0
aI0
aI0
aI0
aI0
ag3
(g7
S'\xd9\xbc\xd4\xf9Y\x83\xa0?'
p302
tp303
Rp304
aI0
aI0
aI0
aI0
aI0
aI0
aI0
aI0
ag3
(g7
S'^\xeeGa\xf5&p?'
p305
tp306
Rp307
aI0
ag3
(g7
S'\xdfJ\x0c\xc6\xba\x7f\xa8?'
p308
tp309
Rp310
asS'assemblage-567-336'
p311
(lp312
I0
aI0
aI0
aI0
aI0
aI0
aI0
aI0
aI0
aI0
aI0
ag3
(g7
S'\xe2^\xe9;\x14\x18\xad?'
p313
tp314
Rp315
aI0
aI0
aI0
aI0
aI0
aI0
aI0
aI0
ag3
(g7
S'\x93\xaf3gw\x97\xb1?'
p316
tp317
Rp318
aI0
aI0
aI0
aI0
aI0
aI0
aI0
aI0
aI0
ag3
(g7
S'\xe9\x12\xebo\xf07\xcd?'
p319
tp320
Rp321
aI0
aI0
aI0
aI0
aI0
aI0
aI0
aI0
aI0
aI0
aI0
aI0
aI0
aI0
aI0
aI0
aI0
aI0
aI0
aI0
aI0
aI0
aI0
aI0
aI0
aI0
aI0
aI0
aI0
aI0
aI0
aI0
aI0
aI0
aI0
aI0
aI0
aI0
aI0
aI0
ag3
(g7
S'\xaf]\xabV\xc4\xfb\xb2?'
p322
tp323
Rp324
aI0
aI0
aI0
aI0
ag3
(g7
S'\x83"\xed\x1c\xbfw\xc8?'
p325
tp326
Rp327
ag3
(g7
S'o!\xb2\xc2\xa4\x94\x92?'
p328
tp329
Rp330
aI0
aI0
aI0
aI0
aI0
aI0
aI0
aI0
aI0
aI0
ag3
(g7
S'T\xa6=\x1f\x17\xd5\xcb?'
p331
tp332
Rp333
ag3
(g7
S'\x1d\xa0o.\x8c\xda\x93?'
p334
tp335
Rp336
aI0
aI0
aI0
aI0
aI0
aI0
aI0
aI0
aI0
aI0
aI0
aI0
aI0
aI0
aI0
aI0
aI0
aI0
aI0
aI0
aI0
aI0
aI0
ag3
(g7
S'T[\xb6\xba@\xb1\xaa?'
p337
tp338
Rp339
aI0
aI0
aI0
aI0
ag3
(g7
S'\xce\xa9\xf0\xe9\xc4<\xa9?'
p340
tp341
Rp342
asS'assemblage-397-360'
p343
(lp344
I0
aI0
ag3
(g7
S'n%\x04\xa4U\xbd\xbe?'
p345
tp346
Rp347
aI0
aI0
aI0
aI0
aI0
aI0
aI0
aI0
aI0
aI0
ag3
(g7
S'\xc3\xa94*\xc7I\xb2?'
p348
tp349
Rp350
aI0
aI0
aI0
aI0
aI0
aI0
aI0
aI0
aI0
aI0
aI0
aI0
ag3
(g7
S'\x94\xbfK\x93!\xf9\x82?'
p351
tp352
Rp353
aI0
aI0
aI0
ag3
(g7
S'\x0b\xa6\x1d\xfes9\xd5?'
p354
tp355
Rp356
aI0
aI0
aI0
aI0
aI0
aI0
aI0
aI0
aI0
aI0
aI0
aI0
aI0
aI0
aI0
aI0
aI0
ag3
(g7
S'\x9ab\xe6\x8c\xf0]\x97?'
p357
tp358
Rp359
aI0
aI0
aI0
aI0
aI0
aI0
aI0
aI0
aI0
aI0
aI0
aI0
aI0
aI0
aI0
ag3
(g7
S'\xbb\\\xfb\xf1\xc0\xf6\xa9?'
p360
tp361
Rp362
aI0
aI0
aI0
aI0
aI0
ag3
(g7
S'\x87\xd1\xea(\x18\xb7\xb8?'
p363
tp364
Rp365
aI0
aI0
aI0
aI0
aI0
aI0
aI0
aI0
aI0
aI0
aI0
aI0
aI0
aI0
aI0
aI0
aI0
aI0
aI0
aI0
aI0
aI0
aI0
ag3
(g7
S'#\xba\xf0\xc2\r\x10\xa0?'
p366
tp367
Rp368
aI0
aI0
aI0
aI0
aI0
aI0
aI0
ag3
(g7
S'\x99#\x9f\xeb\t]\xc6?'
p369
tp370
Rp371
aI0
aI0
aI0
aI0
aI0
aI0
aI0
aI0
aI0
aI0
aI0
aI0
aI0
aI0
aI0
ag3
(g7
S'\xad\xbc\x9b`\xefS\xb1?'
p372
tp373
Rp374
asS'assemblage-576-679'
p375
(lp376
I0
aI0
aI0
aI0
aI0
aI0
aI0
aI0
aI0
ag3
(g7
S'~\xa1\xe1\x8e\xd1\xfe\x98?'
p377
tp378
Rp379
aI0
aI0
aI0
aI0
aI0
aI0
aI0
aI0
aI0
aI0
aI0
aI0
aI0
aI0
aI0
aI0
aI0
aI0
aI0
aI0
ag3
(g7
S'\xfe\xf5\x11\xb7P\xf0\xd2?'
p380
tp381
Rp382
aI0
aI0
aI0
aI0
aI0
aI0
aI0
aI0
aI0
aI0
aI0
aI0
aI0
aI0
aI0
aI0
aI0
aI0
aI0
aI0
aI0
aI0
aI0
aI0
aI0
aI0
aI0
aI0
ag3
(g7
S'\x88U\xcd\x15\xaa3\xa3?'
p383
tp384
Rp385
aI0
aI0
aI0
aI0
aI0
aI0
aI0
aI0
aI0
aI0
aI0
aI0
aI0
aI0
aI0
aI0
ag3
(g7
S'%}\xcc\x96\x9c\xd2\xc7?'
p386
tp387
Rp388
aI0
aI0
aI0
aI0
ag3
(g7
S'\xb8N1:\xb6\xb3\x9b?'
p389
tp390
Rp391
aI0
aI0
ag3
(g7
S'/\xce\xa1M\t\x83\x92?'
p392
tp393
Rp394
aI0
aI0
aI0
aI0
aI0
aI0
ag3
(g7
S'\xd2\xf1I`\x88\x9d~?'
p395
tp396
Rp397
aI0
aI0
aI0
aI0
aI0
aI0
aI0
aI0
aI0
aI0
aI0
aI0
aI0
aI0
aI0
aI0
aI0
aI0
aI0
aI0
aI0
ag3
(g7
S';\x0c\x95-\xc2;\xcf?'
p398
tp399
Rp400
aI0
ag3
(g7
S'\xad\x15\x16\t\\\xd6\xb7?'
p401
tp402
Rp403
aI0
aI0
ag3
(g7
S'\x177\x18e\xdfb\xa6?'
p404
tp405
Rp406
asS'assemblage-387-349'
p407
(lp408
I0
aI0
ag3
(g7
S'\x87`\xd1\xd0z;\xa8?'
p409
tp410
Rp411
aI0
aI0
aI0
aI0
aI0
aI0
aI0
aI0
aI0
aI0
aI0
aI0
aI0
aI0
aI0
aI0
aI0
aI0
aI0
aI0
aI0
aI0
aI0
ag3
(g7
S'\xa1\xacR\xa7\x0c\xfd\x80?'
p412
tp413
Rp414
aI0
aI0
aI0
ag3
(g7
S'\xfa%\x1f\x04\x1ev\xe6?'
p415
tp416
Rp417
aI0
aI0
aI0
aI0
aI0
aI0
aI0
aI0
aI0
aI0
aI0
aI0
aI0
aI0
aI0
aI0
aI0
aI0
aI0
ag3
(g7
S'\xeaQ>>\xfa\x7f\x95?'
p418
tp419
Rp420
aI0
aI0
aI0
aI0
aI0
aI0
aI0
ag3
(g7
S'\x9a\x0e0JN\xf6t?'
p421
tp422
Rp423
aI0
ag3
(g7
S'\xb3\x079\x02\x19\x9fn?'
p424
tp425
Rp426
aI0
aI0
aI0
ag3
(g7
S'\xb0Lbo\xd5x~?'
p427
tp428
Rp429
aI0
aI0
aI0
aI0
aI0
ag3
(g7
S'\xc9\xb3}\xa5&\x1c\xb1?'
p430
tp431
Rp432
aI0
aI0
aI0
aI0
aI0
aI0
aI0
aI0
aI0
aI0
aI0
aI0
aI0
aI0
aI0
aI0
aI0
aI0
aI0
aI0
aI0
aI0
aI0
aI0
aI0
aI0
aI0
aI0
aI0
aI0
aI0
ag3
(g7
S'\xbc\x12\xeeb\x90\xdf\x82?'
p433
tp434
Rp435
aI0
aI0
aI0
aI0
aI0
aI0
ag3
(g7
S'\x15\xe5\xb2y`j\x8c?'
p436
tp437
Rp438
aI0
aI0
aI0
ag3
(g7
S';3+\xd7)K\xa7?'
p439
tp440
Rp441
aI0
aI0
aI0
aI0
ag3
(g7
S'\xd3\x9a*\x9d\x82\xad\xaa?'
p442
tp443
Rp444
asS'assemblage-876-854'
p445
(lp446
I0
aI0
aI0
aI0
aI0
aI0
ag3
(g7
S'|\x91\xcd\xde\xe8\xe8\x99?'
p447
tp448
Rp449
aI0
aI0
aI0
aI0
aI0
aI0
aI0
aI0
aI0
aI0
ag3
(g7
S'\xebk\xde\x1b\x18,{?'
p450
tp451
Rp452
aI0
aI0
aI0
aI0
aI0
aI0
aI0
aI0
aI0
aI0
aI0
aI0
ag3
(g7
S'\x03h\x86RC\x80\xdd?'
p453
tp454
Rp455
aI0
aI0
aI0
ag3
(g7
S'TT #|<\xb9?'
p456
tp457
Rp458
aI0
aI0
aI0
aI0
aI0
aI0
aI0
aI0
aI0
aI0
aI0
aI0
aI0
aI0
aI0
aI0
aI0
aI0
aI0
aI0
aI0
aI0
aI0
aI0
aI0
aI0
aI0
aI0
aI0
aI0
aI0
aI0
aI0
aI0
aI0
aI0
aI0
aI0
ag3
(g7
S'\xe1\xd5\x9cZ\xa2\xba\xca?'
p459
tp460
Rp461
aI0
aI0
aI0
aI0
ag3
(g7
S'|\x02\xc9\xb3\x07Z\x9d?'
p462
tp463
Rp464
aI0
aI0
aI0
aI0
aI0
aI0
aI0
aI0
aI0
aI0
aI0
aI0
aI0
aI0
aI0
aI0
aI0
aI0
aI0
aI0
aI0
aI0
aI0
aI0
aI0
aI0
aI0
aI0
aI0
aI0
aI0
ag3
(g7
S'\n\x04\x1e\xee\x9a\xeb\xb5?'
p465
tp466
Rp467
aI0
aI0
aI0
aI0
aI0
aI0
aI0
ag3
(g7
S'\x03Ra\xa9\xd9\xee\xb0?'
p468
tp469
Rp470
asS'assemblage-560-348'
p471
(lp472
I0
aI0
aI0
aI0
aI0
aI0
aI0
aI0
aI0
aI0
ag3
(g7
S'L?\x92\xd1\n\r\x8e?'
p473
tp474
Rp475
aI0
aI0
aI0
aI0
aI0
aI0
aI0
aI0
aI0
aI0
aI0
aI0
aI0
aI0
aI0
aI0
aI0
aI0
aI0
ag3
(g7
S'H\x14)\xc4\x16\xb7\xd9?'
p476
tp477
Rp478
aI0
aI0
aI0
ag3
(g7
S')\x8d\n\xf7mx\xcb?'
p479
tp480
Rp481
aI0
aI0
aI0
aI0
aI0
aI0
aI0
aI0
aI0
aI0
aI0
aI0
aI0
aI0
aI0
aI0
aI0
aI0
aI0
aI0
aI0
aI0
aI0
aI0
aI0
aI0
aI0
aI0
aI0
aI0
aI0
ag3
(g7
S'\x0e\x97o\no\x1a\xbc?'
p482
tp483
Rp484
aI0
aI0
aI0
aI0
aI0
aI0
aI0
aI0
aI0
aI0
aI0
aI0
aI0
aI0
aI0
aI0
aI0
aI0
aI0
aI0
aI0
ag3
(g7
S'\x9a\xa0\x01\xc6[,\xa2?'
p485
tp486
Rp487
aI0
aI0
aI0
aI0
aI0
aI0
aI0
aI0
aI0
aI0
aI0
aI0
aI0
aI0
aI0
aI0
aI0
aI0
aI0
ag3
(g7
S'\x1a\x06~\x11\xfe\x1a\x91?'
p488
tp489
Rp490
aI0
aI0
aI0
aI0
ag3
(g7
S'\x9f\xe4\x00\xe0*\xb8\xa2?'
p491
tp492
Rp493
aI0
ag3
(g7
S'39\x10mn=\xb2?'
p494
tp495
Rp496
aI0
ag3
(g7
S'\x19\xefq\xa1s\xa9\xa4?'
p497
tp498
Rp499
ag3
(g7
S'\xe7\xacN\x1c\ra\xa2?'
p500
tp501
Rp502
asS'assemblage-773-185'
p503
(lp504
I0
aI0
aI0
aI0
aI0
aI0
aI0
aI0
aI0
aI0
aI0
aI0
aI0
aI0
aI0
aI0
aI0
aI0
aI0
aI0
aI0
aI0
aI0
ag3
(g7
S'{\xb8_1\x8b\x8d\x91?'
p505
tp506
Rp507
aI0
aI0
aI0
aI0
aI0
aI0
aI0
aI0
aI0
ag3
(g7
S'S\r\xc0\xfe\xa5\xd1\xc6?'
p508
tp509
Rp510
aI0
aI0
aI0
aI0
aI0
aI0
aI0
aI0
aI0
aI0
aI0
aI0
aI0
aI0
aI0
aI0
ag3
(g7
S'\x06]\x17\xb5i\xe2\x8c?'
p511
tp512
Rp513
aI0
aI0
aI0
aI0
aI0
aI0
aI0
aI0
aI0
aI0
aI0
aI0
aI0
aI0
aI0
aI0
aI0
ag3
(g7
S']D$`Qz\x98?'
p514
tp515
Rp516
aI0
ag3
(g7
S'\x89\x81n\xc6nK\xc2?'
p517
tp518
Rp519
aI0
aI0
aI0
aI0
ag3
(g7
S'\x17[\x06\xe6\xe8o\xa4?'
p520
tp521
Rp522
aI0
aI0
aI0
aI0
aI0
aI0
aI0
aI0
aI0
aI0
aI0
aI0
aI0
aI0
ag3
(g7
S'\xf2U\xdd\xbeD3\x88?'
p523
tp524
Rp525
aI0
aI0
aI0
aI0
aI0
aI0
aI0
aI0
aI0
aI0
aI0
ag3
(g7
S'\xfb%,\xa4\xf5)\xe0?'
p526
tp527
Rp528
aI0
aI0
aI0
aI0
aI0
aI0
aI0
aI0
aI0
aI0
aI0
aI0
aI0
aI0
aI0
ag3
(g7
S'\xe5\xe4\xaeg&\x81\xa8?'
p529
tp530
Rp531
as.