(dp0
S'assemblage-15-2'
p1
(lp2
I0
acnumpy.core.multiarray
scalar
p3
(cnumpy
dtype
p4
(S'f8'
p5
I0
I1
tp6
Rp7
(I3
S'<'
p8
NNNI-1
I-1
I0
tp9
bS'\xffhw\x1b\xcc\xf0\xe7?'
p10
tp11
Rp12
aI0
aI0
aI0
ag3
(g7
S'56\x8ex\xc2\xa4m?'
p13
tp14
Rp15
ag3
(g7
S'W\x8aJ\x83\xff\x7fp?'
p16
tp17
Rp18
aI0
aI0
ag3
(g7
S'j\x0b\xa2\x02w\x18\xa9?'
p19
tp20
Rp21
aI0
ag3
(g7
S'\xb9\x0f\xd5<h\xc1\xc6?'
p22
tp23
Rp24
aI0
aI0
aI0
aI0
aI0
aI0
aI0
asS'assemblage-11-3'
p25
(lp26
I0
ag3
(g7
S'\x874\x87?JF\xec?'
p27
tp28
Rp29
aI0
aI0
aI0
ag3
(g7
S'\xc6\xbfy\x02\xdaM\xa5?'
p30
tp31
Rp32
aI0
aI0
aI0
aI0
aI0
ag3
(g7
S'y\xef\x07\xca\x06\x99\xb0?'
p33
tp34
Rp35
aI0
aI0
aI0
aI0
aI0
aI0
aI0
asS'assemblage-11-2'
p36
(lp37
I0
ag3
(g7
S'\xbf\xfc\x8d\x87\x07|\xee?'
p38
tp39
Rp40
aI0
aI0
aI0
ag3
(g7
S'k\x03\xc1\x90\xe5\x1b\x91?'
p41
tp42
Rp43
aI0
aI0
aI0
aI0
aI0
ag3
(g7
S'I\xb0Q7>K\x98?'
p44
tp45
Rp46
aI0
aI0
aI0
aI0
aI0
aI0
aI0
asS'assemblage-12-4'
p47
(lp48
I0
ag3
(g7
S'<\x9d\xb3^\r\xc4\xe5?'
p49
tp50
Rp51
aI0
aI0
aI0
aI0
aI0
aI0
aI0
aI0
aI0
ag3
(g7
S'9\xf3\xf4\xc3\n\x9f\xd3?'
p52
tp53
Rp54
aI0
aI0
aI0
aI0
aI0
aI0
aI0
asS'assemblage-28-1'
p55
(lp56
I0
ag3
(g7
S'0\x96F+_\xc8\xe8?'
p57
tp58
Rp59
aI0
aI0
aI0
aI0
ag3
(g7
S"\xf2\x96'\x80r\x19\xa1?"
p60
tp61
Rp62
aI0
aI0
ag3
(g7
S'\xabzo\x01\x0c?\xc2?'
p63
tp64
Rp65
aI0
ag3
(g7
S'\xc2\xaag|\xb8\xe3\xa0?'
p66
tp67
Rp68
aI0
aI0
aI0
aI0
aI0
aI0
aI0
asS'assemblage-12-1'
p69
(lp70
I0
ag3
(g7
S'\x00\x00\x00\x00\x00\x00\xf0?'
p71
tp72
Rp73
aI0
aI0
aI0
aI0
aI0
aI0
aI0
aI0
aI0
aI0
aI0
aI0
aI0
aI0
aI0
aI0
aI0
asS'assemblage-12-2'
p74
(lp75
I0
ag3
(g7
S'\x16\x01<\xd4\xdbB\xe9?'
p76
tp77
Rp78
aI0
aI0
ag3
(g7
S'\xb5\xa9\x9c\xdbq\x7fo?'
p79
tp80
Rp81
aI0
ag3
(g7
S"\xfb\x04{'c@\x9c?"
p82
tp83
Rp84
aI0
aI0
ag3
(g7
S'(gd\xaf\r\xb3\xc0?'
p85
tp86
Rp87
aI0
ag3
(g7
S'c\xf1\x84|wT\xa0?'
p88
tp89
Rp90
aI0
aI0
aI0
aI0
aI0
aI0
aI0
asS'assemblage-2-3'
p91
(lp92
I0
ag3
(g7
S'\xc7-\x13N$\xe9\xe7?'
p93
tp94
Rp95
aI0
ag3
(g7
S'~\xc1\xbc\xe5\xb74q?'
p96
tp97
Rp98
aI0
ag3
(g7
S'\xa4[\xc9&P!r?'
p99
tp100
Rp101
aI0
aI0
aI0
aI0
aI0
ag3
(g7
S'\x9c\xa3T\xb7\x11\x15\xcd?'
p102
tp103
Rp104
aI0
aI0
aI0
aI0
ag3
(g7
S'~\x88\xb0\x13\xd9\xe4j?'
p105
tp106
Rp107
aI0
aI0
asS'assemblage-3-2'
p108
(lp109
g3
(g7
S'9}-\x91\x82\xed\x8b?'
p110
tp111
Rp112
ag3
(g7
S'\x89\xded[\xaa\x88\xe1?'
p113
tp114
Rp115
aI0
aI0
aI0
aI0
ag3
(g7
S'\xcbZ\xcd\\:8\xb2?'
p116
tp117
Rp118
aI0
aI0
ag3
(g7
S'0\xd1\x0e>\xbeX\xd5?'
p119
tp120
Rp121
aI0
aI0
ag3
(g7
S'n\xfa\xa65\xcd\xc9\x8c?'
p122
tp123
Rp124
aI0
aI0
aI0
aI0
aI0
aI0
asS'assemblage-1-4'
p125
(lp126
I0
ag3
(g7
S'U\xceZ\x95\xd8x\xe8?'
p127
tp128
Rp129
aI0
aI0
aI0
ag3
(g7
S'!&s\x18\xbc\xd3k?'
p130
tp131
Rp132
aI0
aI0
aI0
ag3
(g7
S'\xdf\x99\x92\xd6\x1b\xad\xba?'
p133
tp134
Rp135
aI0
ag3
(g7
S'\x17\x04\x86\xd1\x8e\x80\xbb?'
p136
tp137
Rp138
ag3
(g7
S'\x87Kx+7\x08o?'
p139
tp140
Rp141
aI0
aI0
aI0
aI0
aI0
aI0
asS'assemblage-21-4'
p142
(lp143
I0
ag3
(g7
S'\x00\x00\x00\x00\x00\x00\xf0?'
p144
tp145
Rp146
aI0
aI0
aI0
aI0
aI0
aI0
aI0
aI0
aI0
aI0
aI0
aI0
aI0
aI0
aI0
aI0
aI0
asS'assemblage-21-3'
p147
(lp148
I0
ag3
(g7
S'\xc1\xa1\xb4\xfa?b\xeb?'
p149
tp150
Rp151
aI0
aI0
aI0
ag3
(g7
S'\x8b`\xb8dc\xc1\xb2?'
p152
tp153
Rp154
aI0
aI0
ag3
(g7
S'1^a\xaa\xabHp?'
p155
tp156
Rp157
aI0
aI0
ag3
(g7
S'\xeci\x8b\xff\xea\x13\xaa?'
p158
tp159
Rp160
aI0
aI0
aI0
aI0
aI0
ag3
(g7
S'\xd00=\xa0j1i?'
p161
tp162
Rp163
aI0
asS'assemblage-28-3'
p164
(lp165
I0
ag3
(g7
S'\x89\xcb\xef\x8a4\xcf\xef?'
p166
tp167
Rp168
ag3
(g7
S'\x10\xedA\x07\x08\x90p?'
p169
tp170
Rp171
aI0
aI0
aI0
aI0
aI0
aI0
aI0
aI0
aI0
aI0
aI0
aI0
aI0
aI0
aI0
aI0
asS'assemblage-25-4'
p172
(lp173
I0
ag3
(g7
S'\x14V\\nnC\xe2?'
p174
tp175
Rp176
aI0
aI0
aI0
aI0
ag3
(g7
S'\x95\x01d%\xa5\x10\xbd?'
p177
tp178
Rp179
aI0
aI0
ag3
(g7
S']\x84\xc6`\xf0\xd6\xd0?'
p180
tp181
Rp182
aI0
ag3
(g7
S"G\x15\xf3 '\xbc\xa0?"
p183
tp184
Rp185
aI0
aI0
aI0
aI0
aI0
aI0
aI0
asS'assemblage-6-2'
p186
(lp187
I0
ag3
(g7
S'b\x9b\xa4\xb5\xc4\x9c\xef?'
p188
tp189
Rp190
aI0
aI0
aI0
aI0
aI0
ag3
(g7
S'<C\xb8\xb6m\x81r?'
p191
tp192
Rp193
aI0
aI0
ag3
(g7
S'\xee\x9da\x19\xce:p?'
p194
tp195
Rp196
aI0
aI0
aI0
aI0
aI0
aI0
aI0
aI0
asS'assemblage-7-3'
p197
(lp198
I0
ag3
(g7
S'T\xe8\x1d\xfd\x1f<\xec?'
p199
tp200
Rp201
aI0
aI0
aI0
ag3
(g7
S'\xf6m\xc0o\xf0f\xa6?'
p202
tp203
Rp204
aI0
aI0
aI0
aI0
aI0
ag3
(g7
S'\x08\xc9%\xc1\x02\xad\xaa?'
p205
tp206
Rp207
aI0
aI0
aI0
ag3
(g7
S'3\xc3AL\x1eQq?'
p208
tp209
Rp210
aI0
ag3
(g7
S'\x9b\x06\xbdU\xadRt?'
p211
tp212
Rp213
aI0
asS'assemblage-20-3'
p214
(lp215
I0
ag3
(g7
S'\xe1\x88f\x99\xad\xcc\xef?'
p216
tp217
Rp218
aI0
aI0
aI0
aI0
aI0
aI0
aI0
aI0
aI0
aI0
aI0
ag3
(g7
S' ?\xab\x88\xb4\xc1q?'
p219
tp220
Rp221
aI0
aI0
aI0
aI0
aI0
asS'assemblage-20-1'
p222
(lp223
g3
(g7
S'\xa8/\xf3$\x0fUs?'
p224
tp225
Rp226
ag3
(g7
S'\tW\xc9}\xd7\xcd\xdb?'
p227
tp228
Rp229
aI0
aI0
aI0
aI0
ag3
(g7
S'\xb7\x81\xe7B\xc5c\xc2?'
p230
tp231
Rp232
aI0
aI0
ag3
(g7
S'\xbf\xa9\xc5\xc7\xe6f\xd9?'
p233
tp234
Rp235
aI0
aI0
aI0
aI0
aI0
aI0
aI0
aI0
aI0
asS'assemblage-18-4'
p236
(lp237
I0
ag3
(g7
S'\x1c{Qd\xd0\x07\xed?'
p238
tp239
Rp240
aI0
aI0
aI0
ag3
(g7
S'1\xd38\xa0\xa1I\x9e?'
p241
tp242
Rp243
aI0
aI0
aI0
aI0
aI0
ag3
(g7
S'\xfb-IN\x82\xb0\xa8?'
p244
tp245
Rp246
aI0
aI0
ag3
(g7
S'\x93t\xec\xc8Z2p?'
p247
tp248
Rp249
aI0
aI0
aI0
aI0
asS'assemblage-16-2'
p250
(lp251
I0
ag3
(g7
S'\xe0\xf1Z\t[\x8a\xe6?'
p252
tp253
Rp254
aI0
aI0
aI0
ag3
(g7
S'Uv\xb5o\xfb\xc4\x8e?'
p255
tp256
Rp257
aI0
aI0
aI0
aI0
aI0
ag3
(g7
S'\xac\xec\xdf\xc4\\\xa0\xd0?'
p258
tp259
Rp260
aI0
aI0
aI0
aI0
aI0
aI0
ag3
(g7
S'4\xe9\xf7MtIq?'
p261
tp262
Rp263
asS'assemblage-19-1'
p264
(lp265
g3
(g7
S'\xb6\x92C\x0bu\xb1p?'
p266
tp267
Rp268
ag3
(g7
S'sH\x1fsr%\xe6?'
p269
tp270
Rp271
aI0
aI0
aI0
ag3
(g7
S'\xc2-\xea{>\x01\x8b?'
p272
tp273
Rp274
ag3
(g7
S'CU\xf2($Q\xa2?'
p275
tp276
Rp277
aI0
aI0
ag3
(g7
S'\xe2\xc25\x8c\xb7\x9a\xb7?'
p278
tp279
Rp280
aI0
ag3
(g7
S'!=\xad\xe0Y\x80\xc1?'
p281
tp282
Rp283
ag3
(g7
S'\xcbe\xf9\xb4\xe8\x19q?'
p284
tp285
Rp286
aI0
aI0
aI0
aI0
aI0
aI0
asS'assemblage-4-4'
p287
(lp288
g3
(g7
S'\xeb\x99_\xc0\xee\xf6\x91?'
p289
tp290
Rp291
ag3
(g7
S'\xe7v}\xb2#\xc8\xe2?'
p292
tp293
Rp294
aI0
aI0
aI0
aI0
ag3
(g7
S'T\xbd\x95\x9e[+\x97?'
p295
tp296
Rp297
aI0
aI0
ag3
(g7
S'\xaa\xc2\xdf\x94q\xd7\xd2?'
p298
tp299
Rp300
aI0
aI0
ag3
(g7
S'\xf4\xf6\x90}\xeb\xa2\xad?'
p301
tp302
Rp303
aI0
aI0
aI0
aI0
aI0
aI0
as.