(dp0
S'assemblage-17-4'
p1
(lp2
F0.0
aF0.0
aF0.0
aF0.0
aF0.0
aF0.0
aF0.0
aF0.29832113646147224
aF0.0
aF0.6874730951356005
aF0.0
aF0.0
aF0.0
aF0.0017219113215669393
aF0.01248385708136031
aF0.0
aF0.0
aF0.0
asS'assemblage-13-43'
p3
(lp4
F0.0
aF0.0
aF0.0
aF0.0
aF0.0
aF0.0
aF0.0
aF0.0
aF0.0
aF0.0
aF0.0
aF0.0
aF0.0
aF0.0
aF1.0
aF0.0
aF0.0
aF0.0
asS'assemblage-14-31'
p5
(lp6
F0.0
aF0.0
aF0.0
aF0.0
aF0.0
aF0.0
aF0.0
aF0.0
aF1.827674649543386e-05
aF0.0
aF0.0
aF0.0
aF0.0
aF0.0
aF0.9999817232535045
aF0.0
aF0.0
aF0.0
asS'assemblage-25-47'
p7
(lp8
F0.0
aF0.0
aF0.0
aF0.9926818768833405
aF0.0
aF0.0
aF0.0
aF0.0
aF0.0
aF0.0
aF0.0
aF0.0
aF0.0
aF0.0
aF0.007318123116659492
aF0.0
aF0.0
aF0.0
asS'assemblage-53-34'
p9
(lp10
F6.0727146856459246e-06
aF6.0727146856459246e-06
aF0.0
aF0.0
aF0.0
aF0.0
aF0.0
aF0.0
aF0.0
aF0.0
aF0.0
aF0.0
aF0.0
aF0.0
aF0.9999574909972004
aF1.8218144056937773e-05
aF6.0727146856459246e-06
aF6.0727146856459246e-06
asS'assemblage-62-37'
p11
(lp12
F0.0
aF0.0
aF0.0
aF0.0
aF0.0
aF0.0
aF0.0
aF0.0
aF0.0
aF0.0
aF0.0
aF0.0
aF0.0
aF0.0
aF1.0
aF0.0
aF0.0
aF0.0
asS'assemblage-60-72'
p13
(lp14
F0.0
aF0.0
aF0.0
aF0.2675419715884632
aF0.0
aF0.0
aF0.00021523891519586742
aF0.07404218682737838
aF0.0
aF0.17197589324149806
aF0.0
aF0.0
aF0.0
aF0.2376237623762376
aF0.24860094705122687
aF0.0
aF0.0
aF0.0
asS'assemblage-17-33'
p15
(lp16
F0.0
aF0.0
aF0.0
aF0.0
aF0.0010087547686589064
aF1.2227330529198865e-05
aF0.0
aF0.0
aF0.0
aF0.0
aF0.0
aF0.0
aF3.0568326322997164e-05
aF0.0
aF0.9989484495744889
aF0.0
aF0.0
aF0.0
asS'assemblage-3-10'
p17
(lp18
F0.0
aF0.0
aF0.0
aF0.0
aF0.0003362515895529688
aF6.113665264599432e-06
aF0.0
aF0.0
aF0.0
aF0.0
aF0.0
aF0.0
aF6.113665264599432e-06
aF0.0
aF0.9996515210799178
aF0.0
aF0.0
aF0.0
as.