(dp0
S'assemblage-17-4'
p1
(lp2
I0
aI0
aI0
aI0
aI0
aI0
aI0
acnumpy.core.multiarray
scalar
p3
(cnumpy
dtype
p4
(S'f8'
p5
I0
I1
tp6
Rp7
(I3
S'<'
p8
NNNI-1
I-1
I0
tp9
bS'\xc5*\xe7Ml\x0f\xd3?'
p10
tp11
Rp12
aI0
ag3
(g7
S'\xdeI*\xef~\xee\xe5?'
p13
tp14
Rp15
aI0
aI0
aI0
ag3
(g7
S'\xe1\x8cH,,XY?'
p16
tp17
Rp18
ag3
(g7
S'\x8c\x16\x90A\xefD\x89?'
p19
tp20
Rp21
aI0
aI0
aI0
asS'assemblage-13-43'
p22
(lp23
I0
aI0
aI0
aI0
aI0
aI0
aI0
aI0
aI0
aI0
aI0
aI0
aI0
aI0
ag3
(g7
S'\x00\x00\x00\x00\x00\x00\xf0?'
p24
tp25
Rp26
aI0
aI0
aI0
asS'assemblage-14-31'
p27
(lp28
I0
aI0
aI0
aI0
aI0
aI0
aI0
aI0
ag3
(g7
S'0\xff\x9eV\xcbD\xef>'
p29
tp30
Rp31
aI0
aI0
aI0
aI0
aI0
ag3
(g7
S'\xf9,\xd5|\xd8\xff\xef?'
p32
tp33
Rp34
aI0
aI0
aI0
asS'assemblage-25-47'
p35
(lp36
I0
aI0
aI0
ag3
(g7
S'\xc1\x08\xf4\xb9\xf4\xc1\xef?'
p37
tp38
Rp39
aI0
aI0
aI0
aI0
aI0
aI0
aI0
aI0
aI0
aI0
ag3
(g7
S'\xdaA\x93f\xd4>}?'
p40
tp41
Rp42
aI0
aI0
aI0
asS'assemblage-53-34'
p43
(lp44
g3
(g7
S"c'-5\xdb\xed\xd4>"
p45
tp46
Rp47
ag3
(g7
S"\xfd\xdd\x9aO'\x17\xd4>"
p48
tp49
Rp50
aI0
aI0
aI0
aI0
aI0
aI0
aI0
aI0
aI0
aI0
aI0
aI0
ag3
(g7
S'\xf1Jl{\xa2\xff\xef?'
p51
tp52
Rp53
ag3
(g7
S'q\xb4\xd8\xf1\x81\xe4\xf0>'
p54
tp55
Rp56
ag3
(g7
S'\xb8\xf0\xaeM\xd5\xa2\xd1>'
p57
tp58
Rp59
ag3
(g7
S'gb\x83o\x16\xdd\xd3>'
p60
tp61
Rp62
asS'assemblage-62-37'
p63
(lp64
I0
aI0
aI0
aI0
aI0
aI0
aI0
aI0
aI0
aI0
aI0
aI0
aI0
aI0
ag3
(g7
S'\x00\x00\x00\x00\x00\x00\xf0?'
p65
tp66
Rp67
aI0
aI0
aI0
asS'assemblage-60-72'
p68
(lp69
I0
aI0
aI0
ag3
(g7
S'\xdd\x8b\x8aW\xc7\r\xd1?'
p70
tp71
Rp72
aI0
aI0
ag3
(g7
S'@]\x13\x8b\xa3\x10%?'
p73
tp74
Rp75
ag3
(g7
S'\x04u\xacY\xda\xb3\xb2?'
p76
tp77
Rp78
aI0
ag3
(g7
S'\xc1\xa1\xc54\xed\xf1\xc5?'
p79
tp80
Rp81
aI0
aI0
aI0
ag3
(g7
S'c\\\xfb6\xd0F\xce?'
p82
tp83
Rp84
ag3
(g7
S'\n\x87\x97\xe4;\x8f\xcf?'
p85
tp86
Rp87
aI0
aI0
aI0
asS'assemblage-17-33'
p88
(lp89
I0
aI0
aI0
aI0
ag3
(g7
S'\x9dW%\x1esjP?'
p90
tp91
Rp92
ag3
(g7
S'\x8a\xb0\x05\xc5\x8fH\xe6>'
p93
tp94
Rp95
aI0
aI0
aI0
aI0
aI0
aI0
ag3
(g7
S'\xd2\xe8\xf8t\xd8\x15\xfd>'
p96
tp97
Rp98
aI0
ag3
(g7
S'\xa9\xf1+s.\xf7\xef?'
p99
tp100
Rp101
aI0
aI0
aI0
asS'assemblage-3-10'
p102
(lp103
I0
aI0
aI0
aI0
ag3
(g7
S'\xb3\xe3\x9e\xfd\xe9\xbc5?'
p104
tp105
Rp106
ag3
(g7
S'\xc3\x8a\xbcF\xdam\xd0>'
p107
tp108
Rp109
aI0
aI0
aI0
aI0
aI0
aI0
ag3
(g7
S'\xc3\x87\x02P\xe5\xde\xd5>'
p110
tp111
Rp112
aI0
ag3
(g7
S'z\xb3$]\x0b\xfd\xef?'
p113
tp114
Rp115
aI0
aI0
aI0
as.