ccopy_reg
_reconstructor
p0
(cnetworkx.classes.graph
Graph
p1
c__builtin__
object
p2
Ntp3
Rp4
(dp5
S'node'
p6
(dp7
S'assemblage-7-19'
p8
(dp9
S'name'
p10
g8
ssS'assemblage-22-7'
p11
(dp12
g10
g11
ssS'assemblage-23-74'
p13
(dp14
g10
g13
ssS'assemblage-22-14'
p15
(dp16
g10
g15
ssS'assemblage-14-48'
p17
(dp18
g10
g17
ssS'assemblage-30-41'
p19
(dp20
g10
g19
ssS'assemblage-36-52'
p21
(dp22
g10
g21
ssS'assemblage-8-62'
p23
(dp24
g10
g23
ssS'assemblage-73-34'
p25
(dp26
g10
g25
ssS'assemblage-26-30'
p27
(dp28
g10
g27
ssS'assemblage-40-73'
p29
(dp30
g10
g29
ssS'assemblage-4-55'
p31
(dp32
g10
g31
ssS'assemblage-55-48'
p33
(dp34
g10
g33
ssS'assemblage-44-53'
p35
(dp36
g10
g35
ssS'assemblage-33-47'
p37
(dp38
g10
g37
sssS'graph'
p39
(dp40
S'is_directed'
p41
I00
ssS'edge'
p42
(dp43
g8
(dp44
g11
(dp45
S'weight'
p46
S'MMMUMMMMMMMMMMMMMMMMMMMMMMMMMMMMMMMMMMMMMMMMMMMMMMMMMMMMMMMMMMMMMMMMMMMMMMMMMMMMDMMMMMMMMMMMMMMMMMMMMMMM'
p47
ssg13
(dp48
g46
S'MMMUMMMMMMMMMMMMMMMMMMMMMMMMMMMMMMMMMMMMMMMMMMMMMMMMMMMMMMMMMMMMMMMMMMMMMMMMMMMMDMMMMMMMMMMMMMMMMMMMMMMM'
p49
ssg15
(dp50
g46
S'MMMUMMMMMMMMMMMMMMMMMMMMMMMMMMMMMMMMMMMMMMMMMMMMMMMMMMMMMMMMMMMMMMMMMMMMMMMMMMMMDMMMMMMMMMMMMMMMMMMMMMMM'
p51
ssg17
(dp52
g46
S'MMMDMMMMMMMMMMMMMMMMMMMUMMMMMMMMMMMMMMMMMMMMMMMMMMMMMMMMMMMMMMMMMMMMMMMMMMMMMMMMDMMMMMMMMMUMMMMMMMMMMMMM'
p53
ssg19
(dp54
g46
S'MMMDMMMMMMMMMMMMMMMMMMMMMMMMMMMMMMMMMMMMMMMMMMMMMMMUMMMMMMMMMMMMMMMMMMMMMMMMMMMMDMMMMMMMMMMMMMMMMMMMMMMM'
p55
ssg21
(dp56
g46
S'MMMDMMMMMMMMMMMMMMMMMMMMMMMMMMMMMMMMMMMMUMMMUMMMMMMMMMMMMMMMMMMMMMMMMMMMMMMMMMMMDMMMMMMMMMMMMMMUMMMMMMMM'
p57
ssg23
(dp58
g46
S'MMMUMMMMMMMMMMMMMMMMMMMMMMMMMMMMMMMMMMMMMMMMMMMMMMMMMMMMMMMMMMMMMMMMMMMMMMMMMMMMDMMMMMMMMMMMMMMMMMMMMMMM'
p59
ssg25
(dp60
g46
S'MMMDMMMMMMMMMMMMMMMMMMMMMMMMMMMMMMMMMMMMMMMMMMMMMMMMMMMMMMMMMMMMMMMMMMMMMMMMMMMMDMMMMMMMMMUMMMMMMMMMMMMM'
p61
ssg27
(dp62
g46
S'MMMDMMMMMMMMMMMMMMMMMMMMMMMMMUMMMMMMMMMMMMMMMMMMMMMMMMMMMMMMMMMMMMMMMMMMMMMMMMMMDMMMMMMMMMMMMMMUMMMMMMMM'
p63
ssg29
(dp64
g46
S'MMMDMMMMMMMMMMMMMMMMMMMMMMMMMMMMMMMMMMMMMMMMMMMMMMMMMMMMMMUMUMMMMMMMMMMMMMMMMMMMDMMMMMMMMMMMMMMMMMMMMMMM'
p65
ssg31
(dp66
g46
S'MMMDMMMMMMMMMMMMMMMMMMMMMMMMUMMMMMMMMMMMMMMMMMMMMMMMMMMMMMMMMMMMMMMMMMMMMMMMMMMMDMMMMMMMMMMMMMMUMMMMMMMM'
p67
ssg33
(dp68
g46
S'MMMDMMMMMMMMMMMMMMMMMMMMMMMMMMMMMMMMMMMMMMMMMMMMMMMUMMMMMMMMMMMMMUMMMMMMMMMMMMMMDMMMMMMMMMMMMMMMMMMMMMMM'
p69
ssg35
(dp70
g46
S'MMMDMUUMMMMMMMMMMMMMMMMMMMMMMMUMMMMMUMMMMMMMMMMMMMMMMMMMMMMMMMMMMMMMUMMMMMMMMMMMDMMMMMMMMMMMMMMMUMMMMMMM'
p71
ssg37
(dp72
g46
S'MMMUMMMMMMMMMMMMMMMMMMMMMMMMMMMMMMMMMMMMMMMMMMMMMMMMMMMMMMMMMMMMMMMMMMMMMMMMMMMMDMMMMMMMMMMMMMMMMMMMMMMM'
p73
sssg11
(dp74
g8
g45
sg13
(dp75
g46
S'MMMMMMMMMMMMMMMMMMMMMMMMMMMMMMMMMMMMMMMMMMMMMMMMMMMMMMMMMMMMMMMMMMMMMMMMMMMMMMMMMMMMMMMMMMMMMMMMMMMMMMMM'
p76
ssg15
(dp77
g46
S'MMMMMMMMMMMMMMMMMMMMMMMMMMMMMMMMMMMMMMMMMMMMMMMMMMMMMMMMMMMMMMMMMMMMMMMMMMMMMMMMMMMMMMMMMMMMMMMMMMMMMMMM'
p78
ssg17
(dp79
g46
S'MMMDMMMMMMMMMMMMMMMMMMMUMMMMMMMMMMMMMMMMMMMMMMMMMMMMMMMMMMMMMMMMMMMMMMMMMMMMMMMMMMMMMMMMMMUMMMMMMMMMMMMM'
p80
ssg19
(dp81
g46
S'MMMDMMMMMMMMMMMMMMMMMMMMMMMMMMMMMMMMMMMMMMMMMMMMMMMUMMMMMMMMMMMMMMMMMMMMMMMMMMMMMMMMMMMMMMMMMMMMMMMMMMMM'
p82
ssg21
(dp83
g46
S'MMMDMMMMMMMMMMMMMMMMMMMMMMMMMMMMMMMMMMMMUMMMUMMMMMMMMMMMMMMMMMMMMMMMMMMMMMMMMMMMMMMMMMMMMMMMMMMUMMMMMMMM'
p84
ssg23
(dp85
g46
S'MMMMMMMMMMMMMMMMMMMMMMMMMMMMMMMMMMMMMMMMMMMMMMMMMMMMMMMMMMMMMMMMMMMMMMMMMMMMMMMMMMMMMMMMMMMMMMMMMMMMMMMM'
p86
ssg25
(dp87
g46
S'MMMDMMMMMMMMMMMMMMMMMMMMMMMMMMMMMMMMMMMMMMMMMMMMMMMMMMMMMMMMMMMMMMMMMMMMMMMMMMMMMMMMMMMMMMUMMMMMMMMMMMMM'
p88
ssg27
(dp89
g46
S'MMMDMMMMMMMMMMMMMMMMMMMMMMMMMUMMMMMMMMMMMMMMMMMMMMMMMMMMMMMMMMMMMMMMMMMMMMMMMMMMMMMMMMMMMMMMMMMUMMMMMMMM'
p90
ssg29
(dp91
g46
S'MMMDMMMMMMMMMMMMMMMMMMMMMMMMMMMMMMMMMMMMMMMMMMMMMMMMMMMMMMUMUMMMMMMMMMMMMMMMMMMMMMMMMMMMMMMMMMMMMMMMMMMM'
p92
ssg31
(dp93
g46
S'MMMDMMMMMMMMMMMMMMMMMMMMMMMMUMMMMMMMMMMMMMMMMMMMMMMMMMMMMMMMMMMMMMMMMMMMMMMMMMMMMMMMMMMMMMMMMMMUMMMMMMMM'
p94
ssg33
(dp95
g46
S'MMMDMMMMMMMMMMMMMMMMMMMMMMMMMMMMMMMMMMMMMMMMMMMMMMMUMMMMMMMMMMMMMUMMMMMMMMMMMMMMMMMMMMMMMMMMMMMMMMMMMMMM'
p96
ssg35
(dp97
g46
S'MMMDMUUMMMMMMMMMMMMMMMMMMMMMMMUMMMMMUMMMMMMMMMMMMMMMMMMMMMMMMMMMMMMMUMMMMMMMMMMMMMMMMMMMMMMMMMMMUMMMMMMM'
p98
ssg37
(dp99
g46
S'MMMMMMMMMMMMMMMMMMMMMMMMMMMMMMMMMMMMMMMMMMMMMMMMMMMMMMMMMMMMMMMMMMMMMMMMMMMMMMMMMMMMMMMMMMMMMMMMMMMMMMMM'
p100
sssg13
(dp101
g8
g48
sg11
g75
sg15
(dp102
g46
S'MMMMMMMMMMMMMMMMMMMMMMMMMMMMMMMMMMMMMMMMMMMMMMMMMMMMMMMMMMMMMMMMMMMMMMMMMMMMMMMMMMMMMMMMMMMMMMMMMMMMMMMM'
p103
ssg17
(dp104
g46
S'MMMDMMMMMMMMMMMMMMMMMMMUMMMMMMMMMMMMMMMMMMMMMMMMMMMMMMMMMMMMMMMMMMMMMMMMMMMMMMMMMMMMMMMMMMUMMMMMMMMMMMMM'
p105
ssg19
(dp106
g46
S'MMMDMMMMMMMMMMMMMMMMMMMMMMMMMMMMMMMMMMMMMMMMMMMMMMMUMMMMMMMMMMMMMMMMMMMMMMMMMMMMMMMMMMMMMMMMMMMMMMMMMMMM'
p107
ssg21
(dp108
g46
S'MMMDMMMMMMMMMMMMMMMMMMMMMMMMMMMMMMMMMMMMUMMMUMMMMMMMMMMMMMMMMMMMMMMMMMMMMMMMMMMMMMMMMMMMMMMMMMMUMMMMMMMM'
p109
ssg23
(dp110
g46
S'MMMMMMMMMMMMMMMMMMMMMMMMMMMMMMMMMMMMMMMMMMMMMMMMMMMMMMMMMMMMMMMMMMMMMMMMMMMMMMMMMMMMMMMMMMMMMMMMMMMMMMMM'
p111
ssg25
(dp112
g46
S'MMMDMMMMMMMMMMMMMMMMMMMMMMMMMMMMMMMMMMMMMMMMMMMMMMMMMMMMMMMMMMMMMMMMMMMMMMMMMMMMMMMMMMMMMMUMMMMMMMMMMMMM'
p113
ssg27
(dp114
g46
S'MMMDMMMMMMMMMMMMMMMMMMMMMMMMMUMMMMMMMMMMMMMMMMMMMMMMMMMMMMMMMMMMMMMMMMMMMMMMMMMMMMMMMMMMMMMMMMMUMMMMMMMM'
p115
ssg29
(dp116
g46
S'MMMDMMMMMMMMMMMMMMMMMMMMMMMMMMMMMMMMMMMMMMMMMMMMMMMMMMMMMMUMUMMMMMMMMMMMMMMMMMMMMMMMMMMMMMMMMMMMMMMMMMMM'
p117
ssg31
(dp118
g46
S'MMMDMMMMMMMMMMMMMMMMMMMMMMMMUMMMMMMMMMMMMMMMMMMMMMMMMMMMMMMMMMMMMMMMMMMMMMMMMMMMMMMMMMMMMMMMMMMUMMMMMMMM'
p119
ssg33
(dp120
g46
S'MMMDMMMMMMMMMMMMMMMMMMMMMMMMMMMMMMMMMMMMMMMMMMMMMMMUMMMMMMMMMMMMMUMMMMMMMMMMMMMMMMMMMMMMMMMMMMMMMMMMMMMM'
p121
ssg35
(dp122
g46
S'MMMDMUUMMMMMMMMMMMMMMMMMMMMMMMUMMMMMUMMMMMMMMMMMMMMMMMMMMMMMMMMMMMMMUMMMMMMMMMMMMMMMMMMMMMMMMMMMUMMMMMMM'
p123
ssg37
(dp124
g46
S'MMMMMMMMMMMMMMMMMMMMMMMMMMMMMMMMMMMMMMMMMMMMMMMMMMMMMMMMMMMMMMMMMMMMMMMMMMMMMMMMMMMMMMMMMMMMMMMMMMMMMMMM'
p125
sssg15
(dp126
g8
g50
sg11
g77
sg13
g102
sg17
(dp127
g46
S'MMMDMMMMMMMMMMMMMMMMMMMUMMMMMMMMMMMMMMMMMMMMMMMMMMMMMMMMMMMMMMMMMMMMMMMMMMMMMMMMMMMMMMMMMMUMMMMMMMMMMMMM'
p128
ssg19
(dp129
g46
S'MMMDMMMMMMMMMMMMMMMMMMMMMMMMMMMMMMMMMMMMMMMMMMMMMMMUMMMMMMMMMMMMMMMMMMMMMMMMMMMMMMMMMMMMMMMMMMMMMMMMMMMM'
p130
ssg21
(dp131
g46
S'MMMDMMMMMMMMMMMMMMMMMMMMMMMMMMMMMMMMMMMMUMMMUMMMMMMMMMMMMMMMMMMMMMMMMMMMMMMMMMMMMMMMMMMMMMMMMMMUMMMMMMMM'
p132
ssg23
(dp133
g46
S'MMMMMMMMMMMMMMMMMMMMMMMMMMMMMMMMMMMMMMMMMMMMMMMMMMMMMMMMMMMMMMMMMMMMMMMMMMMMMMMMMMMMMMMMMMMMMMMMMMMMMMMM'
p134
ssg25
(dp135
g46
S'MMMDMMMMMMMMMMMMMMMMMMMMMMMMMMMMMMMMMMMMMMMMMMMMMMMMMMMMMMMMMMMMMMMMMMMMMMMMMMMMMMMMMMMMMMUMMMMMMMMMMMMM'
p136
ssg27
(dp137
g46
S'MMMDMMMMMMMMMMMMMMMMMMMMMMMMMUMMMMMMMMMMMMMMMMMMMMMMMMMMMMMMMMMMMMMMMMMMMMMMMMMMMMMMMMMMMMMMMMMUMMMMMMMM'
p138
ssg29
(dp139
g46
S'MMMDMMMMMMMMMMMMMMMMMMMMMMMMMMMMMMMMMMMMMMMMMMMMMMMMMMMMMMUMUMMMMMMMMMMMMMMMMMMMMMMMMMMMMMMMMMMMMMMMMMMM'
p140
ssg31
(dp141
g46
S'MMMDMMMMMMMMMMMMMMMMMMMMMMMMUMMMMMMMMMMMMMMMMMMMMMMMMMMMMMMMMMMMMMMMMMMMMMMMMMMMMMMMMMMMMMMMMMMUMMMMMMMM'
p142
ssg33
(dp143
g46
S'MMMDMMMMMMMMMMMMMMMMMMMMMMMMMMMMMMMMMMMMMMMMMMMMMMMUMMMMMMMMMMMMMUMMMMMMMMMMMMMMMMMMMMMMMMMMMMMMMMMMMMMM'
p144
ssg35
(dp145
g46
S'MMMDMUUMMMMMMMMMMMMMMMMMMMMMMMUMMMMMUMMMMMMMMMMMMMMMMMMMMMMMMMMMMMMMUMMMMMMMMMMMMMMMMMMMMMMMMMMMUMMMMMMM'
p146
ssg37
(dp147
g46
S'MMMMMMMMMMMMMMMMMMMMMMMMMMMMMMMMMMMMMMMMMMMMMMMMMMMMMMMMMMMMMMMMMMMMMMMMMMMMMMMMMMMMMMMMMMMMMMMMMMMMMMMM'
p148
sssg17
(dp149
g8
g52
sg11
g79
sg13
g104
sg15
g127
sg19
(dp150
g46
S'MMMUMMMMMMMMMMMMMMMMMMMDMMMMMMMMMMMMMMMMMMMMMMMMMMMUMMMMMMMMMMMMMMMMMMMMMMMMMMMMMMMMMMMMMMDMMMMMMMMMMMMM'
p151
ssg21
(dp152
g46
S'MMMDMMMMMMMMMMMMMMMMMMMDMMMMMMMMMMMMMMMMUMMMUMMMMMMMMMMMMMMMMMMMMMMMMMMMMMMMMMMMMMMMMMMMMMDMMMMUMMMMMMMM'
p153
ssg23
(dp154
g46
S'MMMUMMMMMMMMMMMMMMMMMMMDMMMMMMMMMMMMMMMMMMMMMMMMMMMMMMMMMMMMMMMMMMMMMMMMMMMMMMMMMMMMMMMMMMDMMMMMMMMMMMMM'
p155
ssg25
(dp156
g46
S'MMMUMMMMMMMMMMMMMMMMMMMDMMMMMMMMMMMMMMMMMMMMMMMMMMMMMMMMMMMMMMMMMMMMMMMMMMMMMMMMMMMMMMMMMMDMMMMMMMMMMMMM'
p157
ssg27
(dp158
g46
S'MMMDMMMMMMMMMMMMMMMMMMMDMMMMMUMMMMMMMMMMMMMMMMMMMMMMMMMMMMMMMMMMMMMMMMMMMMMMMMMMMMMMMMMMMMDMMMMUMMMMMMMM'
p159
ssg29
(dp160
g46
S'MMMUMMMMMMMMMMMMMMMMMMMDMMMMMMMMMMMMMMMMMMMMMMMMMMMMMMMMMMUMUMMMMMMMMMMMMMMMMMMMMMMMMMMMMMDMMMMMMMMMMMMM'
p161
ssg31
(dp162
g46
S'MMMUMMMMMMMMMMMMMMMMMMMDMMMMUMMMMMMMMMMMMMMMMMMMMMMMMMMMMMMMMMMMMMMMMMMMMMMMMMMMMMMMMMMMMMDMMMMUMMMMMMMM'
p163
ssg33
(dp164
g46
S'MMMDMMMMMMMMMMMMMMMMMMMDMMMMMMMMMMMMMMMMMMMMMMMMMMMUMMMMMMMMMMMMMUMMMMMMMMMMMMMMMMMMMMMMMMDMMMMMMMMMMMMM'
p165
ssg35
(dp166
g46
S'MMMUMUUMMMMMMMMMMMMMMMMDMMMMMMUMMMMMUMMMMMMMMMMMMMMMMMMMMMMMMMMMMMMMUMMMMMMMMMMMMMMMMMMMMMDMMMMMUMMMMMMM'
p167
ssg37
(dp168
g46
S'MMMUMMMMMMMMMMMMMMMMMMMDMMMMMMMMMMMMMMMMMMMMMMMMMMMMMMMMMMMMMMMMMMMMMMMMMMMMMMMMMMMMMMMMMMDMMMMMMMMMMMMM'
p169
sssg19
(dp170
g8
g54
sg11
g81
sg13
g106
sg15
g129
sg17
g150
sg21
(dp171
g46
S'MMMDMMMMMMMMMMMMMMMMMMMMMMMMMMMMMMMMMMMMUMMMUMMMMMMDMMMMMMMMMMMMMMMMMMMMMMMMMMMMMMMMMMMMMMMMMMMUMMMMMMMM'
p172
ssg23
(dp173
g46
S'MMMUMMMMMMMMMMMMMMMMMMMMMMMMMMMMMMMMMMMMMMMMMMMMMMMDMMMMMMMMMMMMMMMMMMMMMMMMMMMMMMMMMMMMMMMMMMMMMMMMMMMM'
p174
ssg25
(dp175
g46
S'MMMDMMMMMMMMMMMMMMMMMMMMMMMMMMMMMMMMMMMMMMMMMMMMMMMDMMMMMMMMMMMMMMMMMMMMMMMMMMMMMMMMMMMMMMUMMMMMMMMMMMMM'
p176
ssg27
(dp177
g46
S'MMMDMMMMMMMMMMMMMMMMMMMMMMMMMUMMMMMMMMMMMMMMMMMMMMMDMMMMMMMMMMMMMMMMMMMMMMMMMMMMMMMMMMMMMMMMMMMUMMMMMMMM'
p178
ssg29
(dp179
g46
S'MMMUMMMMMMMMMMMMMMMMMMMMMMMMMMMMMMMMMMMMMMMMMMMMMMMDMMMMMMUMUMMMMMMMMMMMMMMMMMMMMMMMMMMMMMMMMMMMMMMMMMMM'
p180
ssg31
(dp181
g46
S'MMMDMMMMMMMMMMMMMMMMMMMMMMMMUMMMMMMMMMMMMMMMMMMMMMMDMMMMMMMMMMMMMMMMMMMMMMMMMMMMMMMMMMMMMMMMMMMUMMMMMMMM'
p182
ssg33
(dp183
g46
S'MMMDMMMMMMMMMMMMMMMMMMMMMMMMMMMMMMMMMMMMMMMMMMMMMMMUMMMMMMMMMMMMMUMMMMMMMMMMMMMMMMMMMMMMMMMMMMMMMMMMMMMM'
p184
ssg35
(dp185
g46
S'MMMUMUUMMMMMMMMMMMMMMMMMMMMMMMUMMMMMUMMMMMMMMMMMMMMDMMMMMMMMMMMMMMMMUMMMMMMMMMMMMMMMMMMMMMMMMMMMUMMMMMMM'
p186
ssg37
(dp187
g46
S'MMMUMMMMMMMMMMMMMMMMMMMMMMMMMMMMMMMMMMMMMMMMMMMMMMMDMMMMMMMMMMMMMMMMMMMMMMMMMMMMMMMMMMMMMMMMMMMMMMMMMMMM'
p188
sssg21
(dp189
g8
g56
sg11
g83
sg13
g108
sg15
g131
sg17
g152
sg19
g171
sg23
(dp190
g46
S'MMMUMMMMMMMMMMMMMMMMMMMMMMMMMMMMMMMMMMMMDMMMDMMMMMMMMMMMMMMMMMMMMMMMMMMMMMMMMMMMMMMMMMMMMMMMMMMDMMMMMMMM'
p191
ssg25
(dp192
g46
S'MMMUMMMMMMMMMMMMMMMMMMMMMMMMMMMMMMMMMMMMDMMMDMMMMMMMMMMMMMMMMMMMMMMMMMMMMMMMMMMMMMMMMMMMMMUMMMMDMMMMMMMM'
p193
ssg27
(dp194
g46
S'MMMUMMMMMMMMMMMMMMMMMMMMMMMMMUMMMMMMMMMMDMMMDMMMMMMMMMMMMMMMMMMMMMMMMMMMMMMMMMMMMMMMMMMMMMMMMMMDMMMMMMMM'
p195
ssg29
(dp196
g46
S'MMMUMMMMMMMMMMMMMMMMMMMMMMMMMMMMMMMMMMMMDMMMDMMMMMMMMMMMMMUMUMMMMMMMMMMMMMMMMMMMMMMMMMMMMMMMMMMDMMMMMMMM'
p197
ssg31
(dp198
g46
S'MMMUMMMMMMMMMMMMMMMMMMMMMMMMUMMMMMMMMMMMDMMMDMMMMMMMMMMMMMMMMMMMMMMMMMMMMMMMMMMMMMMMMMMMMMMMMMMDMMMMMMMM'
p199
ssg33
(dp200
g46
S'MMMUMMMMMMMMMMMMMMMMMMMMMMMMMMMMMMMMMMMMDMMMDMMMMMMUMMMMMMMMMMMMMUMMMMMMMMMMMMMMMMMMMMMMMMMMMMMDMMMMMMMM'
p201
ssg35
(dp202
g46
S'MMMUMUUMMMMMMMMMMMMMMMMMMMMMMMUMMMMMUMMMDMMMDMMMMMMMMMMMMMMMMMMMMMMMUMMMMMMMMMMMMMMMMMMMMMMMMMMDUMMMMMMM'
p203
ssg37
(dp204
g46
S'MMMUMMMMMMMMMMMMMMMMMMMMMMMMMMMMMMMMMMMMDMMMDMMMMMMMMMMMMMMMMMMMMMMMMMMMMMMMMMMMMMMMMMMMMMMMMMMDMMMMMMMM'
p205
sssg23
(dp206
g8
g58
sg11
g85
sg13
g110
sg15
g133
sg17
g154
sg19
g173
sg21
g190
sg25
(dp207
g46
S'MMMDMMMMMMMMMMMMMMMMMMMMMMMMMMMMMMMMMMMMMMMMMMMMMMMMMMMMMMMMMMMMMMMMMMMMMMMMMMMMMMMMMMMMMMUMMMMMMMMMMMMM'
p208
ssg27
(dp209
g46
S'MMMDMMMMMMMMMMMMMMMMMMMMMMMMMUMMMMMMMMMMMMMMMMMMMMMMMMMMMMMMMMMMMMMMMMMMMMMMMMMMMMMMMMMMMMMMMMMUMMMMMMMM'
p210
ssg29
(dp211
g46
S'MMMDMMMMMMMMMMMMMMMMMMMMMMMMMMMMMMMMMMMMMMMMMMMMMMMMMMMMMMUMUMMMMMMMMMMMMMMMMMMMMMMMMMMMMMMMMMMMMMMMMMMM'
p212
ssg31
(dp213
g46
S'MMMDMMMMMMMMMMMMMMMMMMMMMMMMUMMMMMMMMMMMMMMMMMMMMMMMMMMMMMMMMMMMMMMMMMMMMMMMMMMMMMMMMMMMMMMMMMMUMMMMMMMM'
p214
ssg33
(dp215
g46
S'MMMDMMMMMMMMMMMMMMMMMMMMMMMMMMMMMMMMMMMMMMMMMMMMMMMUMMMMMMMMMMMMMUMMMMMMMMMMMMMMMMMMMMMMMMMMMMMMMMMMMMMM'
p216
ssg35
(dp217
g46
S'MMMDMUUMMMMMMMMMMMMMMMMMMMMMMMUMMMMMUMMMMMMMMMMMMMMMMMMMMMMMMMMMMMMMUMMMMMMMMMMMMMMMMMMMMMMMMMMMUMMMMMMM'
p218
ssg37
(dp219
g46
S'MMMMMMMMMMMMMMMMMMMMMMMMMMMMMMMMMMMMMMMMMMMMMMMMMMMMMMMMMMMMMMMMMMMMMMMMMMMMMMMMMMMMMMMMMMMMMMMMMMMMMMMM'
p220
sssg25
(dp221
g8
g60
sg11
g87
sg13
g112
sg15
g135
sg17
g156
sg19
g175
sg21
g192
sg23
g207
sg31
(dp222
g46
S'MMMDMMMMMMMMMMMMMMMMMMMMMMMMUMMMMMMMMMMMMMMMMMMMMMMMMMMMMMMMMMMMMMMMMMMMMMMMMMMMMMMMMMMMMMDMMMMUMMMMMMMM'
p223
ssg27
(dp224
g46
S'MMMDMMMMMMMMMMMMMMMMMMMMMMMMMUMMMMMMMMMMMMMMMMMMMMMMMMMMMMMMMMMMMMMMMMMMMMMMMMMMMMMMMMMMMMDMMMMUMMMMMMMM'
p225
ssg29
(dp226
g46
S'MMMUMMMMMMMMMMMMMMMMMMMMMMMMMMMMMMMMMMMMMMMMMMMMMMMMMMMMMMUMUMMMMMMMMMMMMMMMMMMMMMMMMMMMMMDMMMMMMMMMMMMM'
p227
ssg33
(dp228
g46
S'MMMDMMMMMMMMMMMMMMMMMMMMMMMMMMMMMMMMMMMMMMMMMMMMMMMUMMMMMMMMMMMMMUMMMMMMMMMMMMMMMMMMMMMMMMDMMMMMMMMMMMMM'
p229
ssg35
(dp230
g46
S'MMMUMUUMMMMMMMMMMMMMMMMMMMMMMMUMMMMMUMMMMMMMMMMMMMMMMMMMMMMMMMMMMMMMUMMMMMMMMMMMMMMMMMMMMMDMMMMMUMMMMMMM'
p231
ssg37
(dp232
g46
S'MMMUMMMMMMMMMMMMMMMMMMMMMMMMMMMMMMMMMMMMMMMMMMMMMMMMMMMMMMMMMMMMMMMMMMMMMMMMMMMMMMMMMMMMMMDMMMMMMMMMMMMM'
p233
sssg27
(dp234
g8
g62
sg11
g89
sg13
g114
sg15
g137
sg17
g158
sg19
g177
sg21
g194
sg23
g209
sg25
g224
sg31
(dp235
g46
S'MMMUMMMMMMMMMMMMMMMMMMMMMMMMUDMMMMMMMMMMMMMMMMMMMMMMMMMMMMMMMMMMMMMMMMMMMMMMMMMMMMMMMMMMMMMMMMMDMMMMMMMM'
p236
ssg29
(dp237
g46
S'MMMUMMMMMMMMMMMMMMMMMMMMMMMMMDMMMMMMMMMMMMMMMMMMMMMMMMMMMMUMUMMMMMMMMMMMMMMMMMMMMMMMMMMMMMMMMMMDMMMMMMMM'
p238
ssg33
(dp239
g46
S'MMMUMMMMMMMMMMMMMMMMMMMMMMMMMDMMMMMMMMMMMMMMMMMMMMMUMMMMMMMMMMMMMUMMMMMMMMMMMMMMMMMMMMMMMMMMMMMDMMMMMMMM'
p240
ssg35
(dp241
g46
S'MMMUMUUMMMMMMMMMMMMMMMMMMMMMMDUMMMMMUMMMMMMMMMMMMMMMMMMMMMMMMMMMMMMMUMMMMMMMMMMMMMMMMMMMMMMMMMMDUMMMMMMM'
p242
ssg37
(dp243
g46
S'MMMUMMMMMMMMMMMMMMMMMMMMMMMMMDMMMMMMMMMMMMMMMMMMMMMMMMMMMMMMMMMMMMMMMMMMMMMMMMMMMMMMMMMMMMMMMMMDMMMMMMMM'
p244
sssg29
(dp245
g8
g64
sg11
g91
sg13
g116
sg15
g139
sg17
g160
sg19
g179
sg21
g196
sg23
g211
sg25
g226
sg27
g237
sg31
(dp246
g46
S'MMMDMMMMMMMMMMMMMMMMMMMMMMMMUMMMMMMMMMMMMMMMMMMMMMMMMMMMMMDMDMMMMMMMMMMMMMMMMMMMMMMMMMMMMMMMMMMUMMMMMMMM'
p247
ssg33
(dp248
g46
S'MMMDMMMMMMMMMMMMMMMMMMMMMMMMMMMMMMMMMMMMMMMMMMMMMMMUMMMMMMDMDMMMMUMMMMMMMMMMMMMMMMMMMMMMMMMMMMMMMMMMMMMM'
p249
ssg35
(dp250
g46
S'MMMUMUUMMMMMMMMMMMMMMMMMMMMMMMUMMMMMUMMMMMMMMMMMMMMMMMMMMMDMDMMMMMMMUMMMMMMMMMMMMMMMMMMMMMMMMMMMUMMMMMMM'
p251
ssg37
(dp252
g46
S'MMMUMMMMMMMMMMMMMMMMMMMMMMMMMMMMMMMMMMMMMMMMMMMMMMMMMMMMMMDMDMMMMMMMMMMMMMMMMMMMMMMMMMMMMMMMMMMMMMMMMMMM'
p253
sssg31
(dp254
g8
g66
sg11
g93
sg13
g118
sg15
g141
sg17
g162
sg19
g181
sg21
g198
sg23
g213
sg25
g222
sg27
g235
sg29
g246
sg33
(dp255
g46
S'MMMDMMMMMMMMMMMMMMMMMMMMMMMMDMMMMMMMMMMMMMMMMMMMMMMUMMMMMMMMMMMMMUMMMMMMMMMMMMMMMMMMMMMMMMMMMMMDMMMMMMMM'
p256
ssg35
(dp257
g46
S'MMMUMUUMMMMMMMMMMMMMMMMMMMMMDMUMMMMMUMMMMMMMMMMMMMMMMMMMMMMMMMMMMMMMUMMMMMMMMMMMMMMMMMMMMMMMMMMDUMMMMMMM'
p258
ssg37
(dp259
g46
S'MMMUMMMMMMMMMMMMMMMMMMMMMMMMDMMMMMMMMMMMMMMMMMMMMMMMMMMMMMMMMMMMMMMMMMMMMMMMMMMMMMMMMMMMMMMMMMMDMMMMMMMM'
p260
sssg33
(dp261
g8
g68
sg11
g95
sg13
g120
sg15
g143
sg17
g164
sg19
g183
sg21
g200
sg23
g215
sg25
g228
sg27
g239
sg29
g248
sg31
g255
sg35
(dp262
g46
S'MMMUMUUMMMMMMMMMMMMMMMMMMMMMMMUMMMMMUMMMMMMMMMMMMMMDMMMMMMMMMMMMMDMMUMMMMMMMMMMMMMMMMMMMMMMMMMMMUMMMMMMM'
p263
ssg37
(dp264
g46
S'MMMUMMMMMMMMMMMMMMMMMMMMMMMMMMMMMMMMMMMMMMMMMMMMMMMDMMMMMMMMMMMMMDMMMMMMMMMMMMMMMMMMMMMMMMMMMMMMMMMMMMMM'
p265
sssg35
(dp266
g8
g70
sg11
g97
sg13
g122
sg15
g145
sg17
g166
sg19
g185
sg21
g202
sg23
g217
sg25
g230
sg27
g241
sg29
g250
sg31
g257
sg33
g262
sg37
(dp267
g46
S'MMMUMDDMMMMMMMMMMMMMMMMMMMMMMMDMMMMMDMMMMMMMMMMMMMMMMMMMMMMMMMMMMMMMDMMMMMMMMMMMMMMMMMMMMMMMMMMMDMMMMMMM'
p268
sssg37
(dp269
g8
g72
sg11
g99
sg13
g124
sg15
g147
sg17
g168
sg19
g187
sg21
g204
sg23
g219
sg25
g232
sg27
g243
sg29
g252
sg31
g259
sg33
g264
sg35
g267
sssS'adj'
p270
g43
sb.