(dp0
S'assemblage-7-19'
p1
(lp2
S'assemblage-22-7'
p3
aS'assemblage-23-74'
p4
aS'assemblage-22-14'
p5
aS'assemblage-14-48'
p6
aS'assemblage-30-41'
p7
aS'assemblage-36-52'
p8
aS'assemblage-8-62'
p9
aS'assemblage-73-34'
p10
aS'assemblage-26-30'
p11
aS'assemblage-40-73'
p12
aS'assemblage-4-55'
p13
aS'assemblage-55-48'
p14
aS'assemblage-44-53'
p15
aS'assemblage-33-47'
p16
asg3
(lp17
g1
ag4
ag5
ag6
ag7
ag8
ag9
ag10
ag11
ag12
ag13
ag14
ag15
ag16
asg4
(lp18
g1
ag3
ag5
ag6
ag7
ag8
ag9
ag10
ag11
ag12
ag13
ag14
ag15
ag16
asg5
(lp19
g1
ag3
ag4
ag6
ag7
ag8
ag9
ag10
ag11
ag12
ag13
ag14
ag15
ag16
asg6
(lp20
g1
ag3
ag4
ag5
ag7
ag8
ag9
ag10
ag11
ag12
ag13
ag14
ag15
ag16
asg7
(lp21
g1
ag3
ag4
ag5
ag6
ag8
ag9
ag10
ag11
ag12
ag13
ag14
ag15
ag16
asg8
(lp22
g1
ag3
ag4
ag5
ag6
ag7
ag9
ag10
ag11
ag12
ag13
ag14
ag15
ag16
asg9
(lp23
g1
ag3
ag4
ag5
ag6
ag7
ag8
ag10
ag11
ag12
ag13
ag14
ag15
ag16
asg10
(lp24
g1
ag3
ag4
ag5
ag6
ag7
ag8
ag9
ag11
ag12
ag13
ag14
ag15
ag16
asg11
(lp25
g1
ag3
ag4
ag5
ag6
ag7
ag8
ag9
ag10
ag12
ag13
ag14
ag15
ag16
asg12
(lp26
g1
ag3
ag4
ag5
ag6
ag7
ag8
ag9
ag10
ag11
ag13
ag14
ag15
ag16
asg13
(lp27
g1
ag3
ag4
ag5
ag6
ag7
ag8
ag9
ag10
ag11
ag12
ag14
ag15
ag16
asg14
(lp28
g1
ag3
ag4
ag5
ag6
ag7
ag8
ag9
ag10
ag11
ag12
ag13
ag15
ag16
asg15
(lp29
g1
ag3
ag4
ag5
ag6
ag7
ag8
ag9
ag10
ag11
ag12
ag13
ag14
ag16
asg16
(lp30
g1
ag3
ag4
ag5
ag6
ag7
ag8
ag9
ag10
ag11
ag12
ag13
ag14
ag15
as.