(dp0
S'assemblage-570-753'
p1
(lp2
I0
aI0
aI0
aI0
aI0
aI0
aI0
aI0
aI0
aI0
acnumpy.core.multiarray
scalar
p3
(cnumpy
dtype
p4
(S'f8'
p5
I0
I1
tp6
Rp7
(I3
S'<'
p8
NNNI-1
I-1
I0
tp9
bS'\xbb\xd5\xd6\xa3\xd4\x1c\xb0?'
p10
tp11
Rp12
aI0
aI0
aI0
aI0
aI0
aI0
ag3
(g7
S'NV\xc3\xfc\xcf\\\x85?'
p13
tp14
Rp15
aI0
ag3
(g7
S'\n^|\x02&X\xd1?'
p16
tp17
Rp18
aI0
aI0
aI0
aI0
aI0
aI0
aI0
ag3
(g7
S'\xb1\xbfX\x11W\xbe\x82?'
p19
tp20
Rp21
aI0
ag3
(g7
S'\xed\x14\x93\xf96h\x9d?'
p22
tp23
Rp24
aI0
aI0
aI0
ag3
(g7
S',\x1d\x80{\xa7f\xcb?'
p25
tp26
Rp27
aI0
aI0
ag3
(g7
S'k\xc3\x19\x92&\xbc\xba?'
p28
tp29
Rp30
aI0
aI0
aI0
aI0
aI0
aI0
aI0
aI0
ag3
(g7
S'\xca\xb2"\xf8\xdb9\xd0?'
p31
tp32
Rp33
aI0
aI0
aI0
aI0
aI0
aI0
aI0
aI0
aI0
aI0
aI0
aI0
aI0
ag3
(g7
S"\xaf\x15\xc2'\x81\xe8\x97?"
p34
tp35
Rp36
asS'assemblage-805-544'
p37
(lp38
I0
aI0
aI0
aI0
aI0
aI0
aI0
aI0
aI0
aI0
aI0
aI0
aI0
aI0
aI0
aI0
aI0
aI0
ag3
(g7
S'\xc9t\xa8\x94\x15\x13\xdd?'
p39
tp40
Rp41
aI0
ag3
(g7
S'h+\xe3\x9c/w\xde?'
p42
tp43
Rp44
aI0
aI0
aI0
aI0
aI0
aI0
aI0
aI0
aI0
aI0
aI0
aI0
aI0
aI0
aI0
aI0
aI0
aI0
aI0
aI0
aI0
aI0
aI0
aI0
aI0
aI0
aI0
aI0
aI0
aI0
aI0
aI0
aI0
aI0
aI0
aI0
ag3
(g7
S'\x89u;\x83T\x94w?'
p45
tp46
Rp47
aI0
ag3
(g7
S'\xd7\xad\xd7@\xbdL\xaa?'
p48
tp49
Rp50
asS'assemblage-178-720'
p51
(lp52
I0
aI0
aI0
aI0
aI0
aI0
aI0
aI0
aI0
aI0
aI0
aI0
ag3
(g7
S'\xdf\x8c\xf0\n\xcbs\xcb?'
p53
tp54
Rp55
aI0
aI0
aI0
aI0
aI0
ag3
(g7
S'\x0f\xd6\x1a9P|\xc3?'
p56
tp57
Rp58
aI0
ag3
(g7
S'\xc1\xf7S\x07\x1c%\xd9?'
p59
tp60
Rp61
aI0
aI0
aI0
aI0
aI0
aI0
aI0
aI0
aI0
aI0
aI0
aI0
aI0
aI0
aI0
aI0
aI0
aI0
aI0
aI0
aI0
aI0
aI0
aI0
aI0
aI0
aI0
aI0
aI0
ag3
(g7
S'"\xc7F\r\xd3\xba\x82?'
p62
tp63
Rp64
aI0
aI0
aI0
aI0
aI0
aI0
ag3
(g7
S'\xfdS\x9am\xe3-\xc8?'
p65
tp66
Rp67
aI0
ag3
(g7
S'w^\xbat\xb3\x99\x99?'
p68
tp69
Rp70
asS'assemblage-441-458'
p71
(lp72
I0
aI0
ag3
(g7
S'ol\x8b\x1c\x03*\xa2?'
p73
tp74
Rp75
aI0
aI0
aI0
aI0
aI0
ag3
(g7
S'\xeb\xe6y\x97\xbe\xf6\xab?'
p76
tp77
Rp78
aI0
ag3
(g7
S'\xed-3\xb7\xb4j\xa0?'
p79
tp80
Rp81
aI0
aI0
aI0
aI0
aI0
aI0
aI0
ag3
(g7
S'r\xce\xa0\xba\x1fc\xd0?'
p82
tp83
Rp84
aI0
ag3
(g7
S'g\xb4Zq\xe6\xf2\xb5?'
p85
tp86
Rp87
aI0
aI0
aI0
aI0
aI0
aI0
aI0
aI0
aI0
aI0
aI0
aI0
aI0
aI0
aI0
ag3
(g7
S'\x10\xc7N\xb8\x91r\xcc?'
p88
tp89
Rp90
aI0
aI0
aI0
aI0
aI0
aI0
aI0
ag3
(g7
S'u=d\x99S\xa2\xd0?'
p91
tp92
Rp93
aI0
aI0
ag3
(g7
S'\xd7\t\xdf\xc8\x88$\x91?'
p94
tp95
Rp96
aI0
aI0
aI0
aI0
aI0
aI0
aI0
aI0
aI0
aI0
aI0
ag3
(g7
S'S\xcb\xf4,\xc9F\x90?'
p97
tp98
Rp99
asS'assemblage-359-470'
p100
(lp101
I0
aI0
ag3
(g7
S'uI\xed\xb4\xb2\x00\xa1?'
p102
tp103
Rp104
aI0
aI0
aI0
aI0
aI0
aI0
aI0
aI0
aI0
aI0
aI0
aI0
aI0
aI0
aI0
aI0
aI0
ag3
(g7
S'\xcb \xbd\xd6O<\xc6?'
p105
tp106
Rp107
aI0
ag3
(g7
S'X\xd4\x075\x12\xb9\xc1?'
p108
tp109
Rp110
aI0
aI0
aI0
aI0
aI0
aI0
aI0
aI0
aI0
aI0
aI0
aI0
aI0
ag3
(g7
S'<\xd7\x0fJ.K\x86?'
p111
tp112
Rp113
aI0
aI0
aI0
aI0
aI0
aI0
aI0
ag3
(g7
S'g\xe5\xcbQ<5\xcd?'
p114
tp115
Rp116
aI0
aI0
aI0
aI0
aI0
ag3
(g7
S'l\xa7\xe4N\x88a\xd4?'
p117
tp118
Rp119
aI0
aI0
aI0
ag3
(g7
S'*\xf9\xf9;\x95\x89\xa0?'
p120
tp121
Rp122
aI0
aI0
aI0
aI0
ag3
(g7
S'K#\n\xbc\xef\x14\xa6?'
p123
tp124
Rp125
asS'assemblage-126-731'
p126
(lp127
g3
(g7
S'\xa1;\x19@\x82\x05\xb4?'
p128
tp129
Rp130
aI0
ag3
(g7
S'\xf5\x93\x1daF0\xc5?'
p131
tp132
Rp133
aI0
aI0
aI0
aI0
aI0
aI0
aI0
aI0
aI0
aI0
aI0
aI0
aI0
aI0
aI0
ag3
(g7
S'j@\x00q\x10\xde\xe2?'
p134
tp135
Rp136
aI0
ag3
(g7
S'|7\xffV\xe2\x97\x93?'
p137
tp138
Rp139
aI0
aI0
aI0
aI0
aI0
aI0
aI0
aI0
aI0
aI0
aI0
aI0
aI0
aI0
aI0
aI0
ag3
(g7
S'\xb0^\x1f\x8dg\xe4\x92?'
p140
tp141
Rp142
ag3
(g7
S'\x8b\x07k\xd1w\x17\x97?'
p143
tp144
Rp145
aI0
aI0
aI0
aI0
aI0
ag3
(g7
S'\xac\xf0N\xe4\r\x9d\xa6?'
p146
tp147
Rp148
aI0
aI0
aI0
aI0
aI0
ag3
(g7
S' \x83\x0c\x84\xa9\xfe\x91?'
p149
tp150
Rp151
aI0
aI0
aI0
aI0
aI0
aI0
aI0
aI0
ag3
(g7
S'\r\x88\x12C\x1c\x03\x9a?'
p152
tp153
Rp154
asS'assemblage-447-448'
p155
(lp156
I0
aI0
ag3
(g7
S'1\xf9\x07(\xa5\xd0\xce?'
p157
tp158
Rp159
aI0
aI0
aI0
aI0
aI0
aI0
aI0
aI0
aI0
aI0
aI0
aI0
aI0
aI0
aI0
ag3
(g7
S'\xac\xf4\xd1\xf8\xa3\x8b\xce?'
p160
tp161
Rp162
aI0
aI0
aI0
ag3
(g7
S'5=\xd6\xedfI\xa2?'
p163
tp164
Rp165
aI0
aI0
aI0
aI0
aI0
aI0
aI0
aI0
aI0
aI0
aI0
aI0
aI0
ag3
(g7
S'\xae\xfc\x02bqJ\xcc?'
p166
tp167
Rp168
aI0
aI0
aI0
aI0
aI0
aI0
aI0
ag3
(g7
S'=\xc2\x82\xb3\xf8\x15\xb2?'
p169
tp170
Rp171
aI0
aI0
aI0
aI0
aI0
ag3
(g7
S'y\xd8\xf0]\xe7\xaa\xc0?'
p172
tp173
Rp174
aI0
aI0
aI0
aI0
aI0
aI0
aI0
aI0
ag3
(g7
S'b\xf8\x16L\x03k\xa6?'
p175
tp176
Rp177
asS'assemblage-110-107'
p178
(lp179
I0
aI0
aI0
aI0
aI0
aI0
ag3
(g7
S'\xc6\xc96Wn\xcc\xb7?'
p180
tp181
Rp182
aI0
aI0
aI0
aI0
aI0
aI0
aI0
aI0
aI0
ag3
(g7
S'\xe2M\xc2\xa9\x8c\x06\x97?'
p183
tp184
Rp185
aI0
aI0
aI0
aI0
aI0
aI0
aI0
aI0
aI0
aI0
aI0
aI0
aI0
aI0
aI0
aI0
aI0
aI0
ag3
(g7
S'\xdb\xb7@\x8a\xe9\x11~?'
p186
tp187
Rp188
aI0
aI0
aI0
aI0
aI0
aI0
aI0
aI0
ag3
(g7
S'\xd5\x1b\xc7P\xcc\x98\xe9?'
p189
tp190
Rp191
aI0
aI0
aI0
aI0
aI0
aI0
ag3
(g7
S'\xba\xbd\xd0EC\x92\xa1?'
p192
tp193
Rp194
aI0
aI0
aI0
aI0
ag3
(g7
S'\xea\x99M\x16~\x96\x94?'
p195
tp196
Rp197
aI0
aI0
ag3
(g7
S'[\xbd\x0e\xda\x90\xc4\x85?'
p198
tp199
Rp200
asS'assemblage-946-107'
p201
(lp202
I0
aI0
ag3
(g7
S'\xa4\xc1\x83\x06oC\xd9?'
p203
tp204
Rp205
aI0
aI0
aI0
aI0
aI0
aI0
ag3
(g7
S'\xd9\xb8\x9d\x8e`\x03\x98?'
p206
tp207
Rp208
ag3
(g7
S'\x92\xa0g\x961N\x99?'
p209
tp210
Rp211
aI0
aI0
aI0
aI0
aI0
aI0
aI0
aI0
aI0
aI0
aI0
ag3
(g7
S'0fB\xaaJ\xc1\xab?'
p212
tp213
Rp214
aI0
aI0
aI0
aI0
ag3
(g7
S'\x89\xd7\xd5\x80@1\x8e?'
p215
tp216
Rp217
aI0
ag3
(g7
S'c\xcd,])\xab\xc0?'
p218
tp219
Rp220
aI0
aI0
aI0
aI0
aI0
aI0
aI0
aI0
aI0
aI0
aI0
aI0
aI0
aI0
ag3
(g7
S'3oL\x8a\xe9K\xc6?'
p221
tp222
Rp223
aI0
aI0
aI0
aI0
aI0
ag3
(g7
S'\x8f\xea\xe8\x1b\xeb\xa8\xbb?'
p224
tp225
Rp226
aI0
aI0
aI0
aI0
aI0
aI0
aI0
aI0
ag3
(g7
S'T\x00\xc5\x14\xaf\xe5\xab?'
p227
tp228
Rp229
asS'assemblage-494-173'
p230
(lp231
I0
aI0
aI0
aI0
aI0
aI0
aI0
aI0
aI0
aI0
aI0
aI0
aI0
aI0
aI0
aI0
aI0
aI0
ag3
(g7
S"\x8b'\x03\x86\xdb:\xb6?"
p232
tp233
Rp234
aI0
ag3
(g7
S'\x12\xaeB\x05\xc5\x1f\xe2?'
p235
tp236
Rp237
aI0
aI0
aI0
aI0
aI0
aI0
aI0
ag3
(g7
S'\xd0\xf4\xd9\x9d\xf4h\xca?'
p238
tp239
Rp240
aI0
aI0
aI0
aI0
aI0
aI0
aI0
aI0
aI0
aI0
aI0
aI0
aI0
aI0
aI0
ag3
(g7
S'\x1d\xebu\xd0\x90\t\xb0?'
p241
tp242
Rp243
aI0
aI0
aI0
aI0
aI0
aI0
aI0
aI0
aI0
aI0
ag3
(g7
S'\xee\x88~6\xa5#\x9e?'
p244
tp245
Rp246
aI0
aI0
aI0
ag3
(g7
S'\x8chl\xb6\xe4\xc3\x9f?'
p247
tp248
Rp249
asS'assemblage-715-624'
p250
(lp251
I0
aI0
ag3
(g7
S'\xd2t\xa2\xaf$\xf3\xa0?'
p252
tp253
Rp254
aI0
aI0
aI0
aI0
aI0
ag3
(g7
S'\xbdd\xd6\xb2\xb7\xaf\xac?'
p255
tp256
Rp257
aI0
ag3
(g7
S',V\xc0)Eq\x92?'
p258
tp259
Rp260
aI0
aI0
aI0
aI0
aI0
aI0
aI0
ag3
(g7
S'\x16 \xb3\xa5\xa6\x12\xd2?'
p261
tp262
Rp263
aI0
ag3
(g7
S'\xa7\x13o\xd6;\xf7\xb3?'
p264
tp265
Rp266
aI0
aI0
aI0
aI0
aI0
aI0
aI0
aI0
aI0
aI0
aI0
aI0
aI0
ag3
(g7
S'\x92n\x02\x82\xa5\x06\x8b?'
p267
tp268
Rp269
aI0
ag3
(g7
S'Z\xea\x9cX\xcb\x1a\xcf?'
p270
tp271
Rp272
aI0
aI0
aI0
aI0
aI0
aI0
aI0
ag3
(g7
S'\xad\x8b\xd1\x9d1\xd5\xce?'
p273
tp274
Rp275
aI0
aI0
ag3
(g7
S'\xc2\x95\xbf\xf1\xbe\x93t?'
p276
tp277
Rp278
aI0
aI0
aI0
aI0
aI0
aI0
aI0
aI0
aI0
aI0
aI0
ag3
(g7
S'-$\xdf\xe0D<\x82?'
p279
tp280
Rp281
asS'assemblage-943-100'
p282
(lp283
I0
aI0
ag3
(g7
S'\xcb\xfe\x1d\x05yC\x9c?'
p284
tp285
Rp286
aI0
aI0
aI0
aI0
aI0
aI0
ag3
(g7
S'\xa5{\x96<=S\x82?'
p287
tp288
Rp289
ag3
(g7
S'\xfc\xe8\xa3.\xa5\xcb\x85?'
p290
tp291
Rp292
aI0
aI0
aI0
aI0
aI0
aI0
aI0
aI0
aI0
aI0
aI0
aI0
aI0
ag3
(g7
S'\xe8q\x80R*4\xb5?'
p293
tp294
Rp295
aI0
aI0
aI0
aI0
ag3
(g7
S'\xca\x8a\xe9\xe1\n0\xcd?'
p296
tp297
Rp298
aI0
aI0
ag3
(g7
S'7}\xbd\xd1\xde\xf1\x90?'
p299
tp300
Rp301
ag3
(g7
S'?\xfb\xff\xcf\t\x18~?'
p302
tp303
Rp304
aI0
aI0
aI0
aI0
aI0
aI0
aI0
aI0
aI0
aI0
ag3
(g7
S'<\x82m];L\xd6?'
p305
tp306
Rp307
ag3
(g7
S'2\x8b+\xd1\x07~\xa0?'
p308
tp309
Rp310
aI0
aI0
aI0
aI0
ag3
(g7
S'\xa4\xe3\x8e\t\xe3\x17\xc8?'
p311
tp312
Rp313
aI0
aI0
aI0
aI0
aI0
aI0
aI0
aI0
ag3
(g7
S'\xba2(C\x98\x01\x9c?'
p314
tp315
Rp316
asS'assemblage-647-581'
p317
(lp318
I0
aI0
aI0
aI0
aI0
aI0
aI0
aI0
aI0
aI0
aI0
aI0
aI0
aI0
aI0
aI0
aI0
aI0
aI0
aI0
aI0
aI0
aI0
aI0
aI0
aI0
ag3
(g7
S'\x89\xb7\xdc\xa0\x93\x9b\x9e?'
p319
tp320
Rp321
aI0
aI0
ag3
(g7
S'\xb3\x7f3\x0bs\xf1\xe2?'
p322
tp323
Rp324
aI0
aI0
aI0
aI0
aI0
aI0
aI0
aI0
aI0
aI0
aI0
aI0
aI0
aI0
aI0
aI0
aI0
aI0
aI0
aI0
ag3
(g7
S'\xb4M\xaf\x13N\x03\xd4?'
p325
tp326
Rp327
aI0
aI0
aI0
aI0
aI0
aI0
aI0
aI0
ag3
(g7
S'\xb1\xb1>\x85\x8f,\xab?'
p328
tp329
Rp330
asS'assemblage-453-876'
p331
(lp332
g3
(g7
S'\xcd\xd3wm\xd0\x8e\xa8?'
p333
tp334
Rp335
aI0
ag3
(g7
S'\xe5\xe0\xe3b\x15*\xcb?'
p336
tp337
Rp338
aI0
aI0
aI0
aI0
aI0
aI0
aI0
aI0
aI0
aI0
aI0
aI0
aI0
aI0
aI0
ag3
(g7
S'\xa4R\x12J2\x03\xe1?'
p339
tp340
Rp341
aI0
ag3
(g7
S'hC\xa8\xfe"\xdc\x99?'
p342
tp343
Rp344
aI0
aI0
aI0
aI0
aI0
aI0
aI0
aI0
aI0
aI0
aI0
aI0
aI0
aI0
aI0
aI0
ag3
(g7
S'\x97?&t\xa7\xef\x92?'
p345
tp346
Rp347
ag3
(g7
S'\xe5]\t\xa6\x1a\xbe\x93?'
p348
tp349
Rp350
aI0
aI0
aI0
aI0
aI0
ag3
(g7
S'\xbb\x82,(\xab#\xb2?'
p351
tp352
Rp353
aI0
aI0
aI0
aI0
aI0
ag3
(g7
S'\xd3\xf0\x90p\x1d\x91\x90?'
p354
tp355
Rp356
aI0
aI0
aI0
aI0
aI0
aI0
aI0
aI0
ag3
(g7
S'1^\x8b\x14\xfa\x0e\xa4?'
p357
tp358
Rp359
asS'assemblage-346-467'
p360
(lp361
I0
aI0
ag3
(g7
S'\xd0d\xa0\x8c\xe3\xe6\xa2?'
p362
tp363
Rp364
aI0
aI0
aI0
aI0
aI0
ag3
(g7
S'\x87\xe4\x00\xe5\xfeK\xaf?'
p365
tp366
Rp367
aI0
ag3
(g7
S'~/\xbe\xcc\xfa\xca\x9f?'
p368
tp369
Rp370
aI0
aI0
aI0
aI0
aI0
aI0
aI0
ag3
(g7
S'\x10f\xbey\x82\xc9\xd0?'
p371
tp372
Rp373
aI0
ag3
(g7
S'\xe9z\xa9t\xebY\xa5?'
p374
tp375
Rp376
aI0
aI0
aI0
aI0
aI0
aI0
aI0
aI0
aI0
aI0
aI0
aI0
aI0
ag3
(g7
S' \r\x83\x85`\xed\x86?'
p377
tp378
Rp379
aI0
ag3
(g7
S'\xc8\x94e\x82,\xbf\xce?'
p380
tp381
Rp382
aI0
aI0
aI0
aI0
aI0
aI0
aI0
ag3
(g7
S'\xe7\xde\xac\xe5O\x9f\xd1?'
p383
tp384
Rp385
aI0
aI0
ag3
(g7
S't\x8f\xc9\x82\xba\x9b\x82?'
p386
tp387
Rp388
aI0
aI0
aI0
aI0
aI0
aI0
aI0
aI0
aI0
aI0
aI0
ag3
(g7
S'\xd7gC\xed\xafC\x84?'
p389
tp390
Rp391
asS'assemblage-586-290'
p392
(lp393
I0
aI0
aI0
aI0
aI0
ag3
(g7
S'\x06\x06(\xc8\xbc\x90\x96?'
p394
tp395
Rp396
aI0
aI0
aI0
aI0
aI0
aI0
ag3
(g7
S'6l\x9fw_\xe0\xa0?'
p397
tp398
Rp399
aI0
aI0
aI0
aI0
aI0
ag3
(g7
S'\xeej7\xe5(M\xc3?'
p400
tp401
Rp402
aI0
ag3
(g7
S'P \xdb0\n\x92\x92?'
p403
tp404
Rp405
aI0
aI0
aI0
aI0
aI0
aI0
aI0
aI0
aI0
aI0
aI0
aI0
aI0
aI0
aI0
aI0
aI0
aI0
aI0
aI0
aI0
aI0
aI0
ag3
(g7
S'\xd6\x87\x84\x14R\x02\xe6?'
p406
tp407
Rp408
aI0
ag3
(g7
S'\xf4\x83?\xfcY\xfc\xa3?'
p409
tp410
Rp411
aI0
aI0
aI0
aI0
aI0
ag3
(g7
S'\xc0\x81\x0fc\xdb\x9c\x91?'
p412
tp413
Rp414
aI0
aI0
aI0
aI0
ag3
(g7
S'Z\xfc\x9c\x0c[\xd7r?'
p415
tp416
Rp417
aI0
ag3
(g7
S'R\xf1\x89\xac\xe5\x8d\x86?'
p418
tp419
Rp420
asS'assemblage-955-844'
p421
(lp422
I0
aI0
ag3
(g7
S'\xf3::\x11\x8e\xcf\xb7?'
p423
tp424
Rp425
aI0
aI0
aI0
aI0
aI0
aI0
aI0
aI0
aI0
aI0
aI0
aI0
aI0
aI0
aI0
ag3
(g7
S'\xda\xf2\xdd\xde\xf9\x1f\xa5?'
p426
tp427
Rp428
aI0
aI0
aI0
aI0
ag3
(g7
S'\xcb7H\xab\xe3\x07\xb6?'
p429
tp430
Rp431
aI0
aI0
aI0
aI0
aI0
aI0
aI0
aI0
aI0
aI0
aI0
aI0
aI0
aI0
aI0
aI0
aI0
ag3
(g7
S'/\x9c\xcaTm:\xac?'
p432
tp433
Rp434
aI0
aI0
ag3
(g7
S'Ef\x02\xe7[\xf7\xe3?'
p435
tp436
Rp437
aI0
aI0
aI0
aI0
ag3
(g7
S'|\x00\xbe\rSK\x8e?'
p438
tp439
Rp440
aI0
aI0
aI0
aI0
aI0
aI0
aI0
aI0
aI0
ag3
(g7
S'\xab\xdc\x03\x1e\xcd\xb1\xb1?'
p441
tp442
Rp443
asS'assemblage-181-736'
p444
(lp445
I0
aI0
aI0
aI0
aI0
aI0
aI0
aI0
aI0
ag3
(g7
S'\xf5z\xa2\xfe\x1d\x02\xd9?'
p446
tp447
Rp448
ag3
(g7
S'\x0e\xd6\xc8.\xcb\xe5\xd9?'
p449
tp450
Rp451
aI0
aI0
aI0
aI0
ag3
(g7
S'AEI\xa8\xf4\x8f\xac?'
p452
tp453
Rp454
aI0
aI0
aI0
aI0
aI0
aI0
aI0
aI0
aI0
aI0
aI0
aI0
aI0
ag3
(g7
S'\t\x02\x17G\xfc\xbd\x87?'
p455
tp456
Rp457
aI0
aI0
aI0
aI0
aI0
aI0
aI0
aI0
aI0
aI0
aI0
aI0
aI0
aI0
ag3
(g7
S'\x9e\x02\x16\x92\xeeE\xae?'
p458
tp459
Rp460
aI0
aI0
aI0
ag3
(g7
S'SZ+\x13\xdf\xcf\x88?'
p461
tp462
Rp463
aI0
aI0
aI0
aI0
aI0
aI0
aI0
aI0
aI0
aI0
ag3
(g7
S'\xda\x81\xa0\x9d\xad\x85\xa8?'
p464
tp465
Rp466
asS'assemblage-359-992'
p467
(lp468
I0
aI0
aI0
aI0
aI0
aI0
aI0
ag3
(g7
S'\xf2\xb6\xedt\xc5}\xd6?'
p469
tp470
Rp471
aI0
aI0
aI0
ag3
(g7
S'\xceM\x04x\xef1\xb0?'
p472
tp473
Rp474
aI0
aI0
aI0
aI0
aI0
aI0
ag3
(g7
S'\x9aw})\x1e\x90\xc8?'
p475
tp476
Rp477
aI0
ag3
(g7
S"q\xa9\xb3\xdb'\xe5\xcb?"
p478
tp479
Rp480
aI0
aI0
aI0
aI0
aI0
aI0
aI0
aI0
aI0
aI0
aI0
aI0
aI0
aI0
aI0
aI0
aI0
aI0
aI0
aI0
aI0
aI0
ag3
(g7
S'\xb12\x15g\xeb\xaa\x86?'
p481
tp482
Rp483
ag3
(g7
S'\x8ch\xe7\x87<b\xbd?'
p484
tp485
Rp486
aI0
aI0
aI0
aI0
aI0
aI0
aI0
aI0
aI0
aI0
aI0
aI0
ag3
(g7
S'\x9ca\xcdm\xb6\x91u?'
p487
tp488
Rp489
aI0
ag3
(g7
S'h\x86\xca\x11\xddY\x99?'
p490
tp491
Rp492
asS'assemblage-188-884'
p493
(lp494
I0
aI0
aI0
aI0
aI0
aI0
aI0
aI0
aI0
aI0
aI0
aI0
aI0
aI0
aI0
aI0
aI0
aI0
ag3
(g7
S'\xfb\xedC\xd5\xc8\xc4\xd8?'
p495
tp496
Rp497
aI0
ag3
(g7
S'\xbd\xdc{\x9f \x97\xe1?'
p498
tp499
Rp500
aI0
aI0
aI0
aI0
aI0
aI0
aI0
aI0
aI0
aI0
aI0
aI0
aI0
aI0
aI0
aI0
aI0
aI0
aI0
aI0
aI0
aI0
aI0
aI0
aI0
aI0
aI0
aI0
aI0
aI0
aI0
aI0
aI0
aI0
aI0
aI0
ag3
(g7
S'Pj\xf4\xad!e\x89?'
p501
tp502
Rp503
aI0
ag3
(g7
S'Z$\xf2(\xca<\xa4?'
p504
tp505
Rp506
as.