(dp0
S'assemblage-151-733'
p1
(lp2
F0.0
aF0.0
aF0.0
aF0.0
aF0.0
aF0.716
aF0.0
aF0.118
aF0.0
aF0.0
aF0.0
aF0.0
aF0.0
aF0.0
aF0.0
aF0.0
aF0.0
aF0.0
aF0.0
aF0.0
aF0.0
aF0.0
aF0.0
aF0.014
aF0.0
aF0.0
aF0.0
aF0.034
aF0.0
aF0.0
aF0.0
aF0.0
aF0.0
aF0.0
aF0.0
aF0.0
aF0.0
aF0.0
aF0.0
aF0.0
aF0.0
aF0.0
aF0.0
aF0.0
aF0.09
aF0.0
aF0.0
aF0.028
asS'assemblage-589-914'
p3
(lp4
F0.0
aF0.0
aF0.0
aF0.078
aF0.0
aF0.37
aF0.0
aF0.222
aF0.0
aF0.0
aF0.0
aF0.0
aF0.016
aF0.0
aF0.0
aF0.0
aF0.0
aF0.0
aF0.0
aF0.0
aF0.0
aF0.0
aF0.0
aF0.0
aF0.0
aF0.0
aF0.0
aF0.0
aF0.0
aF0.0
aF0.0
aF0.0
aF0.0
aF0.0
aF0.0
aF0.0
aF0.0
aF0.0
aF0.0
aF0.0
aF0.0
aF0.084
aF0.0
aF0.0
aF0.118
aF0.108
aF0.0
aF0.004
asS'assemblage-1000-672'
p5
(lp6
F0.0
aF0.0
aF0.0
aF0.0
aF0.0
aF0.79
aF0.0
aF0.024
aF0.0
aF0.0
aF0.05
aF0.0
aF0.0
aF0.0
aF0.0
aF0.02
aF0.0
aF0.0
aF0.0
aF0.0
aF0.0
aF0.0
aF0.0
aF0.0
aF0.0
aF0.0
aF0.052
aF0.0
aF0.0
aF0.0
aF0.0
aF0.0
aF0.0
aF0.0
aF0.0
aF0.0
aF0.0
aF0.0
aF0.0
aF0.0
aF0.0
aF0.0
aF0.044
aF0.0
aF0.016
aF0.0
aF0.0
aF0.004
asS'assemblage-722-797'
p7
(lp8
F0.0
aF0.0
aF0.0
aF0.0
aF0.0
aF0.492
aF0.0
aF0.026
aF0.0
aF0.0
aF0.0
aF0.0
aF0.0
aF0.0
aF0.0
aF0.0
aF0.0
aF0.0
aF0.0
aF0.018
aF0.0
aF0.0
aF0.0
aF0.0
aF0.0
aF0.0
aF0.0
aF0.0
aF0.03
aF0.0
aF0.0
aF0.0
aF0.0
aF0.0
aF0.0
aF0.0
aF0.0
aF0.02
aF0.402
aF0.0
aF0.0
aF0.0
aF0.0
aF0.0
aF0.0
aF0.0
aF0.0
aF0.012
asS'assemblage-695-371'
p9
(lp10
F0.0
aF0.0
aF0.0
aF0.0
aF0.0
aF0.156
aF0.0
aF0.558
aF0.0
aF0.0
aF0.148
aF0.074
aF0.0
aF0.0
aF0.036
aF0.0
aF0.0
aF0.0
aF0.0
aF0.0
aF0.0
aF0.0
aF0.0
aF0.0
aF0.0
aF0.0
aF0.0
aF0.0
aF0.0
aF0.0
aF0.0
aF0.0
aF0.0
aF0.0
aF0.0
aF0.0
aF0.0
aF0.0
aF0.0
aF0.0
aF0.0
aF0.0
aF0.0
aF0.0
aF0.0
aF0.0
aF0.0
aF0.028
asS'assemblage-486-523'
p11
(lp12
F0.0
aF0.0
aF0.0
aF0.0
aF0.0
aF0.09
aF0.0
aF0.45
aF0.0
aF0.0
aF0.0
aF0.0
aF0.0
aF0.0
aF0.0
aF0.0
aF0.0
aF0.0
aF0.0
aF0.0
aF0.0
aF0.0
aF0.0
aF0.0
aF0.0
aF0.0
aF0.0
aF0.0
aF0.192
aF0.0
aF0.0
aF0.0
aF0.078
aF0.018
aF0.0
aF0.0
aF0.0
aF0.0
aF0.152
aF0.0
aF0.0
aF0.0
aF0.0
aF0.0
aF0.0
aF0.0
aF0.0
aF0.02
asS'assemblage-168-801'
p13
(lp14
F0.0
aF0.0
aF0.0
aF0.0
aF0.0
aF0.08
aF0.818
aF0.0
aF0.0
aF0.0
aF0.0
aF0.0
aF0.0
aF0.0
aF0.0
aF0.0
aF0.0
aF0.0
aF0.0
aF0.0
aF0.0
aF0.0
aF0.0
aF0.0
aF0.0
aF0.0
aF0.0
aF0.0
aF0.0
aF0.074
aF0.0
aF0.0
aF0.0
aF0.0
aF0.0
aF0.0
aF0.0
aF0.0
aF0.0
aF0.0
aF0.0
aF0.0
aF0.0
aF0.0
aF0.0
aF0.0
aF0.0
aF0.028
asS'assemblage-996-146'
p15
(lp16
F0.0
aF0.0
aF0.0
aF0.0
aF0.0
aF0.528
aF0.0
aF0.03
aF0.0
aF0.0
aF0.0
aF0.0
aF0.0
aF0.0
aF0.0
aF0.0
aF0.0
aF0.0
aF0.0
aF0.026
aF0.0
aF0.0
aF0.0
aF0.0
aF0.0
aF0.0
aF0.0
aF0.0
aF0.036
aF0.0
aF0.0
aF0.0
aF0.0
aF0.0
aF0.0
aF0.0
aF0.0
aF0.0
aF0.36
aF0.0
aF0.0
aF0.0
aF0.0
aF0.0
aF0.0
aF0.0
aF0.0
aF0.02
asS'assemblage-362-519'
p17
(lp18
F0.0
aF0.0
aF0.0
aF0.0
aF0.0
aF0.276
aF0.0
aF0.598
aF0.0
aF0.0
aF0.0
aF0.0
aF0.0
aF0.0
aF0.0
aF0.0
aF0.0
aF0.0
aF0.0
aF0.0
aF0.0
aF0.0
aF0.0
aF0.0
aF0.0
aF0.022
aF0.0
aF0.0
aF0.0
aF0.0
aF0.0
aF0.0
aF0.0
aF0.0
aF0.0
aF0.0
aF0.0
aF0.0
aF0.0
aF0.0
aF0.05
aF0.0
aF0.0
aF0.0
aF0.032
aF0.0
aF0.0
aF0.022
asS'assemblage-570-928'
p19
(lp20
F0.0
aF0.0
aF0.0
aF0.022
aF0.006
aF0.622
aF0.0
aF0.146
aF0.0
aF0.0
aF0.0
aF0.0
aF0.0
aF0.0
aF0.0
aF0.0
aF0.0
aF0.0
aF0.0
aF0.0
aF0.0
aF0.0
aF0.0
aF0.0
aF0.0
aF0.0
aF0.0
aF0.0
aF0.0
aF0.0
aF0.0
aF0.0
aF0.0
aF0.0
aF0.0
aF0.0
aF0.0
aF0.0
aF0.0
aF0.0
aF0.0
aF0.0
aF0.0
aF0.0
aF0.166
aF0.0
aF0.0
aF0.038
asS'assemblage-963-913'
p21
(lp22
F0.02
aF0.0
aF0.0
aF0.0
aF0.0
aF0.762
aF0.0
aF0.16
aF0.0
aF0.0
aF0.0
aF0.0
aF0.0
aF0.0
aF0.0
aF0.0
aF0.0
aF0.0
aF0.0
aF0.0
aF0.0
aF0.0
aF0.0
aF0.0
aF0.0
aF0.0
aF0.0
aF0.032
aF0.0
aF0.0
aF0.0
aF0.0
aF0.0
aF0.0
aF0.0
aF0.0
aF0.0
aF0.0
aF0.0
aF0.0
aF0.0
aF0.0
aF0.0
aF0.0
aF0.0
aF0.0
aF0.0
aF0.026
asS'assemblage-705-361'
p23
(lp24
F0.0
aF0.0
aF0.0
aF0.0
aF0.0
aF0.128
aF0.0
aF0.594
aF0.0
aF0.0
aF0.146
aF0.072
aF0.0
aF0.0
aF0.042
aF0.0
aF0.0
aF0.0
aF0.0
aF0.0
aF0.0
aF0.0
aF0.0
aF0.0
aF0.0
aF0.0
aF0.0
aF0.0
aF0.0
aF0.0
aF0.0
aF0.0
aF0.0
aF0.0
aF0.0
aF0.0
aF0.0
aF0.0
aF0.0
aF0.0
aF0.0
aF0.0
aF0.0
aF0.0
aF0.0
aF0.0
aF0.0
aF0.018
asS'assemblage-599-132'
p25
(lp26
F0.0
aF0.0
aF0.0
aF0.124
aF0.0
aF0.152
aF0.0
aF0.006
aF0.0
aF0.0
aF0.0
aF0.0
aF0.0
aF0.0
aF0.0
aF0.0
aF0.0
aF0.0
aF0.0
aF0.0
aF0.0
aF0.0
aF0.0
aF0.0
aF0.0
aF0.0
aF0.0
aF0.0
aF0.0
aF0.0
aF0.0
aF0.0
aF0.0
aF0.0
aF0.0
aF0.0
aF0.0
aF0.0
aF0.0
aF0.0
aF0.0
aF0.0
aF0.0
aF0.0
aF0.678
aF0.028
aF0.0
aF0.012
asS'assemblage-628-778'
p27
(lp28
F0.0
aF0.0
aF0.0
aF0.0
aF0.0
aF0.256
aF0.0
aF0.322
aF0.0
aF0.0
aF0.022
aF0.0
aF0.0
aF0.0
aF0.0
aF0.022
aF0.0
aF0.0
aF0.006
aF0.0
aF0.0
aF0.0
aF0.0
aF0.0
aF0.0
aF0.0
aF0.0
aF0.0
aF0.0
aF0.0
aF0.0
aF0.0
aF0.0
aF0.0
aF0.0
aF0.012
aF0.0
aF0.0
aF0.0
aF0.0
aF0.0
aF0.0
aF0.0
aF0.0
aF0.356
aF0.0
aF0.0
aF0.004
asS'assemblage-791-131'
p29
(lp30
F0.0
aF0.0
aF0.0
aF0.0
aF0.0
aF0.154
aF0.0
aF0.566
aF0.0
aF0.0
aF0.152
aF0.066
aF0.0
aF0.0
aF0.03
aF0.0
aF0.0
aF0.0
aF0.0
aF0.0
aF0.0
aF0.0
aF0.0
aF0.0
aF0.0
aF0.0
aF0.0
aF0.0
aF0.0
aF0.0
aF0.0
aF0.0
aF0.0
aF0.0
aF0.0
aF0.0
aF0.0
aF0.0
aF0.0
aF0.0
aF0.0
aF0.0
aF0.0
aF0.0
aF0.0
aF0.0
aF0.0
aF0.032
asS'assemblage-85-91'
p31
(lp32
F0.0
aF0.0
aF0.0
aF0.13
aF0.0
aF0.126
aF0.0
aF0.01
aF0.0
aF0.0
aF0.0
aF0.0
aF0.0
aF0.0
aF0.0
aF0.0
aF0.0
aF0.0
aF0.0
aF0.0
aF0.0
aF0.0
aF0.0
aF0.0
aF0.0
aF0.0
aF0.0
aF0.0
aF0.0
aF0.0
aF0.0
aF0.0
aF0.0
aF0.0
aF0.0
aF0.0
aF0.0
aF0.0
aF0.0
aF0.0
aF0.0
aF0.0
aF0.0
aF0.0
aF0.708
aF0.018
aF0.0
aF0.008
as.