(dp0
S'assemblage-151-733'
p1
(lp2
S'assemblage-589-914'
p3
aS'assemblage-1000-672'
p4
aS'assemblage-722-797'
p5
aS'assemblage-695-371'
p6
aS'assemblage-486-523'
p7
aS'assemblage-168-801'
p8
aS'assemblage-996-146'
p9
aS'assemblage-362-519'
p10
aS'assemblage-570-928'
p11
aS'assemblage-963-913'
p12
aS'assemblage-705-361'
p13
aS'assemblage-599-132'
p14
aS'assemblage-628-778'
p15
aS'assemblage-791-131'
p16
aS'assemblage-85-91'
p17
asg3
(lp18
g1
ag4
ag5
ag6
ag7
ag8
ag9
ag10
ag11
ag12
ag13
ag14
ag15
ag16
ag17
asg4
(lp19
g1
ag3
ag5
ag6
ag7
ag8
ag9
ag10
ag11
ag12
ag13
ag14
ag15
ag16
ag17
asg5
(lp20
g1
ag3
ag4
ag6
ag7
ag8
ag9
ag10
ag11
ag12
ag13
ag14
ag15
ag16
ag17
asg6
(lp21
g1
ag3
ag4
ag5
ag7
ag8
ag9
ag10
ag11
ag12
ag13
ag14
ag15
ag16
ag17
asg15
(lp22
g1
ag3
ag4
ag5
ag6
ag7
ag8
ag9
ag10
ag11
ag12
ag13
ag14
ag16
ag17
asg8
(lp23
g1
ag3
ag4
ag5
ag6
ag7
ag9
ag10
ag11
ag12
ag13
ag14
ag15
ag16
ag17
asg9
(lp24
g1
ag3
ag4
ag5
ag6
ag7
ag8
ag10
ag11
ag12
ag13
ag14
ag15
ag16
ag17
asg10
(lp25
g1
ag3
ag4
ag5
ag6
ag7
ag8
ag9
ag11
ag12
ag13
ag14
ag15
ag16
ag17
asg11
(lp26
g1
ag3
ag4
ag5
ag6
ag7
ag8
ag9
ag10
ag12
ag13
ag14
ag15
ag16
ag17
asg12
(lp27
g1
ag3
ag4
ag5
ag6
ag7
ag8
ag9
ag10
ag11
ag13
ag14
ag15
ag16
ag17
asg13
(lp28
g1
ag3
ag4
ag5
ag6
ag7
ag8
ag9
ag10
ag11
ag12
ag14
ag15
ag16
ag17
asg14
(lp29
g1
ag3
ag4
ag5
ag6
ag7
ag8
ag9
ag10
ag11
ag12
ag13
ag15
ag16
ag17
asg7
(lp30
g1
ag3
ag4
ag5
ag6
ag8
ag9
ag10
ag11
ag12
ag13
ag14
ag15
ag16
ag17
asg16
(lp31
g1
ag3
ag4
ag5
ag6
ag7
ag8
ag9
ag10
ag11
ag12
ag13
ag14
ag15
ag17
asg17
(lp32
g1
ag3
ag4
ag5
ag6
ag7
ag8
ag9
ag10
ag11
ag12
ag13
ag14
ag15
ag16
as.