(dp0
S'assemblage-18-26'
p1
(lp2
S'assemblage-20-7'
p3
aS'assemblage-27-27'
p4
aS'assemblage-12-11'
p5
aS'assemblage-42-12'
p6
aS'assemblage-22-9'
p7
aS'assemblage-42-15'
p8
aS'assemblage-2-6'
p9
aS'assemblage-38-23'
p10
aS'assemblage-8-25'
p11
aS'assemblage-38-13'
p12
aS'assemblage-17-9'
p13
asg4
(lp14
g3
ag1
ag5
ag6
ag7
ag8
ag9
ag10
ag11
ag12
ag13
asg5
(lp15
g3
ag1
ag4
ag6
ag7
ag8
ag9
ag10
ag11
ag12
ag13
asg6
(lp16
g3
ag1
ag4
ag5
ag7
ag8
ag9
ag10
ag11
ag12
ag13
asg7
(lp17
g3
ag1
ag4
ag5
ag6
ag8
ag9
ag10
ag11
ag12
ag13
asg8
(lp18
g3
ag1
ag4
ag5
ag6
ag7
ag9
ag10
ag11
ag12
ag13
asg9
(lp19
g3
ag1
ag4
ag5
ag6
ag7
ag8
ag10
ag11
ag12
ag13
asg10
(lp20
g3
ag1
ag4
ag5
ag6
ag7
ag8
ag9
ag11
ag12
ag13
asg12
(lp21
g3
ag1
ag4
ag5
ag6
ag7
ag8
ag9
ag10
ag11
ag13
asg11
(lp22
g3
ag1
ag4
ag5
ag6
ag7
ag8
ag9
ag10
ag12
ag13
asg3
(lp23
g1
ag4
ag5
ag6
ag7
ag8
ag9
ag10
ag11
ag12
ag13
asg13
(lp24
g3
ag1
ag4
ag5
ag6
ag7
ag8
ag9
ag10
ag11
ag12
as.