ccopy_reg
_reconstructor
p0
(cnetworkx.classes.graph
Graph
p1
c__builtin__
object
p2
Ntp3
Rp4
(dp5
S'node'
p6
(dp7
S'assemblage-12-17'
p8
(dp9
S'name'
p10
g8
ssS'assemblage-36-4'
p11
(dp12
g10
g11
ssS'assemblage-35-61'
p13
(dp14
g10
g13
ssS'assemblage-48-11'
p15
(dp16
g10
g15
ssS'assemblage-17-53'
p17
(dp18
g10
g17
ssS'assemblage-5-34'
p19
(dp20
g10
g19
ssS'assemblage-55-53'
p21
(dp22
g10
g21
ssS'assemblage-46-6'
p23
(dp24
g10
g23
ssS'assemblage-47-16'
p25
(dp26
g10
g25
ssS'assemblage-15-62'
p27
(dp28
g10
g27
sssS'graph'
p29
(dp30
S'is_directed'
p31
I00
ssS'edge'
p32
(dp33
g8
(dp34
g13
(dp35
S'weight'
p36
S'MMMMMUMMMMMMMMMMMMMMMMMMMMMMDMMMMMMMMMMMMUMMMMMDMMMDMMMMMDMMMMDMMMMDMMMMMMMMMMMMMMDMMMMMMMDDMMMMMMMMMMDMMMMMMMMMDMMUDMMMMMDMMMMUMMMMMMMMMMMMMMMUMMMMMMMMMMMMMMMMMDMUMMMMMMMMMMMUUMMMMMMMMDMMMMMMMDMMMDMMMMMMMUMMMMDMU'
p37
ssg11
(dp38
g36
S'MMMMMDMMMMMMMMMMMMMMMMUMMMMMDUUMMMMMMMMMUDMMMMUDMMMDMMMUMDMMMMDMMMMDMMMMMMMMMMUMMMDMMMMMMMDDMMMMMMMMMMDMMMMMMMMMDDMMDMMMMMDMMMMMUMMMMMMMUMMMMMMDMMMMUUMMMMMMMMMMMDMDMMMMMMMMMMMMDMMMMUMMMDMMMMMUMDMMMDMMMMMMMMMMUMDMM'
p39
ssg15
(dp40
g36
S'MMMMMDMMMMMMMMMMMMMMMMMMMMMMDUUMMMMMMMMUUDMMMMUDMMMDMMMMUDMMMMDUMMMDMMMMMMMMMMUMMMDMMMMMMMDDMMMMMUMMMMDMMMMMMMMMDDMMDMMMMMDMMMMMMMMMMMMMMUMMMMMDUMMMUMUMMMMMMMMMMDMDMMUMMMMMMMMMDMUMMMMUMDUMMUMMMDMMMDMMMMMMMMMMMMDMM'
p41
ssg17
(dp42
g36
S'MMMMMDMMMMMMMMMMMMMMMMMMMMMUDMMMMMMMMMMMUDMMMMUDMMMDUMMMMDMMMMDMMMMDMMUMMMMMMMMUUMDMMMMMMMDDMUMMMMMMMMDUMMMMMMMMDDMMDMMMMMDMMMMMMMUUMMMMMMMMMMUDMMMMUMMMMMMMMMMMUDMUMMMMMMMMUUMMDMMMMMMMMDMUUMMMMDMMMDMMMMMMMMMMMMDMM'
p43
ssg19
(dp44
g36
S'MMMMMDMMMMMMMMMUMMMMMMMMMMMMDMMMMMMMMMMMUDMMMMUDMMMDMMMMMDMMMMDMMMMDMMMMMMMMMMMMMMDMMMMMMMDDMMMMMMMMMMDUMMMMMMMMDDMMDMMMMMDMMMMMMMMMMMMMMMMMMMUDMMMMUMMMMMMMMMMMUDMUUMMMMMMMUMUMDMMMMMMMMDMUMMMMMDMMMDMMMMMMMMUMMMDMM'
p45
ssg21
(dp46
g36
S'MUMMMDMMMMMMMMMMUMUUMUMMMMMMDUMMUMMUMMMUUDUMMMUDMMUDMMMMMDMMMMDMMMMDMUUUUMMMMMUMMMDMMMMMMMMDMMMMUUMMUUDUMMUMMMMMDDUMDMMMMMDUMMMMMMMMMMMMMMMUUMUDMMMMUMMMUMMMMUMMUDMDMMMMMUMMUMMMDMMMMMUMUDMUMMMMMDMMMDMMMMMMMMMMMMDMM'
p47
ssg23
(dp48
g36
S'MMMMUUMMMUMUMMMMMMMUMMMMMMMMDMMMMMMMMMMMMDMMMMMDMMMDMMMMMDMMMMDMMMMDMMMUMMMMUMMMMMDMMMMUMMDDMMMMMMMMUMDMMMMMMMMMDDMMDMMMMMDMMMMMMMMMUUMMMMUMMMMDMMMMMMMMMMMMMMMMMDMDMMMMMMUMMMMMDMMMMMMMMDMMMMMMMDMMMDMMMMMUMMMMMMDMM'
p49
ssg25
(dp50
g36
S'MMMMMDMMUMUMMMMMMMMMMMMMMMUMDUUMMMMMUMMUUDMMMMUDMMMDMMMMMDMMMMDMUMMDMMMMUMMMMMUMMMDMMMMMMMDDMMUMMUMMMUDMMMMMMMMMDDMMDMMMUMDMMMMMMMMMMMMMMMMMMMMDMMMMUMMMUMUMMMMMMDMDMMMMMMMMMMMMDMMMMMMMMDMMMMMMMDMMMDMMMMMMMMMMMMDMM'
p51
ssg27
(dp52
g36
S'MMMMMDMMMMMMMMMMMMMMMMMMMMMMDMMMMMMMMMMMMUMMMMMDMMMUMMMMMDMUMMMMMMMDMMMMMMMMMMMMMMDMMMMMMMDDMMMMMMMMMMDMMMMMUMMMUDMMDMMMMMUMMMMMMMMMMMMMMMMMMMMDMMMUMMMMMMMMMMMMMDMUMMMMMMMMMMMMDMMMMMMMMDMMMMMMMDMMMDMMMMMMMMMMMMDMM'
p53
sssg11
(dp54
g8
g38
sg13
(dp55
g36
S'MMMMMDMMMMMMMMMMMMMMMMUMMMMMMUUMMMMMMMMMUDMMMMUDMMMMMMMUMMMMMMDMMMMMMMMMMMMMMMUMMMDMMMMMMMMMMMMMMMMMMMMMMMMMMMMMMDMDMMMMMMMMMMMDUMMMMMMMUMMMMMMDMMMMUUMMMMMMMMMMMMMDMMMMMMMMMMMDDMMMMUMMMMMMMMMUMMMMMMMMMMMMMDMMUMMMD'
p56
ssg15
(dp57
g36
S'MMMMMDMMMMMMMMMMMMMMMMUMMMMMMUUMMMMMMMMDUMMMMMDMMMMMMMMUDMMMMMMDMMMMMMMMMMMMMMUMMMMMMMMMMMMMMMMMMDMMMMMMMMMMMMMMMMMMMMMMMMMMMMMMUMMMMMMMUDMMMMMMDMMMDUDMMMMMMMMMMMMMMMDMMMMMMMMMMMDMMUMDMMDMMDMUMMMMMMMMMMMMMMMMUMMMM'
p58
ssg17
(dp59
g36
S'MMMMMDMMMMMMMMMMMMMMMMUMMMMDMUUMMMMMMMMMUMMMMMDMMMMMDMMUMMMMMMMMMMMMMMDMMMMMMMUDDMMMMMMMMMMMMDMMMMMMMMMDMMMMMMMMMMMMMMMMMMMMMMMMUMDDMMMMUMMMMMDMMMMMUUMMMMMMMMMMDMMDMMMMMMMMDDMMMMMMMUMMMMMDDMMUMMMMMMMMMMMMMMMMUMMMM'
p60
ssg19
(dp61
g36
S'MMMMMDMMMMMMMMMDMMMMMMUMMMMMMUUMMMMMMMMMUMMMMMDMMMMMMMMUMMMMMMMMMMMMMMMMMMMMMMUMMMMMMMMMMMMMMMMMMMMMMMMDMMMMMMMMMMMMMMMMMMMMMMMMUMMMMMMMUMMMMMDMMMMMUUMMMMMMMMMMDMMDDMMMMMMMDMDMMMMMMUMMMMMDMMMUMMMMMMMMMMMMMMDMUMMMM'
p62
ssg21
(dp63
g36
S'MDMMMDMMMMMMMMMMDMDDMDUMMMMMMUUMDMMDMMMDUMDMMMDDMMDMMMMUMDMMMMDMMMMDMDDDDMMMMMUMMMDMMMMMMMDMMMMMDDMMDDMDMMDMMMMMDMDMDMMMMMDDMMMMUMMMMMMMUMMDDMDMMMMMUUMMDMMMMDMMDMMDMMMMMDMMDMMMMMMMMUDMDMMDMMMUMDMMMDMMMMMMMMMMUMDMM'
p64
ssg23
(dp65
g36
S'MMMMDDMMMDMDMMMMMMMDMMUMMMMMMUUMMMMMMMMMUMMMMMUMMMMMMMMUMMMMMMMMMMMMMMMDMMMMDMUMMMMMMMMDMMMMMMMMMMMMDMMMMMMMMMMMMMMMMMMMMMMMMMMMUMMMDDMMUMDMMMMMMMMMUUMMMMMMMMMMMMMMMMMMMMDMMMMMMMMMMUMMMMMMMMMUMMMMMMMMMMMDMMMMUMMMM'
p66
ssg25
(dp67
g36
S'MMMMMUMMDMDMMMMMMMMMMMUMMMDMMUUMMMMMDMMDUMMMMMDMMMMMMMMUMMMMMMMMDMMMMMMMDMMMMMUMMMMMMMMMMMMMMMDMMDMMMDMMMMMMMMMMMMMMMMMMDMMMMMMMUMMMMMMMUMMMMMMMMMMMDUMMDMDMMMMMMMMMMMMMMMMMMMMMMMMMMUMMMMMMMMMUMMMMMMMMMMMMMMMMUMMMM'
p68
ssg27
(dp69
g36
S'MMMMMUMMMMMMMMMMMMMMMMDMMMMMMDDMMMMMMMMMDUMMMMDUMMMUMMMDMUMUMMUMMMMMMMMMMMMMMMDMMMUMMMMMMMMMMMMMMMMMMMUMMMMMUMMMUMMMMMMMMMUMMMMMDMMMMMMMDMMMMMMMMMMUDDMMMMMMMMMMMMMUMMMMMMMMMMMMUMMMMDMMMMMMMMMDMMMMMMMMMMMMMMMMDMMMM'
p70
sssg13
(dp71
g8
g35
sg11
g55
sg15
(dp72
g36
S'MMMMMDMMMMMMMMMMMMMMMMMMMMMMMUUMMMMMMMMUUDMMMMUDMMMMMMMMUMMMMMDUMMMMMMMMMMMMMMUMMMDMMMMMMMMMMMMMMUMMMMMMMMMMMMMMMDMDMMMMMMMMMMMDMMMMMMMMMUMMMMMDUMMMUMUMMMMMMMMMMMMDMMUMMMMMMMMDDMUMMMMUMMUMMUMMMMMMMMMMMMMMMDMMMMMMD'
p73
ssg17
(dp74
g36
S'MMMMMDMMMMMMMMMMMMMMMMMMMMMUMMMMMMMMMMMMUDMMMMUDMMMMUMMMMMMMMMDMMMMMMMUMMMMMMMMUUMDMMMMMMMMMMUMMMMMMMMMUMMMMMMMMMDMDMMMMMMMMMMMDMMUUMMMMMMMMMMUDMMMMUMMMMMMMMMMMUMMUMMMMMMMMUUMDDMMMMMMMMMMUUMMMMMMMMMMMMMMMMDMMMMMMD'
p75
ssg19
(dp76
g36
S'MMMMMDMMMMMMMMMUMMMMMMMMMMMMMMMMMMMMMMMMUDMMMMUDMMMMMMMMMMMMMMDMMMMMMMMMMMMMMMMMMMDMMMMMMMMMMMMMMMMMMMMUMMMMMMMMMDMDMMMMMMMMMMMDMMMMMMMMMMMMMMUDMMMMUMMMMMMMMMMMUMMUUMMMMMMMUMUDDMMMMMMMMMMUMMMMMMMMMMMMMMMMMDUMMMMMD'
p77
ssg21
(dp78
g36
S'MUMMMDMMMMMMMMMMUMUUMUMMMMMMMUMMUMMUMMMUUDUMMMUDMMUMMMMMMUMMMMDMMMMUMUUUUMMMMMUMMMDMMMMMMMUMMMMMUUMMUUMUMMUMMMMMUDUDUMMMMMUUMMMDMMMMMMMMMMMUUMUDMMMMUMMMUMMMMUMMUMMDMMMMMUMMUMMDDMMMMMUMUMMUMMMMMUMMMUMMMMMMMDMMMMUMD'
p79
ssg23
(dp80
g36
S'MMMMUUMMMUMUMMMMMMMUMMMMMMMMMMMMMMMMMMMMMDMMMMMDMMMMMMMMMMMMMMDMMMMMMMMUMMMMUMMMMMDMMMMUMMMMMMMMMMMMUMMMMMMMMMMMMDMDMMMMMMMMMMMDMMMMUUMMMMUMMMMDMMMMMMMMMMMMMMMMMMMDMMMMMMUMMMMDDMMMMMMMMMMMMMMMMMMMMMMMMMMUMDMMMMMMD'
p81
ssg25
(dp82
g36
S'MMMMMUMMDMDMMMMMMMMMMMMMMMDMMDDMMMMMDMMDDUMMMMDUMMMMMMMMMMMMMMUMDMMMMMMMDMMMMMDMMMUMMMMMMMMMMMDMMDMMMDMMMMMMMMMMMUMUMMMMDMMMMMMUMMMMMMMMMMMMMMMUMMMMDMMMDMDMMMMMMMMUMMMMMMMMMMMUUMMMMMMMMMMMMMMMMMMMMMMMMMMMMUMMMMMMU'
p83
ssg27
(dp84
g36
S'MMMMMDMMMMMMMMMMMMMMMMMMMMMMMMMMMMMMMMMMMDMMMMMUMMMUMMMMMUMUMMUMMMMMMMMMMMMMMMMMMMDMMMMMMMMMMMMMMMMMMMUMMMMMUMMMUDMDMMMMMMUMMMMDMMMMMMMMMMMMMMMDMMMUMMMMMMMMMMMMMMMUMMMMMMMMMMMDDMMMMMMMMMMMMMMMMMMMMMMMMMMMMDMMMMMMD'
p85
sssg15
(dp86
g8
g40
sg11
g57
sg13
g72
sg17
(dp87
g36
S'MMMMMUMMMMMMMMMMMMMMMMMMMMMUMDDMMMMMMMMDDMMMMMUMMMMMUMMMDMMMMMMDMMMMMMUMMMMMMMDUUMMMMMMMMMMMMUMMMDMMMMMUMMMMMMMMMMMMMMMMMMMMMMMMMMUUMMMMMDMMMMUMDMMMDMDMMMMMMMMMUMMUMMDMMMMMUUMMMMDMMMMDMMDUUDMMMMMMMMMMMMMMMMMMMMMMM'
p88
ssg19
(dp89
g36
S'MMMMMUMMMMMMMMMUMMMMMMMMMMMMMDDMMMMMMMMDDMMMMMUMMMMMMMMMDMMMMMMDMMMMMMMMMMMMMMDMMMMMMMMMMMMMMMMMMDMMMMMUMMMMMMMMMMMMMMMMMMMMMMMMMMMMMMMMMDMMMMUMDMMMDMDMMMMMMMMMUMMUUMDMMMMMUMUMMMDMMMMDMMDUMDMMMMMMMMMMMMMMMMUMMMMMM'
p90
ssg21
(dp91
g36
S'MUMMMUMMMMMMMMMMUMUUMUMMMMMMMDDMUMMUMMMDDMUMMMUUMMUMMMMMDUMMMMUDMMMUMUUUUMMMMMDMMMUMMMMMMMUMMMMMUUMMUUMUMMUMMMMMUMUMUMMMMMUUMMMMMMMMMMMMMDMUUMUMDMMMDMDMUMMMMUMMUMMUMMDMMUMMUMMMMMDMMMUDUMDUMDMMMUMMMUMMMMMMMMMMMMUMM'
p92
ssg23
(dp93
g36
S'MMMMUUMMMUMUMMMMMMMUMMMMMMMMMDDMMMMMMMMDDMMMMMDMMMMMMMMMDMMMMMMDMMMMMMMUMMMMUMDMMMMMMMMUMMMMMMMMMDMMUMMMMMMMMMMMMMMMMMMMMMMMMMMMMMMMUUMMMDUMMMMMDMMMDMDMMMMMMMMMMMMMMMDMMMUMMMMMMMDMMMMDMMDMMDMMMMMMMMMMMMMUMMMMMMMMM'
p94
ssg25
(dp95
g36
S'MMMMMUMMDMDMMMMMMMMMMMMMMMDMMUUMMMMMDMMDUMMMMMDMMMMMMMMMUMMMMMMUDMMMMMMMDMMMMMUMMMMMMMMMMMMMMMDMMDMMMDMMMMMMMMMMMMMMMMMMDMMMMMMMMMMMMMMMMUMMMMMMUMMMDMUMDMDMMMMMMMMMMMUMMMMMMMMMMMUMMMMUMMUMMUMMMMMMMMMMMMMMMMMMMMMMM'
p96
ssg27
(dp97
g36
S'MMMMMUMMMMMMMMMMMMMMMMMMMMMMMDDMMMMMMMMDDUMMMMDUMMMUMMMMDUMUMMUDMMMMMMMMMMMMMMDMMMUMMMMMMMMMMMMMMDMMMMUMMMMMUMMMUMMMMMMMMMUMMMMMMMMMMMMMMDMMMMMMDMMUDMDMMMMMMMMMMMMUMMDMMMMMMMMMUMDMMMMDMMDMMDMMMMMMMMMMMMMMMMMMMMMMM'
p98
sssg17
(dp99
g8
g42
sg11
g59
sg13
g74
sg15
g87
sg19
(dp100
g36
S'MMMMMUMMMMMMMMMUMMMMMMMMMMMDMMMMMMMMMMMMUMMMMMDMMMMMDMMMMMMMMMMMMMMMMMDMMMMMMMMDDMMMMMMMMMMMMDMMMMMMMMMDMMMMMMMMMMMMMMMMMMMMMMMMMMDDMMMMMMMMMMUMMMMMDMMMMMMMMMMMDMMUUMMMMMMMUDUMMMMMMMMMMMMDDMMMMMMMMMMMMMMMMMUMMMMMM'
p101
ssg21
(dp102
g36
S'MUMMMDMMMMMMMMMMUMUUMUMMMMMDMUMMUMMUMMMUDMUMMMDUMMUMDMMMMUMMMMUMMMMUMUDUUMMMMMUDDMUMMMMMMMUMMDMMUUMMUUMDMMUMMMMMUMUMUMMMMMUUMMMMMMDDMMMMMMMUUMDMMMMMUMMMUMMMMUMMDMMDMMMMMUMMDDMMMMMMMMUMUMMDDMMMMUMMMUMMMMMMMMMMMMUMM'
p103
ssg23
(dp104
g36
S'MMMMUUMMMUMUMMMMMMMUMMMMMMMDMMMMMMMMMMMMDMMMMMDMMMMMDMMMMMMMMMMMMMMMMMDUMMMMUMMDDMMMMMMUMMMMMDMMMMMMUMMDMMMMMMMMMMMMMMMMMMMMMMMMMMDDUUMMMMUMMMDMMMMMDMMMMMMMMMMMDMMDMMMMMMUMDDMMMMMMMMMMMMMDDMMMMMMMMMMMMMMUMMMMMMMMM'
p105
ssg25
(dp106
g36
S'MMMMMUMMDMDMMMMMMMMMMMMMMMDUMDDMMMMMDMMDDMMMMMDMMMMMUMMMMMMMMMMMDMMMMMUMDMMMMMDUUMMMMMMMMMMMMUDMMDMMMDMUMMMMMMMMMMMMMMMMDMMMMMMMMMUUMMMMMMMMMMUMMMMMDMMMDMDMMMMMUMMUMMMMMMMMUUMMMMMMMMMMMMMUUMMMMMMMMMMMMMMMMMMMMMMMM'
p107
ssg27
(dp108
g36
S'MMMMMUMMMMMMMMMMMMMMMMMMMMMDMMMMMMMMMMMMDUMMMMDUMMMUDMMMMUMUMMUMMMMMMMDMMMMMMMMDDMUMMMMMMMMMMDMMMMMMMMUDMMMMUMMMUMMMMMMMMMUMMMMMMMDDMMMMMMMMMMDMMMMUDMMMMMMMMMMMDMMDMMMMMMMMDDMMUMMMMMMMMMMDDMMMMMMMMMMMMMMMMMMMMMMMM'
p109
sssg19
(dp110
g8
g44
sg11
g61
sg13
g76
sg15
g89
sg17
g100
sg21
(dp111
g36
S'MUMMMDMMMMMMMMMDUMUUMUMMMMMMMUMMUMMUMMMUDMUMMMDUMMUMMMMMMUMMMMUMMMMUMUUUUMMMMMUMMMUMMMMMMMUMMMMMUUMMUUMDMMUMMMMMUMUMUMMMMMUUMMMMMMMMMMMMMMMUUMDMMMMMUMMMUMMMMUMMDMMDDMMMMUMMDMDMMMMMMMUMUMMDMMMMMUMMMUMMMMMMMMDMMMUMM'
p112
ssg23
(dp113
g36
S'MMMMUUMMMUMUMMMDMMMUMMMMMMMMMMMMMMMMMMMMDMMMMMDMMMMMMMMMMMMMMMMMMMMMMMMUMMMMUMMMMMMMMMMUMMMMMMMMMMMMUMMDMMMMMMMMMMMMMMMMMMMMMMMMMMMMUUMMMMUMMMDMMMMMDMMMMMMMMMMMDMMDDMMMMMUMDMDMMMMMMMMMMMMDMMMMMMMMMMMMMMMUMMDMMMMMM'
p114
ssg25
(dp115
g36
S'MMMMMUMMDMDMMMMUMMMMMMMMMMDMMDDMMMMMDMMDDMMMMMDMMMMMMMMMMMMMMMMMDMMMMMMMDMMMMMDMMMMMMMMMMMMMMMDMMDMMMDMUMMMMMMMMMMMMMMMMDMMMMMMMMMMMMMMMMMMMMMUMMMMMDMMMDMDMMMMMUMMUUMMMMMMMUMUMMMMMMMMMMMMUMMMMMMMMMMMMMMMMMMUMMMMMM'
p116
ssg27
(dp117
g36
S'MMMMMUMMMMMMMMMDMMMMMMMMMMMMMMMMMMMMMMMMDUMMMMDUMMMUMMMMMUMUMMUMMMMMMMMMMMMMMMMMMMUMMMMMMMMMMMMMMMMMMMUDMMMMUMMMUMMMMMMMMMUMMMMMMMMMMMMMMMMMMMDMMMMUDMMMMMMMMMMMDMMDDMMMMMMMDMDMUMMMMMMMMMMDMMMMMMMMMMMMMMMMMMDMMMMMM'
p118
sssg21
(dp119
g8
g46
sg11
g63
sg13
g78
sg15
g91
sg17
g102
sg19
g111
sg23
(dp120
g36
S'MDMMUUMMMUMUMMMMDMDUMDMMMMMMMDMMDMMDMMMDDMDMMMDDMMDMMMMMMDMMMMDMMMMDMDDUDMMMUMDMMMDMMMMUMMDMMMMMDDMMUDMDMMDMMMMMDMDMDMMMMMDDMMMMMMMMUUMMMMUDDMDMMMMMDMMMDMMMMDMMDMMDMMMMMDUMDMMMMMMMMMDMDMMDMMMMMDMMMDMMMMMUMMMMMMDMM'
p121
ssg25
(dp122
g36
S'MUMMMUMMDMDMMMMMUMUUMUMMMMDMMDDMUMMUDMMDDMUMMMDUMMUMMMMMMUMMMMUMDMMUMUUUDMMMMMDMMMUMMMMMMMUMMMDMUDMMUDMUMMUMMMMMUMUMUMMMDMUUMMMMMMMMMMMMMMMUUMUMMMMMDMMMDMDMMUMMUMMUMMMMMUMMUMMMMMMMMMUMUMMUMMMMMUMMMUMMMMMMMMMMMMUMM'
p123
ssg27
(dp124
g36
S'MDMMMUMMMMMMMMMMDMDDMDMMMMMMMDMMDMMDMMMDDUDMMMDUMMDUMMMMMMMUMMUMMMMDMDDDDMMMMMDMMMUMMMMMMMDMMMMMDDMMDDUDMMDMUMMMUMDMDMMMMMUDMMMMMMMMMMMMMMMDDMDMMMMUDMMMDMMMMDMMDMMUMMMMMDMMDMMMUMMMMMDMDMMDMMMMMDMMMDMMMMMMMMMMMMDMM'
p125
sssg23
(dp126
g8
g48
sg11
g65
sg13
g80
sg15
g93
sg17
g104
sg19
g113
sg21
g120
sg25
(dp127
g36
S'MMMMUUMMDUDUMMMMMMMUMMMMMMDMMDDMMMMMDMMDDMMMMMDMMMMMMMMMMMMMMMMMDMMMMMMUDMMMUMDMMMMMMMMUMMMMMMDMMDMMUDMMMMMMMMMMMMMMMMMMDMMMMMMMMMMMUUMMMMUMMMMMMMMMDMMMDMDMMMMMMMMMMMMMMMUMMMMMMMMMMMMMMMMMMMMMMMMMMMMMMMMUMMMMMMMMM'
p128
ssg27
(dp129
g36
S'MMMMDDMMMDMDMMMMMMMDMMMMMMMMMMMMMMMMMMMMMUMMMMMUMMMUMMMMMUMUMMUMMMMMMMMDMMMMDMMMMMUMMMMDMMMMMMMMMMMMDMUMMMMMUMMMUMMMMMMMMMUMMMMMMMMMDDMMMMDMMMMMMMMUMMMMMMMMMMMMMMMUMMMMMMDMMMMMUMMMMMMMMMMMMMMMMMMMMMMMMMMDMMMMMMMMM'
p130
sssg25
(dp131
g8
g50
sg13
g82
sg15
g95
sg17
g106
sg19
g115
sg21
g122
sg23
g127
sg11
g67
sg27
(dp132
g36
S'MMMMMUMMDMDMMMMMMMMMMMMMMMDMMDDMMMMMDMMDDUMMMMDUMMMUMMMMMUMUMMUMDMMMMMMMDMMMMMDMMMUMMMMMMMMMMMDMMDMMMDUMMMMMUMMMUMMMMMMMDMUMMMMMMMMMMMMMMMMMMMMMMMMUDMMMDMDMMMMMMMMUMMMMMMMMMMMMUMMMMMMMMMMMMMMMMMMMMMMMMMMMMMMMMMMMM'
p133
sssg27
(dp134
g8
g52
sg11
g69
sg13
g84
sg15
g97
sg17
g108
sg19
g117
sg21
g124
sg23
g129
sg25
g132
sssS'adj'
p135
g33
sb.