ccopy_reg
_reconstructor
p0
(cnetworkx.classes.graph
Graph
p1
c__builtin__
object
p2
Ntp3
Rp4
(dp5
S'node'
p6
(dp7
S'assemblage-627-247'
p8
(dp9
S'name'
p10
g8
ssS'assemblage-627-246'
p11
(dp12
g10
g11
ssS'assemblage-986-226'
p13
(dp14
g10
g13
ssS'assemblage-469-851'
p15
(dp16
g10
g15
ssS'assemblage-623-261'
p17
(dp18
g10
g17
ssS'assemblage-140-194'
p19
(dp20
g10
g19
ssS'assemblage-415-741'
p21
(dp22
g10
g21
ssS'assemblage-724-655'
p23
(dp24
g10
g23
ssS'assemblage-862-766'
p25
(dp26
g10
g25
ssS'assemblage-535-733'
p27
(dp28
g10
g27
ssS'assemblage-927-755'
p29
(dp30
g10
g29
ssS'assemblage-306-208'
p31
(dp32
g10
g31
sssS'graph'
p33
(dp34
S'is_directed'
p35
I00
ssS'edge'
p36
(dp37
g8
(dp38
g11
(dp39
S'weight'
p40
S'MMMMMMMMMMMMUMMMMMMMMMMMUMMMMMMMMUMMMMMMMMMMMMMMMMMMMMMMMMMMMMMMMMMMMMMMMMMMMMMMMMMUMMMMMMMMMMMMMMMMMMMMMMMMMMMMMMMMMMMMMMMMMMMMMMMMMMMMMMMMMMMMMMMMMUMMMMMMMMMMMMMMMDMMMMMMMMMMMMMMMMMDMMMMMMMMMUMMMMMMMMMMMMMMMMMMUMMMMMMMMMMDMMMMMMMMMMMMMMMMMMMMMMMMMMMMMMMMMMMMMMMMMMMMMMMMMMMMMMMMMMMMMMMMMMMMMDMMMMMMMMMMMUMMMMMMUMMMMMMMMMMMMMMMMMMMMMMMMMMMMMMMMMMMMMMMMMMMMMMMMMMMMMMMMMMMMMMMMMMMMMMMMMMDMMMMMMMMMMMMMMMMMMMMMMMMMMMMMMMMMMMMMMMMMDMMMMMMMMMMMMMMMMMMMMMUMMMMMMMMMMMMMMMMMMMMMMMMMMMMMMUMMMMMMMMMMMMMMDMMMMMMMMMMMMMMMMMMMMMMMMMMMMMMMMMDMDMMMDMMMMMMMMMMMMMMMMMMMMMMMMMMMMM'
p41
ssg13
(dp42
g40
S'MMMMMMMMMMMMDMMMMMMMMMMMMMMMMMMMMDMMMMMMMMUMMMUMMMMUMMMMMMMMMMMMMMMMMMMMMMMMUMMMMMMMMMMMMMMMMMMMMMMMMMMMMMMMMMMMMMMMMMMMMMMMMMMMMMMMMMMMMMMMUMMMMMMMMDMMMMMMMMMMMMMMMDMMMMMMMMMMMMMMMMMDMUMMMMMMMMMMMMMMMMMMMMMMMMMMDMMMMMMMMMMDMMMMUMMMMMMMMMMMMMMUMMMMMMMMMMMMMMMMMMMMMMMMMMMMMMMMMMMMMMMMMMMMMMMMMDMMMUMMMMMMMMMMMMMMMMMMMMMMMMMMMUMMMMMUMMMMMMUUMMMMMMMMMMMMMUMMUMMMMMMMMMMMMMMMMMMMMMMMMMMMMMMDMMMMMMMMMMMMMMMMMMMMMMMMMMMMMMMMMMMMMMMMMDMMMMMMMMMMMMMMUMMUMMMMMMMMMMMMMMMMMMMMMMMMMMMMMMMMMMMMMMMMMMMMMMMMMDMUMMMMMMMMMMMMMDMMMMMMMMMMMMMMMMMDMDMMMDMMMMUMMMMMMMMMMMMMMMMMMMMMMMM'
p43
ssg15
(dp44
g40
S'MMMMMMMMMMMMDMMMMMMMMMMMMMMMMMMMMUMMMMMMMMMMMMMMMMMMMMMMMMMMMMMMMMMMMMMMMMMMMMMMMMMMMMMMMMMMMMMMMMMMMMMMMUMMMMMMMMMMMMMMMUMMMMMMMMMMMMMMMMMMMMUMMUMMMDMMMMMMMMMMMMMMMDMMMMMMMMMMMMMMMMMDMMMMMMMMMMMMMMMUMMMMMMMMMMMMDMUMMMMMMMMDMMMMMMMMMMMMMMMMMMMMMMMMMMMMMUMMMMMMMMMMMMMMMMMMMMMMMMMMMMUMMMMMMMMMMDMMMMMMMMMMMMMMUMMMMMMMMMMMMMMMMMMMMMMMMMMMMMMMMMMMMMMMMMMMMMMMUMMMMUMMMMMMMMMMMUMMMMUUMMMMMMMDMMMMMMMMMMMMMMMMMMMMMMMMMMMMMMMUMMMMMMMMMDMMMMMMMMMMMMMMMMMMMMMMMMMMMMMMMMUMMUMMMMMMMMMMMMMMMMMMMMMMMMMMMMMMMDMMMMMMMMMMMMMMMDMMMMMMMMMMMMMMMMMDMDMMMDMMMMMUMMMMMMMMMMMMMMMMMMMMMMM'
p45
ssg17
(dp46
g40
S'MMMMMMMMMMMMMMMMMMMMMMMMMMMMMMMMMMMMMMMMMMMMMMMMMMUMMMMMMMMMMMMMMMMMMMMMMMMMMMMMMMMMMMMMMMMMMMMMMMMMMMUMMMMMMMMMMMMMMMMMMMMMMMMUMMMMMMMMMMMMMMMMMMMMMMMMMMMMMMMMMMMMMDMMMMMMMMMMMMMMMMMDMMMMMMMMMMMMMMMMMMMMMMMMMMMMMMMMMMMMMMMDMMMMMMMMMMMMMMMMMMMMMMMMMMMMMMMMMMMUMMMMMMMMMMMMMMMMMMMMMMMMMMMMMMMMMDMMMMMMMMMMMMMMMMMMMMMMMMMMMMMMMMMMMMMMMMMMMMMMMMMMMMMMMMMMMMMMMMMMMMMMMMMMMMMMMMMMMMMMMMMMMMMDMMMMMMMMMMMMMMMMMMMMMMMMMMMMMMMMMMMMMMMMMDMMMMMMMMMMMMMMMMMUMMMMMUMMMMMMMMMMMMMMMMMMMMMMMMMMMMMMMMUMMMMMMMMMMUMMMMMMMMMMMMMMMUMMMMMMMMMMMMMMMMMDMDMMMMMMMMMMMMMMMMMMMMMMMMMMMMMMMMM'
p47
ssg19
(dp48
g40
S'MMMMMMMMMMMMDMMMMMMMMMMMMMMMMMMMMDMMMMMMMMMMMMMMMMMMMMMMMMMMMMMMMMMMMMMMMUMMMMMMMMMMMMMMMMMMMMMMMMMMMMMMMMMMMMMMMMMMMMMMMMMMMMMMMMMMMMMMMMMMMMMMMMMMMDMMMMMMMMMMMMMMMDMMMMMMMMMMMMMMMMMDMMMMMMMMMMMMMMMMMMMMMMMMMMMMDMMMMMMMMMMDMMMMMMMUMMMMMMMMMMMMMMMMMMMMMMMMMMMMMMMMMMUMMMMMMUMMMMMMMMMMMMMMUMMMMDMMMMMMMMMMMMMMMMMMMMMMMMMMMMMMMMMMMMMMMMMUMMMMMUMMMMMMUMMMMMMMUMMMMMMMMMMMMMMMMMMMMMMMMMMMMMMDMMMMMMMMUMMMMMMMMMMMMMMUMMMMMMMMMMMMMMMMMDMMMMMMMMMMMMMMMMMUMMMMMMMMMMMMMMMMMMMMMMMMMMMMMMMMMMMMMMMMMMMMMMMMMDMMMMMMMMMUMMMMMDMMMMMMMMMMMMMMMMMDMDMMMDMMMMMMMMMMMMMMMMMMMMMMMMMMMMM'
p49
ssg21
(dp50
g40
S'MMMMMMMMMMMMDMMMMMMMMMMMMMMMMMUMUDMMMMMMMMMMMMMMMMMMMMMMUMMMMMMMMMMMMMMMMMMMMMMMMMMMMMMMMMMMMMMMMMMMMMMMMMMMMUMMMMMMMMUMMMMUMMMMMMMMMMMMMMMMMMMMMMMMUDMMMMMMMMMMMMMMMDMMMMMMMMMMMMMMMMMDMMMMMMMMMMMMMMMMMMMMMMMMMMMMDMMMMMMMMMMDMUMMMMMMMMMMMMMMMMMMMMMMMMMMMMMMMUMMMMMMMMMMMMMMMMMMMMMMMMMMMMMMMUMMMDMMMMMMMMMMMMMMMMMMMMMMMMMMMUMMUMMMMMMMMMMMUMMMMMMMUMMMMMMMMMMMUMMMMMMMMMMMMMMMMMMMMMMMMMMMMMMDMMMMMMMMUMMMMMMMMMMMMMMMMMMUMMMMMMMMMMMMMDMMMMMMUMMMMUMMMMMUMMMMMMMMMMMMUMMMMMMMMMMMMMMMMMMMMUMMMMMMMMMMMMMMMDMMMMMMMMMMMMMUMDMMUMMMMMMMMMMMMMMDMDMMMDMMMMMMMMMMMMMMMMMMMMMMMMMMMMM'
p51
ssg23
(dp52
g40
S'MMMMMMMMMMMMDMMMMUMMMMMMMMMMMMMMMDMMMMMMUMMMMMMMMMMMMMMMMMMMMMMMMMMMMMUMMMMMMMMUMMMMMMMMMMMMMMMMMMMMMMMMMMMMMMMMMMMMMMMMMMMMMMMMMMMMMMMMMMMMMMMMMMMMMDMMUMMMMMMMMMMMMDMMMMMMMMMMMMMMMMMDMMMMMMMMMMMMMMUMMMMMMMMMMUMMDMMMUMMMMMMDMMMMMMMMMMMMMMMMMMMMMMMMMMMMMMMMMMMMMMMMMMMMMMMMMMMMMMMMMMMMMMMMMMMMMDMMMMMMMMMMMMMMMMMMMMMMMMMMMMMMMMMMMMMMMMMMMMMMMMMMMMMMMMUMMMMMUMMMMMMMMMMMMMMMMMMMMMMMMMMMMMMDMMMMMMMMMMMMMMMMMMMMMMMMMMMMMMMMMMMMMMMMMDMMMMMMMMUMMMMMMMUUMMMMMMMMMMUMMMMMMMMMMMMMMMMMMMMMMMMMMMMMMMMMMMMMMDMUMMMMMMMMMMMMMDMMMMMMMMMUMMMMMMMDMDMMMDMMMMMMMMMMMMMMMMMMMMMMMMMMMMM'
p53
ssg25
(dp54
g40
S'MMMMMMMMMMMMDMMMMMMMMMMMMMMMMMMMMMMMMMMMMMMMMMMMMMMMMMMMMMMMMMMUMMMMMMMMMMMMMMMMMUMMMMMMMMMMMMUMMMMMMMMMMMMMMMMMMMMMUMMMUMMMMMMMMMMMMMMMMMMMMMMMMMUMMDMMMMMMMMMMMMMMMDMMMMMMMMMMMMMMMMMDMMMMMMMMMMMMMMMMMMMMMMMMMMMMDMMMMMMMMMMDMMMMMMMMMMMMMMMMMMMMMMMMMMMUMMMMMMMMMMMMMMMMMMMMMMMMMMMMMMMMMMMMMUMMMDMUMMMMMMMMMMMMMMMMMMMMMMMMMMMMMMMMMMMMMMMMMMMMMMMUMMMMMMMMMMMMMMMMMMMMMMMMMMMMMMMMUMMMMMMMMMMDMMMMMMMMMMMMMMMMMMMMMMMMMUMMMMMMMMMMMMMMMDMMMMMMMMMMMMMMMMMUMMMMMMMMUMMMMMMMUMMMMMMMMMMMMMMMMMMMMMMMMMMMMMMMMDMMMMMMMMMMMMMMMDMMMMMMMMMMMMMMMMMDMDMMMDMMMMMMMMMMMMMMMMMMMMMMMMMMMMM'
p55
ssg27
(dp56
g40
S'MMMMMMMMMMMMDMMMMMMMMMMMMMMMMMMMMDMMMMMMMMUMMMMUMMMMMMMMMMMMMMMMMMMMMMMMMMMMMMMMMMMMMMUMMMMMMMMMMMMMMMMMMMMMMMMUMMMMMMMMMMMMMMMMMMMMMMMMMMMMMMMMMMMMMDMMMMMMMMMMMMMMMDMMMMMMMMMMMMMMMMMDMMMMMMMMMMMMMMMMMMMMMMMMMUMMDMMMMUMMMMMDMMMMMUMMMMMMMMMMMMMMMMMMMMMMMMMMMMMMMMMMMMMMMMMMMMMMMMMMMMMMMMMMMMMMMDMMMMMMMMMMMMMMMMMMMMMMMMMMMMMMMMMMMMMUMMMMMMMMMMMMMMMMMMMMMMMMUMMMMMUMMMMMMMMMMMMUMMMMMUMMMMMDMMMMMMMMMMMMMMMMMMMMMMMMMMMMMMMMMMMMMMMMMDMMMMMMMMMMMMMMMMMUMMMMMMMMMMMMMMMMMMMMMMMMMMMMMMMMMMMMMMMMMMMMMMMMMDMMMMMMMMMUMMMMMDMMMMMMMMMMMMMMMMMDMDMMMDMMMMMMMMMMMMMMMMMMMMMMUMMMMMM'
p57
ssg29
(dp58
g40
S'MMMMMMMMMMMMDMMMMMMMMUMMMMMMMMMMMDMMMMMMMMUMMMMMMMMMMMMMMMMMMMMMMMMMMMMMMMMMMMMMMMMMMMMMMMMMMMMMMMMMMMMMMMMMMMMMMMMMMMMMMMMMMMMMMMMMMUMMMMMMMMMMMMMMMDMMMMMMMMMMMMMMUDMMMMMMMMUUMMMMMMMDMMMMMMMMMMMMMMMMMMMMMMMMMMMMDMMMMMMMMMMDMMMMUMMMMMMMMMUMMMMMMMMMMMMMMMMMMMMMMMMMMMMMMMMMMMMUMMMMMMMMMMMMMMMMMDMMMMMMMMMMMMMMMMMMMMMMMMMMMMMMMMMMMMMUMMMMMMMMUMMMMMMMMMMMMMMMUMUMMMMMMUMMMMMMMMMMMMMMMMUMMMUDMMMMMMMMMMMMMMMMMMMMMMMMMMMMMMMMMMMMMMMMMDMMMMMMMMMMMMMMMMMUMMMMMMMMMMMMMMMMMMMMMMMMMMMMMMMMMMMMMMMMMMMMMMMMMDMUMMMUMMMMMMMMMDMMMMMMMMMMMMMMMMMDMDMMMDMMMMMMMMMUMMMMMMMMMMMMMMMMMMM'
p59
ssg31
(dp60
g40
S'MMMMMMMMMMMMDMMMMMMMMMMMMMMMMMMMMDMMMMMMMMUMMMUMMMMMMMMMMMMMMMMMMMMMMMMMMMMMUMMMMMMMMMMMMMMMMMMMMMMMMMMUMMMMMMMMMMMMMMMMMMMMMMMMMMMMMMMMMMMMMMMMMMMMMDMMMMMMMMMMMMMMMDMMMMMMMMMMMMMMMMMDMUMMMMMMMMMMMMMMMMMMMMMMMMMMDMMMMMMMMMMDMMMMUMMMMMMMMMMUMMMUMMMMMMMMMMMMMMUMMMMMMMMMMMMMMMMMMMMMMMMMMMMMMMMMMDMMMUMMMMMMMMMMMMMMMMMMMMMMMMMMMUMMMMMUMMMMMMUUMMMMMMMMMMMMMMMMUMMMMMMMMMMMMMMMMMMMMMMMMMMMMMMDMMMMMMMMMMMMMMMMMMMMMMMMMMMMMMMMMMMMMMMMMDMMMMMMMMMMMMMMUMMUMMMMMMMMMMMMMMMMMMMMMMMMMMMMMMMMMMMMMMMMMMMMMMMMMDMUMMMMMMMMMMMMMDMMMMMMMMMMMMMMMMMDMDMUMDMMMMUMMMMMMMMMMMMMMMMMMMMMMMM'
p61
sssg11
(dp62
g8
g39
sg13
(dp63
g40
S'MMMMMMMMMMMMDMMMMMMMMMMMDMMMMMMMMDMMMMMMMMUMMMUMMMMUMMMMMMMMMMMMMMMMMMMMMMMMUMMMMMMDMMMMMMMMMMMMMMMMMMMMMMMMMMMMMMMMMMMMMMMMMMMMMMMMMMMMMMMMUMMMMMMMMDMMMMMMMMMMMMMMMMMMMMMMMMMMMMMMMMMDMUMMMMMMMDMMMMMMMMMMMMMMMMMMDMMMMMMMMMMMMMMMUMMMMMMMMMMMMMMUMMMMMMMMMMMMMMMMMMMMMMMMMMMMMMMMMMMMMMMMMMMMMMMMMMMMMUMMMMMMMDMMMMMMDMMMMMMMMMMMMUMMMMMUMMMMMMUUMMMMMMMMMMMMMUMMUMMMMMMMMMMMMMMMMMMMMMMMMMMMMMMDMMMMMMMMMMMMMMMMMMMMMMMMMMMMMMMMMMMMMMMMMMMMMMMMMMMMMMMMUMMUMMMDMMMMMMMMMMMMMMMMMMMMMMMMMMMMMMDMMMMMMMMMMMMMMDMUMMMMMMMMMMMMMDMMMMMMMMMMMMMMMMMDMMMMMDMMMMUMMMMMMMMMMMMMMMMMMMMMMMM'
p64
ssg15
(dp65
g40
S'MMMMMMMMMMMMDMMMMMMMMMMMDMMMMMMMMUMMMMMMMMMMMMMMMMMMMMMMMMMMMMMMMMMMMMMMMMMMMMMMMMMDMMMMMMMMMMMMMMMMMMMMMUMMMMMMMMMMMMMMMUMMMMMMMMMMMMMMMMMMMMUMMUMMMDMMMMMMMMMMMMMMMMMMMMMMMMMMMMMMMMMDMMMMMMMMMDMMMMMUMMMMMMMMMMMMDMUMMMMMMMMMMMMMMMMMMMMMMMMMMMMMMMMMMMMMMUMMMMMMMMMMMMMMMMMMMMMMMMMMMMUMMMMMMMMMMMMMMMMMMMMMMDMMUMMMDMMMMMMMMMMMMMMMMMMMMMMMMMMMMMMMMMMMMMMMMMMMUMMMMUMMMMMMMMMMMUMMMMUUMMMMMMMDMMMMMMMMMMMMMMMMMMMMMMMMMMMMMMMUMMMMMMMMMMMMMMMMMMMMMMMMMMMMMMMDMMMMMMMMMMUMMUMMMMMMMMMMMMMMMMDMMMMMMMMMMMMMMDMMMMMMMMMMMMMMMDMMMMMMMMMMMMMMMMMDMMMMMDMMMMMUMMMMMMMMMMMMMMMMMMMMMMM'
p66
ssg17
(dp67
g40
S'MMMMMMMMMMMMDMMMMMMMMMMMDMMMMMMMMDMMMMMMMMMMMMMMMMUMMMMMMMMMMMMMMMMMMMMMMMMMMMMMMMMDMMMMMMMMMMMMMMMMMMUMMMMMMMMMMMMMMMMMMMMMMMMUMMMMMMMMMMMMMMMMMMMMMDMMMMMMMMMMMMMMMMMMMMMMMMMMMMMMMMMMMMMMMMMMMDMMMMMMMMMMMMMMMMMMDMMMMMMMMMMMMMMMMMMMMMMMMMMMMMMMMMMMMMMMMMMMMMMUMMMMMMMMMMMMMMMMMMMMMMMMMMMMMMMMMMMMMMMMMMMMMDMMMMMMDMMMMMMMMMMMMMMMMMMMMMMMMMMMMMMMMMMMMMMMMMMMMMMMMMMMMMMMMMMMMMMMMMMMMMMMMMMDMMMMMMMMMMMMMMMMMMMMMMMMMMMMMMMMMMMMMMMMMMMMMMMMMMMMMMMMMMMUMMMDMUMMMMMMMMMMMMMMMMMMMMMMMMMMMMDMMMUMMMMMMMMMMUMMMMMMMMMMMMMMMUMMMMMMMMMMMMMMMMMUMMMMMUMMMMMMMMMMMMMMMMMMMMMMMMMMMMM'
p68
ssg19
(dp69
g40
S'MMMMMMMMMMMMDMMMMMMMMMMMDMMMMMMMMDMMMMMMMMMMMMMMMMMMMMMMMMMMMMMMMMMMMMMMMUMMMMMMMMMDMMMMMMMMMMMMMMMMMMMMMMMMMMMMMMMMMMMMMMMMMMMMMMMMMMMMMMMMMMMMMMMMMDMMMMMMMMMMMMMMMMMMMMMMMMMMMMMMMMMDMMMMMMMMMDMMMMMMMMMMMMMMMMMMDMMMMMMMMMMMMMMMMMMUMMMMMMMMMMMMMMMMMMMMMMMMMMMMMMMMMMUMMMMMMUMMMMMMMMMMMMMMUMMMMMMMMMMMMMMMMDMMMMMMDMMMMMMMMMMMMMMMMMMMMMMUMMMMMUMMMMMMUMMMMMMMUMMMMMMMMMMMMMMMMMMMMMMMMMMMMMMDMMMMMMMMUMMMMMMMMMMMMMMUMMMMMMMMMMMMMMMMMMMMMMMMMMMMMMMMMMMUMMMDMMMMMMMMMMMMMMMMMMMMMMMMMMMMMMDMMMMMMMMMMMMMMDMMMMMMMMMUMMMMMDMMMMMMMMMMMMMMMMMDMMMMMDMMMMMMMMMMMMMMMMMMMMMMMMMMMMM'
p70
ssg21
(dp71
g40
S'MMMMMMMMMMMMDMMMMMMMMMMMDMMMMMUMUDMMMMMMMMMMMMMMMMMMMMMMUMMMMMMMMMMMMMMMMMMMMMMMMMMDMMMMMMMMMMMMMMMMMMMMMMMMMUMMMMMMMMUMMMMUMMMMMMMMMMMMMMMMMMMMMMMMUDMMMMMMMMMMMMMMMMMMMMMMMMMMMMMMMMMDMMMMMMMMMDMMMMMMMMMMMMMMMMMMDMMMMMMMMMMMMUMMMMMMMMMMMMMMMMMMMMMMMMMMMMMMMUMMMMMMMMMMMMMMMMMMMMMMMMMMMMMMMUMMMMMMMMMMMMMMMDMMMMMMDMMMMMMMMUMMUMMMMMMMMMMMUMMMMMMMUMMMMMMMMMMMUMMMMMMMMMMMMMMMMMMMMMMMMMMMMMMDMMMMMMMMUMMMMMMMMMMMMMMMMMMUMMMMMMMMMMMMMMMMMMMMUMMMMUMMMMMUMMMDMMMMMMMMUMMMMMMMMMMMMMMMMMMMMUDMMMMMMMMMMMMMMDMMMMMMMMMMMMMUMDMMUMMMMMMMMMMMMMMDMMMMMDMMMMMMMMMMMMMMMMMMMMMMMMMMMMM'
p72
ssg23
(dp73
g40
S'MMMMMMMMMMMMDMMMMUMMMMMMDMMMMMMMMDMMMMMMUMMMMMMMMMMMMMMMMMMMMMMMMMMMMMUMMMMMMMMUMMMDMMMMMMMMMMMMMMMMMMMMMMMMMMMMMMMMMMMMMMMMMMMMMMMMMMMMMMMMMMMMMMMMMDMMUMMMMMMMMMMMMMMMMMMMMMMMMMMMMMMDMMMMMMMMMDMMMMUMMMMMMMMMMUMMDMMMUMMMMMMMMMMMMMMMMMMMMMMMMMMMMMMMMMMMMMMMMMMMMMMMMMMMMMMMMMMMMMMMMMMMMMMMMMMMMMMMMMMMMMMMMDMMMMMMDMMMMMMMMMMMMMMMMMMMMMMMMMMMMMMMMMMMMMUMMMMMUMMMMMMMMMMMMMMMMMMMMMMMMMMMMMMDMMMMMMMMMMMMMMMMMMMMMMMMMMMMMMMMMMMMMMMMMMMMMMMMMMUMMMMMMMUUMMMDMMMMMMUMMMMMMMMMMMMMMMMMMMMMMMDMMMMMMMMMMMMMMDMUMMMMMMMMMMMMMDMMMMMMMMMUMMMMMMMDMMMMMDMMMMMMMMMMMMMMMMMMMMMMMMMMMMM'
p74
ssg25
(dp75
g40
S'MMMMMMMMMMMMDMMMMMMMMMMMDMMMMMMMMDMMMMMMMMMMMMMMMMMMMMMMMMMMMMMUMMMMMMMMMMMMMMMMMUMDMMMMMMMMMMUMMMMMMMMMMMMMMMMMMMMMUMMMUMMMMMMMMMMMMMMMMMMMMMMMMMUMMDMMMMMMMMMMMMMMMMMMMMMMMMMMMMMMMMMDMMMMMMMMMDMMMMMMMMMMMMMMMMMMDMMMMMMMMMMMMMMMMMMMMMMMMMMMMMMMMMMMMMMUMMMMMMMMMMMMMMMMMMMMMMMMMMMMMMMMMMMMMUMMMMMUMMMMMMMMMDMMMMMMDMMMMMMMMMMMMMMMMMMMMMMMMMMMMMMUMMMMMMMMMMMMMMMMMMMMMMMMMMMMMMMMUMMMMMMMMMMDMMMMMMMMMMMMMMMMMMMMMMMMMUMMMMMMMMMMMMMMMMMMMMMMMMMMMMMMMMMUMMMDMMMMUMMMMMMMUMMMMMMMMMMMMMMMMMDMMMMMMMMMMMMMMDMMMMMMMMMMMMMMMDMMMMMMMMMMMMMMMMMDMMMMMDMMMMMMMMMMMMMMMMMMMMMMMMMMMMM'
p76
ssg27
(dp77
g40
S'MMMMMMMMMMMMDMMMMMMMMMMMDMMMMMMMMDMMMMMMMMUMMMMUMMMMMMMMMMMMMMMMMMMMMMMMMMMMMMMMMMMDMMUMMMMMMMMMMMMMMMMMMMMMMMMUMMMMMMMMMMMMMMMMMMMMMMMMMMMMMMMMMMMMMDMMMMMMMMMMMMMMMMMMMMMMMMMMMMMMMMMDMMMMMMMMMDMMMMMMMMMMMMMMMUMMDMMMMUMMMMMMMMMMMUMMMMMMMMMMMMMMMMMMMMMMMMMMMMMMMMMMMMMMMMMMMMMMMMMMMMMMMMMMMMMMMMMMMMMMMMMMMDMMMMMMDMMMMMMMMMMMMMMMMMMUMMMMMMMMMMMMMMMMMMMMMMMMUMMMMMUMMMMMMMMMMMMUMMMMMUMMMMMDMMMMMMMMMMMMMMMMMMMMMMMMMMMMMMMMMMMMMMMMMMMMMMMMMMMMMMMMMMMUMMMDMMMMMMMMMMMMMMMMMMMMMMMMMMMMMMDMMMMMMMMMMMMMMDMMMMMMMMMUMMMMMDMMMMMMMMMMMMMMMMMDMMMMMDMMMMMMMMMMMMMMMMMMMMMMUMMMMMM'
p78
ssg29
(dp79
g40
S'MMMMMMMMMMMMDMMMMMMMMUMMDMMMMMMMMDMMMMMMMMUMMMMMMMMMMMMMMMMMMMMMMMMMMMMMMMMMMMMMMMMDMMMMMMMMMMMMMMMMMMMMMMMMMMMMMMMMMMMMMMMMMMMMMMMMMUMMMMMMMMMMMMMMMDMMMMMMMMMMMMMMUMMMMMMMMMUUMMMMMMMDMMMMMMMMMDMMMMMMMMMMMMMMMMMMDMMMMMMMMMMMMMMMUMMMMMMMMMUMMMMMMMMMMMMMMMMMMMMMMMMMMMMMMMMMMMMUMMMMMMMMMMMMMMMMMMMMMMMMMMMMMDMMMMMMDMMMMMMMMMMMMMMMMMMUMMMMMMMMUMMMMMMMMMMMMMMMUMUMMMMMMUMMMMMMMMMMMMMMMMUMMMUDMMMMMMMMMMMMMMMMMMMMMMMMMMMMMMMMMMMMMMMMMMMMMMMMMMMMMMMMMMMUMMMDMMMMMMMMMMMMMMMMMMMMMMMMMMMMMMDMMMMMMMMMMMMMMDMUMMMUMMMMMMMMMDMMMMMMMMMMMMMMMMMDMMMMMDMMMMMMMMMUMMMMMMMMMMMMMMMMMMM'
p80
ssg31
(dp81
g40
S'MMMMMMMMMMMMDMMMMMMMMMMMDMMMMMMMMDMMMMMMMMUMMMUMMMMMMMMMMMMMMMMMMMMMMMMMMMMMUMMMMMMDMMMMMMMMMMMMMMMMMMMUMMMMMMMMMMMMMMMMMMMMMMMMMMMMMMMMMMMMMMMMMMMMMDMMMMMMMMMMMMMMMMMMMMMMMMMMMMMMMMMDMUMMMMMMMDMMMMMMMMMMMMMMMMMMDMMMMMMMMMMMMMMMUMMMMMMMMMMUMMMUMMMMMMMMMMMMMMUMMMMMMMMMMMMMMMMMMMMMMMMMMMMMMMMMMMMMMUMMMMMMMDMMMMMMDMMMMMMMMMMMMUMMMMMUMMMMMMUUMMMMMMMMMMMMMMMMUMMMMMMMMMMMMMMMMMMMMMMMMMMMMMMDMMMMMMMMMMMMMMMMMMMMMMMMMMMMMMMMMMMMMMMMMMMMMMMMMMMMMMMMUMMUMMMDMMMMMMMMMMMMMMMMMMMMMMMMMMMMMMDMMMMMMMMMMMMMMDMUMMMMMMMMMMMMMDMMMMMMMMMMMMMMMMMDMMMUMDMMMMUMMMMMMMMMMMMMMMMMMMMMMMM'
p82
sssg13
(dp83
g8
g42
sg11
g63
sg15
(dp84
g40
S'MMMMMMMMMMMMMMMMMMMMMMMMMMMMMMMMMUMMMMMMMMDMMMDMMMMDMMMMMMMMMMMMMMMMMMMMMMMMDMMMMMMMMMMMMMMMMMMMMMMMMMMMMUMMMMMMMMMMMMMMMUMMMMMMMMMMMMMMMMMMDMUMMUMMMMMMMMMMMMMMMMMMMMMMMMMMMMMMMMMMMMMMMDMMMMMMMMMMMMMUMMMMMMMMMMMMMMUMMMMMMMMMMMMMDMMMMMMMMMMMMMMDMMMMMMMMMUMMMMMMMMMMMMMMMMMMMMMMMMMMMMUMMMMMMMMMMMMMMDMMMMMMMMMMUMMMMMMMMMMMMMMMMDMMMMMDMMMMMMDDMMMMMMMMMMMMMDMMDMMMMUMMMMMMMMMMMUMMMMUUMMMMMMMMMMMMMMMMMMMMMMMMMMMMMMMMMMMMMMMUMMMMMMMMMMMMMMMMMMMMMMMMDMMDMMMMMMMMMMMMMMUMMUMMMMMMMMMMMMMMMMMMMMMMMMMMMMMMMMMDMMMMMMMMMMMMMMMMMMMMMMMMMMMMMMMMMMMMMMMMMMDUMMMMMMMMMMMMMMMMMMMMMMM'
p85
ssg17
(dp86
g40
S'MMMMMMMMMMMMUMMMMMMMMMMMMMMMMMMMMUMMMMMMMMDMMMDMMMUDMMMMMMMMMMMMMMMMMMMMMMMMDMMMMMMMMMMMMMMMMMMMMMMMMMUMMMMMMMMMMMMMMMMMMMMMMMMUMMMMMMMMMMMMDMMMMMMMMUMMMMMMMMMMMMMMMMMMMMMMMMMMMMMMMMMUMDMMMMMMMMMMMMMMMMMMMMMMMMMMUMMMMMMMMMMMMMMMDMMMMMMMMMMMMMMDMMMMMMMMMMMMMMMUMMMMMMMMMMMMMMMMMMMMMMMMMMMMMMMMMMMMMDMMMMMMMMMMMMMMMMMMMMMMMMMMMDMMMMMDMMMMMMDDMMMMMMMMMMMMMDMMDMMMMMMMMMMMMMMMMMMMMMMMMMMMMMMMMMMMMMMMMMMMMMMMMMMMMMMMMMMMMMMMMMMMMMMMMMMMMMMMMMMMMMMMDMMDMMMMMUMMMMMMMMMMMMMMMMMMMMMMMMMMMMMMMMUMMMMMMMMMMUMDMMMMMMMMMMMMMUMMMMMMMMMMMMMMMMMUMMMMMUMMMMDMMMMMMMMMMMMMMMMMMMMMMMM'
p87
ssg19
(dp88
g40
S'MMMMMMMMMMMMMMMMMMMMMMMMMMMMMMMMMMMMMMMMMMDMMMDMMMMDMMMMMMMMMMMMMMMMMMMMMUMMDMMMMMMMMMMMMMMMMMMMMMMMMMMMMMMMMMMMMMMMMMMMMMMMMMMMMMMMMMMMMMMMDMMMMMMMMMMMMMMMMMMMMMMMMMMMMMMMMMMMMMMMMMMUMDMMMMMMMMMMMMMMMMMMMMMMMMMMMMMMMMMMMMMMMMMMDMMUMMMMMMMMMMMDMMMMMMMMMMMMMMMMMMMMMMUMMMMMMUMMMMMMMMMMMMMMUMMMMMMMMDMMMMMMMMMMMMMMMMMMMMMMMMMMMDMMMMMDMMMUMMDDMUMMMMMMUMMMMDMMUMMMMMMMMMMMMMMMMMMMMMMMMMMMMMMMMMMMMMMMUMMMMMMMMMMMMMMUMMMMMMMMMMMMMMMMMMMMMMMMMMMMMMMMDMMDMMMMMMMMMMMMMMMMMMMMMMMMMMMMMMMMMMMMMMMMMMMMMMMMMMMDMMMMMMMUMMMMMMMMMMMMMMMMMMMMMMMMMMMMMMMMMMDMMMMMMMMMMMMMMMMMMMMMMMM'
p89
ssg21
(dp90
g40
S'MMMMMMMMMMMMMMMMMMMMMMMMMMMMMMUMUMMMMMMMMMDMMMDMMMMDMMMMUMMMMMMMMMMMMMMMMMMMDMMMMMMMMMMMMMMMMMMMMMMMMMMMMMMMMUMMMMMMMMUMMMMUMMMMMMMMMMMMMMMMDMMMMMMMUMMMMMMMMMMMMMMMMMMMMMMMMMMMMMMMMMMUMDMMMMMMMMMMMMMMMMMMMMMMMMMMMMMMMMMMMMMMMUMMDMMMMMMMMMMMMMMDMMMMMMMMMMMMMUMMMMMMMMMMMMMMMMMMMMMMMMMMMMMMMUMMMMMMMDMMMMMMMMMMMMMMMMMMMMMMMUMMUDMMMMMDMMMMUMDDMMMMUMMMMMMMMDMMUMMMMMMMMMMMMMMMMMMMMMMMMMMMMMMMMMMMMMMMUMMMMMMMMMMMMMMMMMMUMMMMMMMMMMMMMMMMMMMMUMMMMUMMDMMDMMMMMMMMMMMMUMMMMMMMMMMMMMMMMMMMMUMMMMMMMMMMMMMMMMMDMMMMMMMMMMMUMMMMUMMMMMMMMMMMMMMMMMMMMMMMMMDMMMMMMMMMMMMMMMMMMMMMMMM'
p91
ssg23
(dp92
g40
S'MMMMMMMMMMMMMMMMMUMMMMMMMMMMMMMMMMMMMMMMUMDMMMDMMMMDMMMMMMMMMMMMMMMMMMUMMMMMDMMUMMMMMMMMMMMMMMMMMMMMMMMMMMMMMMMMMMMMMMMMMMMMMMMMMMMMMMMMMMMMDMMMMMMMMMMMUMMMMMMMMMMMMMMMMMMMMMMMMMMMMMMMMDMMMMMMMMMMMMUMMMMMMMMMMUMMMMMMUMMMMMMMMMMMDMMMMMMMMMMMMMMDMMMMMMMMMMMMMMMMMMMMMMMMMMMMMMMMMMMMMMMMMMMMMMMMMMMMMDMMMMMMMMMMMMMMMMMMMMMMMMMMMDMMMMMDMMMMMMDDMMMMMMMMMMUMMDMMUMMMMMMMMMMMMMMMMMMMMMMMMMMMMMMMMMMMMMMMMMMMMMMMMMMMMMMMMMMMMMMMMMMMMMMMMMMMMMMMMMUMMMMMDMUDMMMMMMMMMMUMMMMMMMMMMMMMMMMMMMMMMMMMMMMMMMMMMMMMMMMUMMMMMMMMMMMMMMMMMMMMMMMUMMMMMMMMMMMMMMMMMMDMMMMMMMMMMMMMMMMMMMMMMMM'
p93
ssg25
(dp94
g40
S'MMMMMMMMMMMMMMMMMMMMMMMMMMMMMMMMMUMMMMMMMMDMMMDMMMMDMMMMMMMMMMMUMMMMMMMMMMMMDMMMMUMMMMMMMMMMMMUMMMMMMMMMMMMMMMMMMMMMUMMMUMMMMMMMMMMMMMMMMMMMDMMMMMUMMMMMMMMMMMMMMMMMMMMMMMMMMMMMMMMMMMMMMDMMMMMMMMMMMMMMMMMMMMMMMMMMUMMMMMMMMMMMMMMMDMMMMMMMMMMMMMMDMMMMMMMUMMMMMMMMMMMMMMMMMMMMMMMMMMMMMMMMMMMMMUMMMMMUMDMMMMMMMMMMMMMMMMMMMMMMMMMMMDMMMMMDMMMMMMDDMMMUMMMMMMMMMDMMDMMMMMMMMMMMMMMMMMMMUMMMMMMMMMMMMMMMMMMMMMMMMMMMMMMMMMMMMUMMMMMMMMMMMMMMMMMMMMMMMMMMMMMMDMMUMMMMMMMMUMMMMMMMUMMMMMMMMMMMMMMMMMMMMMMMMMMMMMMMMMMDMMMMMMMMMMMMMMMMMMMMMMMMMMMMMMMMMMMMMMMMMMDMMMMMMMMMMMMMMMMMMMMMMMM'
p95
ssg27
(dp96
g40
S'MMMMMMMMMMMMMMMMMMMMMMMMMMMMMMMMMMMMMMMMMMUMMMDUMMMDMMMMMMMMMMMMMMMMMMMMMMMMDMMMMMMMMMUMMMMMMMMMMMMMMMMMMMMMMMMUMMMMMMMMMMMMMMMMMMMMMMMMMMMMDMMMMMMMMMMMMMMMMMMMMMMMMMMMMMMMMMMMMMMMMMMUMDMMMMMMMMMMMMMMMMMMMMMMMUMMMMMMMUMMMMMMMMMMDUMMMMMMMMMMMMMDMMMMMMMMMMMMMMMMMMMMMMMMMMMMMMMMMMMMMMMMMMMMMMMMMMMMMDMMMMMMMMMMMMMMMMMMMMMMMMMMMDMMMMMUMMMMMMDDMMMMMMMMMMMMMDMMUMMMMMUMMMMMMMMMMMMUMMMMMUMMMMMMMMMMMMMMMMMMMMMMMMMMMMMMMMMMMMMMMMMMMMMMMMMMMMMMMMMMMMMMDMMDMMMMMMMMMMMMMMMMMMMMMMMMMMMMMMMMMMMMMMMMMMMMMMMMMMMDMMMMMMMUMMMMMMMMMMMMMMMMMMMMMMMMMMMMMMMMMMDMMMMMMMMMMMMMMMMMUMMMMMM'
p97
ssg29
(dp98
g40
S'MMMMMMMMMMMMMMMMMMMMMUMMMMMMMMMMMMMMMMMMMMUMMMDMMMMDMMMMMMMMMMMMMMMMMMMMMMMMDMMMMMMMMMMMMMMMMMMMMMMMMMMMMMMMMMMMMMMMMMMMMMMMMMMMMMMMMUMMMMMMDMMMMMMMMMMMMMMMMMMMMMMMUMMMMMMMMMUUMMMMMMMUMDMMMMMMMMMMMMMMMMMMMMMMMMMMMMMMMMMMMMMMMMMMDMMMMMMMMMUMMMMDMMMMMMMMMMMMMMMMMMMMMMMMMMMMMMMUMMMMMMMMMMMMMMMMMMMMMDMMMMMMMMMMMMMMMMMMMMMMMMMMMDMMMMMUMMMMMMDDUMMMMMMMMMMMMDMMUMUMMMMMMUMMMMMMMMMMMMMMMMUMMMUMMMMMMMMMMMMMMMMMMMMMMMMMMMMMMMMMMMMMMMMMMMMMMMMMMMMMMMMMDMMDMMMMMMMMMMMMMMMMMMMMMMMMMMMMMMMMMMMMMMMMMMMMMMMMMMMUMMMUMMMMMMMMMMMMMMMMMMMMMMMMMMMMMMMMMMMMMMDMMMMUMMMMMMMMMMMMMMMMMMM'
p99
ssg31
(dp100
g40
S'MMMMMMMMMMMMMMMMMMMMMMMMMMMMMMMMMMMMMMMMMMMMMMMMMMMDMMMMMMMMMMMMMMMMMMMMMMMMUMMMMMMMMMMMMMMMMMMMMMMMMMMUMMMMMMMMMMMMMMMMMMMMMMMMMMMMMMMMMMMMDMMMMMMMMMMMMMMMMMMMMMMMMMMMMMMMMMMMMMMMMMMUMDMMMMMMMMMMMMMMMMMMMMMMMMMMMMMMMMMMMMMMMMMMDMMMMMMMMMMUMMMMMMMMMMMMMMMMMMUMMMMMMMMMMMMMMMMMMMMMMMMMMMMMMMMMMMMMMMMMMMMMMMMMMMMMMMMMMMMMMMMMMMMMMMMMMMMMMMDDMMMMMMMMMMMMMDMMMMMMMMMMMMMMMMMMMMMMMMMMMMMMMMMMMMMMMMMMMMMMMMMMMMMMMMMMMMMMMMMMMMMMMMMMMMMMMMMMMMMMMMMMDMMMMMMMMMMMMMMMMMMMMMMMMMMMMMMMMMMMMMMMMMMMMMMMMMMMMMMDMMMMMMMMMMMMMMMMMMMMMMMMMMMMMMMMMMMUMMMMMMUMMMMMMMMMMMMMMMMMMMMMMMM'
p101
sssg15
(dp102
g8
g44
sg11
g65
sg13
g84
sg17
(dp103
g40
S'MMMMMMMMMMMMUMMMMMMMMMMMMMMMMMMMMDMMMMMMMMMMMMMMMMUMMMMMMMMMMMMMMMMMMMMMMMMMMMMMMMMMMMMMMMMMMMMMMMMMMMUMMDMMMMMMMMMMMMMMMDMMMMMUMMMMMMMMMMMMMMDMMDMMMUMMMMMMMMMMMMMMMMMMMMMMMMMMMMMMMMMUMMMMMMMMMMMMMMMDMMMMMMMMMMMMUMDMMMMMMMMMMMMMMMMMMMMMMMMMMMMMMMMMMMMMMDMMMMMUMMMMMMMMMMMMMMMMMMMMMMDMMMMMMMMMMMMMMMMMMMMMMMMMDMMMMMMMMMMMMMMMMMMMMMMMMMMMMMMMMMMMMMMMMMMMMMMMDMMMMDMMMMMMMMMMMDMMMMDDMMMMMMMMMMMMMMMMMMMMMMMMMMMMMMMMMMMMMMMDMMMMMMMMMMMMMMMMMMMMMMMMMMMUMMMMMUMMMMMMMMDMMDMMMMMMMMMMMMMMMMMMMMUMMMMMMMMMMUMMMMMMMMMMMMMMMUMMMMMMMMMMMMMMMMMUMMMMMUMMMMMDMMMMMMMMMMMMMMMMMMMMMMM'
p104
ssg19
(dp105
g40
S'MMMMMMMMMMMMMMMMMMMMMMMMMMMMMMMMMDMMMMMMMMMMMMMMMMMMMMMMMMMMMMMMMMMMMMMMMUMMMMMMMMMMMMMMMMMMMMMMMMMMMMMMMDMMMMMMMMMMMMMMMDMMMMMMMMMMMMMMMMMMMMDMMDMMMMMMMMMMMMMMMMMMMMMMMMMMMMMMMMMMMMMUMMMMMMMMMMMMMMMDMMMMMMMMMMMMMMDMMMMMMMMMMMMMMMMUMMMMMMMMMMMMMMMMMMMMMDMMMMMMMMMMMMUMMMMMMUMMMMMMMMDMMMMMUMMMMMMMMMMMMMMMMMMMDMMMMMMMMMMMMMMMMMMMMMMMMMMUMMMMMUMMMMMMUMMMMMMMUMMMMDMMMMMMMMMMMDMMMMDDMMMMMMMMMMMMMMMMUMMMMMMMMMMMMMMUMMMMMMMDMMMMMMMMMMMMMMMMMMMMMMMMMMMUMMMMMMMMMMMMMMDMMDMMMMMMMMMMMMMMMMMMMMMMMMMMMMMMMMMMMMMMMMMUMMMMMMMMMMMMMMMMMMMMMMMMMMMMMMMMMMMDMMMMMMMMMMMMMMMMMMMMMMM'
p106
ssg21
(dp107
g40
S'MMMMMMMMMMMMMMMMMMMMMMMMMMMMMMUMUDMMMMMMMMMMMMMMMMMMMMMMUMMMMMMMMMMMMMMMMMMMMMMMMMMMMMMMMMMMMMMMMMMMMMMMMDMMMUMMMMMMMMUMMDMUMMMMMMMMMMMMMMMMMMDMMDMMUMMMMMMMMMMMMMMMMMMMMMMMMMMMMMMMMMMUMMMMMMMMMMMMMMMDMMMMMMMMMMMMMMDMMMMMMMMMMUMMMMMMMMMMMMMMMMMMMMMMMMMMMDMMMUMMMMMMMMMMMMMMMMMMMMMMMMDMMMMMMUMMMMMMMMMMMMMMMMMMDMMMMMMMMMMMMUMMUMMMMMMMMMMMUMMMMMMMUMMMMMMMMMMMUMMMMDMMMMMMMMMMMDMMMMDDMMMMMMMMMMMMMMMMUMMMMMMMMMMMMMMMMMMUMMMDMMMMMMMMMMMMMMMMUMMMMUMMMMMUMMMMMMMMMMMMUMDMMDMMMMMMMMMMMMMMMUMMMMMMMMMMMMMMMMMMMMMMMMMMMMMUMMMMUMMMMMMMMMMMMMMMMMMMMMMMMMMDMMMMMMMMMMMMMMMMMMMMMMM'
p108
ssg23
(dp109
g40
S'MMMMMMMMMMMMMMMMMUMMMMMMMMMMMMMMMDMMMMMMUMMMMMMMMMMMMMMMMMMMMMMMMMMMMMUMMMMMMMMUMMMMMMMMMMMMMMMMMMMMMMMMMDMMMMMMMMMMMMMMMDMMMMMMMMMMMMMMMMMMMMDMMDMMMMMMUMMMMMMMMMMMMMMMMMMMMMMMMMMMMMMMMMMMMMMMMMMMMMUDMMMMMMMMMUMMMMDMUMMMMMMMMMMMMMMMMMMMMMMMMMMMMMMMMMMMMDMMMMMMMMMMMMMMMMMMMMMMMMMMMMDMMMMMMMMMMMMMMMMMMMMMMMMMDMMMMMMMMMMMMMMMMMMMMMMMMMMMMMMMMMMMMMMMMMUMMMMMUMMMMDMMMMMMMMMMMDMMMMDDMMMMMMMMMMMMMMMMMMMMMMMMMMMMMMMMMMMMMMMDMMMMMMMMMMMMMMMMMMUMMMMMMMUUMMMMMMMMMMUMMMDMMDMMMMMMMMMMMMMMMMMMMMMMMMMMMMMMMMMUMMMMMMMMMMMMMMMMMMMMMMMUMMMMMMMMMMMMMMMMMMMDMMMMMMMMMMMMMMMMMMMMMMM'
p110
ssg25
(dp111
g40
S'MMMMMMMMMMMMMMMMMMMMMMMMMMMMMMMMMDMMMMMMMMMMMMMMMMMMMMMMMMMMMMMUMMMMMMMMMMMMMMMMMUMMMMMMMMMMMMUMMMMMMMMMMDMMMMMMMMMMUMMMUDMMMMMMMMMMMMMMMMMMMMDMMDUMMMMMMMMMMMMMMMMMMMMMMMMMMMMMMMMMMMMMMMMMMMMMMMMMMMMDMMMMMMMMMMMMUMDMMMMMMMMMMMMMMMMMMMMMMMMMMMMMMMMMMMMUMDMMMMMMMMMMMMMMMMMMMMMMMMMMMMDMMMMMMUMMMMMUMMMMMMMMMMMMDMMMMMMMMMMMMMMMMMMMMMMMMMMMMMMMMMMUMMMMMMMMMMMMDMMMMDMMMMMMMMMMMDMMUMDDMMMMMMMMMMMMMMMMMMMMMMMMMMMMMMMMMUMMMMMDMMMMMMMMMMMMMMMMMMMMMMMMMMMUMMMMMMMMUMMMMMDMUDMMMMMMMMMMMMMMMMMMMMMMMMMMMMMMMMMMMMMMMMMMMMMMMMMMMMMMMMMMMMMMMMMMMMMMMMMMMMMDMMMMMMMMMMMMMMMMMMMMMMM'
p112
ssg27
(dp113
g40
S'MMMMMMMMMMMMMMMMMMMMMMMMMMMMMMMMMDMMMMMMMMUMMMMUMMMMMMMMMMMMMMMMMMMMMMMMMMMMMMMMMMMMMMUMMMMMMMMMMMMMMMMMMDMMMMMUMMMMMMMMMDMMMMMMMMMMMMMMMMMMMMDMMDMMMMMMMMMMMMMMMMMMMMMMMMMMMMMMMMMMMMMUMMMMMMMMMMMMMMMDMMMMMMMMMUMMMMDMMUMMMMMMMMMMMUMMMMMMMMMMMMMMMMMMMMMMMDMMMMMMMMMMMMMMMMMMMMMMMMMMMMDMMMMMMMMMMMMMMMMMMMMMMMMMDMMMMMMMMMMMMMMMMMMMMMMUMMMMMMMMMMMMMMMMMMMMMMMMUMMMMDUMMMMMMMMMMDMUMMDDMUMMMMMMMMMMMMMMMMMMMMMMMMMMMMMMMMMMMMMDMMMMMMMMMMMMMMMMMMMMMMMMMMMUMMMMMMMMMMMMMMDMMDMMMMMMMMMMMMMMMMMMMMMMMMMMMMMMMMMMMMMMMMMUMMMMMMMMMMMMMMMMMMMMMMMMMMMMMMMMMMMDMMMMMMMMMMMMMMMMUMMMMMM'
p114
ssg29
(dp115
g40
S'MMMMMMMMMMMMMMMMMMMMMUMMMMMMMMMMMDMMMMMMMMUMMMMMMMMMMMMMMMMMMMMMMMMMMMMMMMMMMMMMMMMMMMMMMMMMMMMMMMMMMMMMMDMMMMMMMMMMMMMMMDMMMMMMMMMMMUMMMMMMMMDMMDMMMMMMMMMMMMMMMMMMUMMMMMMMMMUUMMMMMMMUMMMMMMMMMMMMMMMDMMMMMMMMMMMMMMDMMMMMMMMMMMMMUMMMMMMMMMUMMMMMMMMMMMMMMDMMMMMMMMMMMMMMMMMMMMMUMMMMMMDMMMMMMMMMMMMMMMMMMMMMMMMMDMMMMMMMMMMMMMMMMMMMMMMUMMMMMMMMUMMMMMMMMMMMMMMMUMUMMDMMMUMMMMMMMDMMMMDDMMUMMMUMMMMMMMMMMMMMMMMMMMMMMMMMMMMMMMMDMMMMMMMMMMMMMMMMMMMMMMMMMMMUMMMMMMMMMMMMMMDMMDMMMMMMMMMMMMMMMMMMMMMMMMMMMMMMMMMUMMMUMMMMMMMMMMMMMMMMMMMMMMMMMMMMMMMMMMMMMMMDMMMUMMMMMMMMMMMMMMMMMMM'
p116
ssg31
(dp117
g40
S'MMMMMMMMMMMMMMMMMMMMMMMMMMMMMMMMMDMMMMMMMMUMMMUMMMMMMMMMMMMMMMMMMMMMMMMMMMMMUMMMMMMMMMMMMMMMMMMMMMMMMMMUMDMMMMMMMMMMMMMMMDMMMMMMMMMMMMMMMMMMMMDMMDMMMMMMMMMMMMMMMMMMMMMMMMMMMMMMMMMMMMMUMUMMMMMMMMMMMMMDMMMMMMMMMMMMMMDMMMMMMMMMMMMMUMMMMMMMMMMUMMMUMMMMMMMMMDMMMMUMMMMMMMMMMMMMMMMMMMMMMMDMMMMMMMMMMMMMMUMMMMMMMMMMDMMMMMMMMMMMMMMMMUMMMMMUMMMMMMUUMMMMMMMMMMMMMMMMUMMMMDMMMMMMMMMMMDMMMMDDMMMMMMMMMMMMMMMMMMMMMMMMMMMMMMMMMMMMMMMDMMMMMMMMMMMMMMMMMMMMMMMMUMMUMMMMMMMMMMMMMMDMMDMMMMMMMMMMMMMMMMMMMMMMMMMMMMMMMMMUMMMMMMMMMMMMMMMMMMMMMMMMMMMMMMMMMMMUMMMMMMUDMMMMMMMMMMMMMMMMMMMMMMM'
p118
sssg17
(dp119
g8
g46
sg11
g67
sg13
g86
sg15
g103
sg19
(dp120
g40
S'MMMMMMMMMMMMDMMMMMMMMMMMMMMMMMMMMDMMMMMMMMMMMMMMMMDMMMMMMMMMMMMMMMMMMMMMMUMMMMMMMMMMMMMMMMMMMMMMMMMMMMDMMMMMMMMMMMMMMMMMMMMMMMMDMMMMMMMMMMMMMMMMMMMMMDMMMMMMMMMMMMMMMMMMMMMMMMMMMMMMMMMDMMMMMMMMMMMMMMMMMMMMMMMMMMMMDMMMMMMMMMMMMMMMMMMUMMMMMMMMMMMMMMMMMMMMMMMMMMMDMMMMMMUMMMMMMUMMMMMMMMMMMMMMUMMMMMMMMMMMMMMMMMMMMMMMMMMMMMMMMMMMMMMMMMMMMMMUMMMMMUMMMMMMUMMMMMMMUMMMMMMMMMMMMMMMMMMMMMMMMMMMMMMMMMMMMMMMUMMMMMMMMMMMMMMUMMMMMMMMMMMMMMMMMMMMMMMMMMMMMMMMMMMUMMMMMDMMMMMMMMMMMMMMMMMMMMMMMMMMMMMMMMDMMMMMMMMMMDMMMMMMMMMUMMMMMDMMMMMMMMMMMMMMMMMDMMMMMDMMMMMMMMMMMMMMMMMMMMMMMMMMMMM'
p121
ssg21
(dp122
g40
S'MMMMMMMMMMMMDMMMMMMMMMMMMMMMMMUMUDMMMMMMMMMMMMMMMMDMMMMMUMMMMMMMMMMMMMMMMMMMMMMMMMMMMMMMMMMMMMMMMMMMMMDMMMMMMUMMMMMMMMUMMMMUMMMDMMMMMMMMMMMMMMMMMMMMUDMMMMMMMMMMMMMMMMMMMMMMMMMMMMMMMMMDMMMMMMMMMMMMMMMMMMMMMMMMMMMMDMMMMMMMMMMMMUMMMMMMMMMMMMMMMMMMMMMMMMMMMMMMMUMDMMMMMMMMMMMMMMMMMMMMMMMMMMMMMUMMMMMMMMMMMMMMMMMMMMMMMMMMMMMMMUMMUMMMMMMMMMMMUMMMMMMMUMMMMMMMMMMMUMMMMMMMMMMMMMMMMMMMMMMMMMMMMMMMMMMMMMMMUMMMMMMMMMMMMMMMMMMUMMMMMMMMMMMMMMMMMMMMUMMMMUMMMMMUMMMMMDMMMMMMUMMMMMMMMMMMMMMMMMMMMUMMMMDMMMMMMMMMMDMMMMMMMMMMMMMUMDMMUMMMMMMMMMMMMMMDMMMMMDMMMMMMMMMMMMMMMMMMMMMMMMMMMMM'
p123
ssg23
(dp124
g40
S'MMMMMMMMMMMMDMMMMUMMMMMMMMMMMMMMMDMMMMMMUMMMMMMMMMDMMMMMMMMMMMMMMMMMMMUMMMMMMMMUMMMMMMMMMMMMMMMMMMMMMMDMMMMMMMMMMMMMMMMMMMMMMMMDMMMMMMMMMMMMMMMMMMMMMDMMUMMMMMMMMMMMMMMMMMMMMMMMMMMMMMMDMMMMMMMMMMMMMMUMMMMMMMMMMUMMDMMMUMMMMMMMMMMMMMMMMMMMMMMMMMMMMMMMMMMMMMMMMMMDMMMMMMMMMMMMMMMMMMMMMMMMMMMMMMMMMMMMMMMMMMMMMMMMMMMMMMMMMMMMMMMMMMMMMMMMMMMMMMMMMMMMMMMMMMUMMMMMUMMMMMMMMMMMMMMMMMMMMMMMMMMMMMMMMMMMMMMMMMMMMMMMMMMMMMMMMMMMMMMMMMMMMMMMMMMMMMMMMMUMMMMMMMUUMMMMMDMMMMUMMMMMMMMMMMMMMMMMMMMMMMMMMMDMMMMMMMMMMDMUMMMMMMMMMMMMMDMMMMMMMMMUMMMMMMMDMMMMMDMMMMMMMMMMMMMMMMMMMMMMMMMMMMM'
p125
ssg25
(dp126
g40
S'MMMMMMMMMMMMDMMMMMMMMMMMMMMMMMMMMMMMMMMMMMMMMMMMMMDMMMMMMMMMMMMUMMMMMMMMMMMMMMMMMUMMMMMMMMMMMMUMMMMMMMDMMMMMMMMMMMMMUMMMUMMMMMMDMMMMMMMMMMMMMMMMMMUMMDMMMMMMMMMMMMMMMMMMMMMMMMMMMMMMMMMDMMMMMMMMMMMMMMMMMMMMMMMMMMMMDMMMMMMMMMMMMMMMMMMMMMMMMMMMMMMMMMMMMMMUMMMMMMMDMMMMMMMMMMMMMMMMMMMMMMMMMMMMMUMMMMMUMMMMMMMMMMMMMMMMMMMMMMMMMMMMMMMMMMMMMMMMMMMMMMMUMMMMMMMMMMMMMMMMMMMMMMMMMMMMMMMMUMMMMMMMMMMMMMMMMMMMMMMMMMMMMMMMMMMMMUMMMMMMMMMMMMMMMMMMMMMMMMMMMMMMMMMUMMMMMDMMUMMMMMMMUMMMMMMMMMMMMMMMMMMMMMDMMMMMMMMMMDMMMMMMMMMMMMMMMDMMMMMMMMMMMMMMMMMDMMMMMDMMMMMMMMMMMMMMMMMMMMMMMMMMMMM'
p127
ssg27
(dp128
g40
S'MMMMMMMMMMMMDMMMMMMMMMMMMMMMMMMMMDMMMMMMMMUMMMMUMMDMMMMMMMMMMMMMMMMMMMMMMMMMMMMMMMMMMMUMMMMMMMMMMMMMMMDMMMMMMMMUMMMMMMMMMMMMMMMDMMMMMMMMMMMMMMMMMMMMMDMMMMMMMMMMMMMMMMMMMMMMMMMMMMMMMMMDMMMMMMMMMMMMMMMMMMMMMMMMMUMMDMMMMUMMMMMMMMMMMUMMMMMMMMMMMMMMMMMMMMMMMMMMMMMDMMMMMMMMMMMMMMMMMMMMMMMMMMMMMMMMMMMMMMMMMMMMMMMMMMMMMMMMMMMMMMMMMMMMMMMUMMMMMMMMMMMMMMMMMMMMMMMMUMMMMMUMMMMMMMMMMMMUMMMMMUMMMMMMMMMMMMMMMMMMMMMMMMMMMMMMMMMMMMMMMMMMMMMMMMMMMMMMMMMMMMMMMMMUMMMMMDMMMMMMMMMMMMMMMMMMMMMMMMMMMMMMMMDMMMMMMMMMMDMMMMMMMMMUMMMMMDMMMMMMMMMMMMMMMMMDMMMMMDMMMMMMMMMMMMMMMMMMMMMMUMMMMMM'
p129
ssg29
(dp130
g40
S'MMMMMMMMMMMMDMMMMMMMMUMMMMMMMMMMMDMMMMMMMMUMMMMMMMDMMMMMMMMMMMMMMMMMMMMMMMMMMMMMMMMMMMMMMMMMMMMMMMMMMMDMMMMMMMMMMMMMMMMMMMMMMMMDMMMMMUMMMMMMMMMMMMMMMDMMMMMMMMMMMMMMUMMMMMMMMMUUMMMMMMMDMMMMMMMMMMMMMMMMMMMMMMMMMMMMDMMMMMMMMMMMMMMMUMMMMMMMMMUMMMMMMMMMMMMMMMMMMMMDMMMMMMMMMMMMMMMUMMMMMMMMMMMMMMMMMMMMMMMMMMMMMMMMMMMMMMMMMMMMMMMMMMMMMMMUMMMMMMMMUMMMMMMMMMMMMMMMUMUMMMMMMUMMMMMMMMMMMMMMMMUMMMUMMMMMMMMMMMMMMMMMMMMMMMMMMMMMMMMMMMMMMMMMMMMMMMMMMMMMMMMMMMMUMMMMMDMMMMMMMMMMMMMMMMMMMMMMMMMMMMMMMMDMMMMMMMMMMDMUMMMUMMMMMMMMMDMMMMMMMMMMMMMMMMMDMMMMMDMMMMMMMMMUMMMMMMMMMMMMMMMMMMM'
p131
ssg31
(dp132
g40
S'MMMMMMMMMMMMDMMMMMMMMMMMMMMMMMMMMDMMMMMMMMUMMMUMMMDMMMMMMMMMMMMMMMMMMMMMMMMMUMMMMMMMMMMMMMMMMMMMMMMMMMDUMMMMMMMMMMMMMMMMMMMMMMMDMMMMMMMMMMMMMMMMMMMMMDMMMMMMMMMMMMMMMMMMMMMMMMMMMMMMMMMDMUMMMMMMMMMMMMMMMMMMMMMMMMMMDMMMMMMMMMMMMMMMUMMMMMMMMMMUMMMUMMMMMMMMMMMMMMUDMMMMMMMMMMMMMMMMMMMMMMMMMMMMMMMMMMMMMUMMMMMMMMMMMMMMMMMMMMMMMMMMMUMMMMMUMMMMMMUUMMMMMMMMMMMMMMMMUMMMMMMMMMMMMMMMMMMMMMMMMMMMMMMMMMMMMMMMMMMMMMMMMMMMMMMMMMMMMMMMMMMMMMMMMMMMMMMMMMMMMMMMUMMUMMMMMDMMMMMMMMMMMMMMMMMMMMMMMMMMMMMMMMDMMMMMMMMMMDMUMMMMMMMMMMMMMDMMMMMMMMMMMMMMMMMDMMMUMDMMMMUMMMMMMMMMMMMMMMMMMMMMMMM'
p133
sssg19
(dp134
g8
g48
sg11
g69
sg13
g88
sg15
g105
sg17
g120
sg21
(dp135
g40
S'MMMMMMMMMMMMMMMMMMMMMMMMMMMMMMUMUMMMMMMMMMMMMMMMMMMMMMMMUMMMMMMMMMMMMMMMMDMMMMMMMMMMMMMMMMMMMMMMMMMMMMMMMMMMMUMMMMMMMMUMMMMUMMMMMMMMMMMMMMMMMMMMMMMMUMMMMMMMMMMMMMMMMMMMMMMMMMMMMMMMMMMDMMMMMMMMMMMMMMMMMMMMMMMMMMMMMMMMMMMMMMMMMUMMMMMDMMMMMMMMMMMMMMMMMMMMMMMMMUMMMMMMMMDMMMMMMDMMMMMMMMMMMMMMDUMMMMMMMMMMMMMMMMMMMMMMMMMMMMMMMUMMUMMMMMMMMMMDUMMMMDMMUMMMDMMMMMMMDMMMMMMMMMMMMMMMMMMMMMMMMMMMMMMMMMMMMMMMUMMMMMMMMMMMMMMDMMMUMMMMMMMMMMMMMMMMMMMMUMMMMUMMMMMUMMMMMMMMMMMMUMMMMMMMMMMMMMMMMMMMMUMMMMMMMMMMMMMMMMMMMMMMMMMDMMMUMMMMUMMMMMMMMMMMMMMMMMMMMMMMMMMMMMMMMMMMMMMMMMMMMMMMMMM'
p136
ssg23
(dp137
g40
S'MMMMMMMMMMMMMMMMMUMMMMMMMMMMMMMMMMMMMMMMUMMMMMMMMMMMMMMMMMMMMMMMMMMMMMUMMDMMMMMUMMMMMMMMMMMMMMMMMMMMMMMMMMMMMMMMMMMMMMMMMMMMMMMMMMMMMMMMMMMMMMMMMMMMMMMMUMMMMMMMMMMMMMMMMMMMMMMMMMMMMMMDMMMMMMMMMMMMMMUMMMMMMMMMMUMMMMMMUMMMMMMMMMMMMMMDMMMMMMMMMMMMMMMMMMMMMMMMMMMMMMMMMMDMMMMMMDMMMMMMMMMMMMMMDMMMMMMMMMMMMMMMMMMMMMMMMMMMMMMMMMMMMMMMMMMMMMMDMMMMMDMMMMMMDMUMMMMMUMMMMMMMMMMMMMMMMMMMMMMMMMMMMMMMMMMMMMMMDMMMMMMMMMMMMMMDMMMMMMMMMMMMMMMMMMMMMMMMMMUMMMMMMMUUMMMMMMMMMMUMMMMMMMMMMMMMMMMMMMMMMMMMMMMMMMMMMMMMMMMUMMMMMMMDMMMMMMMMMMMMMMMUMMMMMMMMMMMMMMMMMMMMMMMMMMMMMMMMMMMMMMMMMMM'
p138
ssg25
(dp139
g40
S'MMMMMMMMMMMMMMMMMMMMMMMMMMMMMMMMMUMMMMMMMMMMMMMMMMMMMMMMMMMMMMMUMMMMMMMMMDMMMMMMMUMMMMMMMMMMMMUMMMMMMMMMMMMMMMMMMMMMUMMMUMMMMMMMMMMMMMMMMMMMMMMMMMUMMMMMMMMMMMMMMMMMMMMMMMMMMMMMMMMMMMMDMMMMMMMMMMMMMMMMMMMMMMMMMMMMUMMMMMMMMMMMMMMMMMMDMMMMMMMMMMMMMMMMMMMUMMMMMMMMMMMMMMDMMMMMMDMMMMMMMMMMMMMMDUMMMMMUMMMMMMMMMMMMMMMMMMMMMMMMMMMMMMMMMMMMMMMDMMMMMDMUMMMMDMMMMMMMDMMMMMMMMMMMMMMMMMMMUMMMMMMMMMMMMMMMMMMMDMMMMMMMMMMMMMMDMUMMMMMMMMMMMMMMMMMMMMMMMMMMMMMMMMMUMMMMMMMMUMMMMMMMUMMMMMMMMMMMMMMMMMMMMMMMMMMMMMMMMMMMMMMMMMMDMMMMMMMMMMMMMMMMMMMMMMMMMMMMMMMMMMMMMMMMMMMMMMMMMMMMMMMMMMM'
p140
ssg27
(dp141
g40
S'MMMMMMMMMMMMMMMMMMMMMMMMMMMMMMMMMMMMMMMMMMUMMMMUMMMMMMMMMMMMMMMMMMMMMMMMMDMMMMMMMMMMMMUMMMMMMMMMMMMMMMMMMMMMMMMUMMMMMMMMMMMMMMMMMMMMMMMMMMMMMMMMMMMMMMMMMMMMMMMMMMMMMMMMMMMMMMMMMMMMMMMDMMMMMMMMMMMMMMMMMMMMMMMMMUMMMMMMMUMMMMMMMMMMMUMDMMMMMMMMMMMMMMMMMMMMMMMMMMMMMMMMMMDMMMMMMDMMMMMMMMMMMMMMDMMMMMMMMMMMMMMMMMMMMMMMMMMMMMMMMMMMMMMMMMMUMMMDMMMMMDMMMMMMDMMMMMMMUMMMMMUMMMMMMMMMMMMUMMMMMUMMMMMMMMMMMMMMDMMMMMMMMMMMMMMDMMMMMMMMMMMMMMMMMMMMMMMMMMMMMMMMMMMDMMMMMMMMMMMMMMMMMMMMMMMMMMMMMMMMMMMMMMMMMMMMMMMMMMMMMMMMMMMUMMMMMMMMMMMMMMMMMMMMMMMMMMMMMMMMMMMMMMMMMMMMMMMMMMMMUMMMMMM'
p142
ssg29
(dp143
g40
S'MMMMMMMMMMMMMMMMMMMMMUMMMMMMMMMMMMMMMMMMMMUMMMMMMMMMMMMMMMMMMMMMMMMMMMMMMDMMMMMMMMMMMMMMMMMMMMMMMMMMMMMMMMMMMMMMMMMMMMMMMMMMMMMMMMMMMUMMMMMMMMMMMMMMMMMMMMMMMMMMMMMMUMMMMMMMMMUUMMMMMMMDMMMMMMMMMMMMMMMMMMMMMMMMMMMMMMMMMMMMMMMMMMMMUMMDMMMMMMUMMMMMMMMMMMMMMMMMMMMMMMMMMMDMMMMMMDMUMMMMMMMMMMMMDMMMMMMMMMMMMMMMMMMMMMMMMMMMMMMMMMMMMMMMMMMUMMMDMMMMUDMMMMMMDMMMMMMMUMUMMMMMMUMMMMMMMMMMMMMMMMUMMMUMMMMMMMMMDMMMMMMMMMMMMMMDMMMMMMMMMMMMMMMMMMMMMMMMMMMMMMMMMMMUMMMMMMMMMMMMMMMMMMMMMMMMMMMMMMMMMMMMMMMMMMMMMMMMMMMUMMMUMMMDMMMMMMMMMMMMMMMMMMMMMMMMMMMMMMMMMMMMMMMUMMMMMMMMMMMMMMMMMMM'
p144
ssg31
(dp145
g40
S'MMMMMMMMMMMMMMMMMMMMMMMMMMMMMMMMMMMMMMMMMMUMMMUMMMMMMMMMMMMMMMMMMMMMMMMMMDMMUMMMMMMMMMMMMMMMMMMMMMMMMMMUMMMMMMMMMMMMMMMMMMMMMMMMMMMMMMMMMMMMMMMMMMMMMMMMMMMMMMMMMMMMMMMMMMMMMMMMMMMMMMMDMUMMMMMMMMMMMMMMMMMMMMMMMMMMMMMMMMMMMMMMMMMMUMMDMMMMMMMUMMMUMMMMMMMMMMMMMMUMMMMMMMDMMMMMMDMMMMMMMMMMMMMMDMMMMMMMMUMMMMMMMMMMMMMMMMMMMMMMMMMMMUMMMMMUMMMDMMUUMDMMMMMMDMMMMMMMDMMMMMMMMMMMMMMMMMMMMMMMMMMMMMMMMMMMMMMMDMMMMMMMMMMMMMMDMMMMMMMMMMMMMMMMMMMMMMMMMMMMMMMMUMMUMMMMMMMMMMMMMMMMMMMMMMMMMMMMMMMMMMMMMMMMMMMMMMMMMMMUMMMMMMMDMMMMMMMMMMMMMMMMMMMMMMMMMMMUMMMMMMUMMMMMMMMMMMMMMMMMMMMMMMM'
p146
sssg21
(dp147
g8
g50
sg11
g71
sg13
g90
sg15
g107
sg17
g122
sg19
g135
sg23
(dp148
g40
S'MMMMMMMMMMMMMMMMMUMMMMMMMMMMMMDMDMMMMMMMUMMMMMMMMMMMMMMMDMMMMMMMMMMMMMUMMMMMMMMUMMMMMMMMMMMMMMMMMMMMMMMMMMMMMDMMMMMMMMDMMMMDMMMMMMMMMMMMMMMMMMMMMMMMDMMMUMMMMMMMMMMMMMMMMMMMMMMMMMMMMMMDMMMMMMMMMMMMMMUMMMMMMMMMMUMMMMMMUMMMMMMMMDMMMMMMMMMMMMMMMMMMMMMMMMMMMMMMMDMMMMMMMMMMMMMMMMMMMMMMMMMMMMMMMDMMMMMMMMMMMMMMMMMMMMMMMMMMMMMMMDMMDMMMMMMMMMMMDMMMMMMMDMMMMMUMMMMMUMMMMMMMMMMMMMMMMMMMMMMMMMMMMMMMMMMMMMMMDMMMMMMMMMMMMMMMMMMDMMMMMMMMMMMMMMMMMMMMDMUMMDMMMMUUMMMMMMMMMMUMDMMMMMMMMMMMMMMMMMMMMDMMMMMMMMMMMMMMMMMUMMMMMMMMMMMDMMMMDMMMMMMUMMMMMMMMMMMMMMMMMMMMMMMMMMMMMMMMMMMMMMMMMMM'
p149
ssg25
(dp150
g40
S'MMMMMMMMMMMMMMMMMMMMMMMMMMMMMMDMDUMMMMMMMMMMMMMMMMMMMMMMDMMMMMMUMMMMMMMMMMMMMMMMMUMMMMMMMMMMMMUMMMMMMMMMMMMMMDMMMMMMUMDMUMMDMMMMMMMMMMMMMMMMMMMMMMUMDMMMMMMMMMMMMMMMMMMMMMMMMMMMMMMMMMMDMMMMMMMMMMMMMMMMMMMMMMMMMMMMUMMMMMMMMMMMMDMMMMMMMMMMMMMMMMMMMMMMMMMUMMMMMDMMMMMMMMMMMMMMMMMMMMMMMMMMMMMMMUMMMMMUMMMMMMMMMMMMMMMMMMMMMMMMMDMMDMMMMMMMMMMMDMMMMMMUDMMMMMMMMMMMDMMMMMMMMMMMMMMMMMMMUMMMMMMMMMMMMMMMMMMMDMMMMMMMMMMMMMMMMUMDMMMMMMMMMMMMMMMMMMMMDMMMMDMMMMMUMMMMMMMMUMMMDMMMUMMMMMMMMMMMMMMMMDMMMMMMMMMMMMMMMMMMMMMMMMMMMMMDMMMMDMMMMMMMMMMMMMMMMMMMMMMMMMMMMMMMMMMMMMMMMMMMMMMMMMM'
p151
ssg27
(dp152
g40
S'MMMMMMMMMMMMMMMMMMMMMMMMMMMMMMDMDMMMMMMMMMUMMMMUMMMMMMMMDMMMMMMMMMMMMMMMMMMMMMMMMMMMMMUMMMMMMMMMMMMMMMMMMMMMMDMUMMMMMMDMMMMDMMMMMMMMMMMMMMMMMMMMMMMMDMMMMMMMMMMMMMMMMMMMMMMMMMMMMMMMMMMUMMMMMMMMMMMMMMMMMMMMMMMMMUMMMMMMMUMMMMMMMDMMMUMMMMMMMMMMMMMMMMMMMMMMMMMMMDMMMMMMMMMMMMMMMMMMMMMMMMMMMMMMMDMMMMMMMMMMMMMMMMMMMMMMMMMMMMMMMDMMDMMMMMMUMMMMDMMMMMMMDMMMMMMMMMMMUMMMMMUMMMMMMMMMMMMUMMMMMUMMMMMMMMMMMMMMDMMMMMMMMMMMMMMMMMMDMMMMMMMMMMMMMMMMMMMMDMMMMDMMMMMDMMMMMMMMMMMMDMMMMMMMMMMMMMMMMMMMMDMMMMMMMMMMMMMMMMMMMMMMMMMUMMMDMMMMDMMMMMMMMMMMMMMMMMMMMMMMMMMMMMMMMMMMMMMMMMMMUMMMMMM'
p153
ssg29
(dp154
g40
S'MMMMMMMMMMMMMMMMMMMMMUMMMMMMMMDMDMMMMMMMMMUMMMMMMMMMMMMMDMMMMMMMMMMMMMMMMMMMMMMMMMMMMMMMMMMMMMMMMMMMMMMMMMMMMDMMMMMMMMDMMMMDMMMMMMMMMUMMMMMMMMMMMMMMDMMMMMMMMMMMMMMMUMMMMMMMMMUUMMMMMMMDMMMMMMMMMMMMMMMMMMMMMMMMMMMMMMMMMMMMMMMMMDMMUMMMMMMMMMUMMMMMMMMMMMMMMMMMMDMMMMMMMMMMMMMMMMMUMMMMMMMMMMMMMDMMMMMMMMMMMMMMMMMMMMMMMMMMMMMMMDMMDMMMMMMUMMMMDMMMUMMMDMMMMMMMMMMMUMUMMMMMMUMMMMMMMMMMMMMMMMUMMMUMMMMMMMMMDMMMMMMMMMMMMMMMMMMDMMMMMMMMMMMMMMMMMMMMDMMMMDMMMMMDMMMMMMMMMMMMDMMMMMMMMMMMMMMMMMMMMDMMMMMMMMMMMMMMMMMUMMMUMMMMMMMDMMMMDMMMMMMMMMMMMMMMMMMMMMMMMMMMMMMUMMMMMMMMMMMMMMMMMMM'
p155
ssg31
(dp156
g40
S'MMMMMMMMMMMMMMMMMMMMMMMMMMMMMMDMDMMMMMMMMMUMMMUMMMMMMMMMDMMMMMMMMMMMMMMMMMMMUMMMMMMMMMMMMMMMMMMMMMMMMMMUMMMMMDMMMMMMMMDMMMMDMMMMMMMMMMMMMMMMMMMMMMMMDMMMMMMMMMMMMMMMMMMMMMMMMMMMMMMMMMMDMUMMMMMMMMMMMMMMMMMMMMMMMMMMMMMMMMMMMMMMMDMMUMMMMMMMMMMUMMMUMMMMMMMMMMMMMDUMMMMMMMMMMMMMMMMMMMMMMMMMMMMMMDMMMMMMMUMMMMMMMMMMMMMMMMMMMMMMMDMMDUMMMMMUMMMMDMUUMMMMDMMMMMMMMMMMDMMMMMMMMMMMMMMMMMMMMMMMMMMMMMMMMMMMMMMMDMMMMMMMMMMMMMMMMMMDMMMMMMMMMMMMMMMMMMMMDMMMMDMMUMMUMMMMMMMMMMMMDMMMMMMMMMMMMMMMMMMMMDMMMMMMMMMMMMMMMMMUMMMMMMMMMMMDMMMMDMMMMMMMMMMMMMMMMMMUMMMMMMUMMMMMMMMMMMMMMMMMMMMMMMM'
p157
sssg23
(dp158
g8
g52
sg11
g73
sg13
g92
sg15
g109
sg17
g124
sg19
g137
sg21
g148
sg25
(dp159
g40
S'MMMMMMMMMMMMMMMMMDMMMMMMMMMMMMMMMUMMMMMMDMMMMMMMMMMMMMMMMMMMMMMUMMMMMMDMMMMMMMMDMUMMMMMMMMMMMMUMMMMMMMMMMMMMMMMMMMMMUMMMUMMMMMMMMMMMMMMMMMMMMMMMMMUMMMMMDMMMMMMMMMMMMMMMMMMMMMMMMMMMMMMMMMMMMMMMMMMMMMDMMMMMMMMMMDMMUMMMDMMMMMMMMMMMMMMMMMMMMMMMMMMMMMMMMMMUMMMMMMMMMMMMMMMMMMMMMMMMMMMMMMMMMMMMMUMMMMMUMMMMMMMMMMMMMMMMMMMMMMMMMMMMMMMMMMMMMMMMMMMMMMMUMMMMMMDMMMMMDMMMMMMMMMMMMMMMMMMMUMMMMMMMMMMMMMMMMMMMMMMMMMMMMMMMMMMMMUMMMMMMMMMMMMMMMMMMMMMMMMDMMMMMMMDUMMMMMMMMUMDMMMMMUMMMMMMMMMMMMMMMMMMMMMMMMMMMMMMMMMMDMMMMMMMMMMMMMMMMMMMMMMMDMMMMMMMMMMMMMMMMMMMMMMMMMMMMMMMMMMMMMMMMMMM'
p160
ssg27
(dp161
g40
S'MMMMMMMMMMMMMMMMMDMMMMMMMMMMMMMMMMMMMMMMDMUMMMMUMMMMMMMMMMMMMMMMMMMMMMDMMMMMMMMDMMMMMMUMMMMMMMMMMMMMMMMMMMMMMMMUMMMMMMMMMMMMMMMMMMMMMMMMMMMMMMMMMMMMMMMMDMMMMMMMMMMMMMMMMMMMMMMMMMMMMMMUMMMMMMMMMMMMMMDMMMMMMMMMMUMMMMMMDUMMMMMMMMMMMUMMMMMMMMMMMMMMMMMMMMMMMMMMMMMMMMMMMMMMMMMMMMMMMMMMMMMMMMMMMMMMMMMMMMMMMMMMMMMMMMMMMMMMMMMMMMMMMMMMMMMUMMMMMMMMMMMMMMMMMMDMMMMMUMMMMMUMMMMMMMMMMMMUMMMMMUMMMMMMMMMMMMMMMMMMMMMMMMMMMMMMMMMMMMMMMMMMMMMMMMMMMMMMMMDMMMMMMMDDMMMMMMMMMMDMMMMMMMMMMMMMMMMMMMMMMMMMMMMMMMMMMMMMMMMDMMMMMMMUMMMMMMMMMMMMMMMDMMMMMMMMMMMMMMMMMMMMMMMMMMMMMMMMMMMMUMMMMMM'
p162
ssg29
(dp163
g40
S'MMMMMMMMMMMMMMMMMDMMMUMMMMMMMMMMMMMMMMMMDMUMMMMMMMMMMMMMMMMMMMMMMMMMMMDMMMMMMMMDMMMMMMMMMMMMMMMMMMMMMMMMMMMMMMMMMMMMMMMMMMMMMMMMMMMMMUMMMMMMMMMMMMMMMMMMDMMMMMMMMMMMUMMMMMMMMMUUMMMMMMMUMMMMMMMMMMMMMMDMMMMMMMMMMDMMMMMMDMMMMMMMMMMMUMMMMMMMMMUMMMMMMMMMMMMMMMMMMMMMMMMMMMMMMMMMMMMUMMMMMMMMMMMMMMMMMMMMMMMMMMMMMMMMMMMMMMMMMMMMMMMMMMMMMMMUMMMMMMMMUMMMMMMMMMDMMMMMMMUMMMMMMUMMMMMMMMMMMMMMMMUMMMUMMMMMMMMMMMMMMMMMMMMMMMMMMMMMMMMMMMMMMMMMMMMMMMMMMMDMMMMMMMDDMMMMMMMMMMDMMMMMMMMMMMMMMMMMMMMMMMMMMMMMMMMMMMMMMMMUMMMUMMMMMMMMMMMMMMMMMMMDMMMMMMMMMMMMMMMMMMMMMMMUMMMMMMMMMMMMMMMMMMM'
p164
ssg31
(dp165
g40
S'MMMMMMMMMMMMMMMMMDMMMMMMMMMMMMMMMMMMMMMMDMUMMMUMMMMMMMMMMMMMMMMMMMMMMMDMMMMMUMMDMMMMMMMMMMMMMMMMMMMMMMMUMMMMMMMMMMMMMMMMMMMMMMMMMMMMMMMMMMMMMMMMMMMMMMMMDMMMMMMMMMMMMMMMMMMMMMMMMMMMMMMUMUMMMMMMMMMMMMDMMMMMMMMMMDMMMMMMDMMMMMMMMMMMUMMMMMMMMMMUMMMUMMMMMMMMMMMMMMUMMMMMMMMMMMMMMMMMMMMMMMMMMMMMMMMMMMMMMUMMMMMMMMMMMMMMMMMMMMMMMMMMMUMMMMMUMMMMMMUUMMMMMMMMMMDMMMMMDMMMMMMMMMMMMMMMMMMMMMMMMMMMMMMMMMMMMMMMMMMMMMMMMMMMMMMMMMMMMMMMMMMMMMMMMMMMMMMMMMDMMMMMUMDUMMMMMMMMMMDMMMMMMMMMMMMMMMMMMMMMMMMMMMMMMMMMMMMMMMMDMMMMMMMMMMMMMMMMMMMMMMMDMMMMMMMMMMMUMMMMMMUMMMMMMMMMMMMMMMMMMMMMMMM'
p166
sssg25
(dp167
g8
g54
sg11
g75
sg13
g94
sg15
g111
sg17
g126
sg19
g139
sg21
g150
sg23
g159
sg27
(dp168
g40
S'MMMMMMMMMMMMMMMMMMMMMMMMMMMMMMMMMDMMMMMMMMUMMMMUMMMMMMMMMMMMMMMDMMMMMMMMMMMMMMMMMDMMMMUMMMMMMMDMMMMMMMMMMMMMMMMUMMMMDMMMDMMMMMMMMMMMMMMMMMMMMMMMMMDMMMMMMMMMMMMMMMMMMMMMMMMMMMMMMMMMMMMUMMMMMMMMMMMMMMMMMMMMMMMMMUMMDMMMMUMMMMMMMMMMMUMMMMMMMMMMMMMMMMMMMMMDMMMMMMMMMMMMMMMMMMMMMMMMMMMMMMMMMMMMMDMMMMMDMMMMMMMMMMMMMMMMMMMMMMMMMMMMMMMMMMMUMMMMMMMMMMMDMMMMMMMMMMMMUMMMMMUMMMMMMMMMMMMUDMMMMUMMMMMMMMMMMMMMMMMMMMMMMMMMMMMMMDMMMMMMMMMMMMMMMMMMMMMMMMMMMMMMMMMDMMMMMMMMDMMMMMMMDMMMMMMMMMMMMMMMMMMMMMMMMMMMMMMMMMMMMMMMMMMUMMMMMMMMMMMMMMMMMMMMMMMMMMMMMMMMMMMMMMMMMMMMMMMMMMMMUMMMMMM'
p169
ssg29
(dp170
g40
S'MMMMMMMMMMMMMMMMMMMMMUMMMMMMMMMMMDMMMMMMMMUMMMMMMMMMMMMMMMMMMMMDMMMMMMMMMMMMMMMMMDMMMMMMMMMMMMDMMMMMMMMMMMMMMMMMMMMMDMMMDMMMMMMMMMMMMUMMMMMMMMMMMMDMMMMMMMMMMMMMMMMMUMMMMMMMMMUUMMMMMMMUMMMMMMMMMMMMMMMMMMMMMMMMMMMMDMMMMMMMMMMMMMMMUMMMMMMMMMUMMMMMMMMMMMMDMMMMMMMMMMMMMMMMMMMMMMMUMMMMMMMMMMMMMDMMMMMDMMMMMMMMMMMMMMMMMMMMMMMMMMMMMMMMMMMUMMMMMMMMUMMDMMMMMMMMMMMMUMUMMMMMMUMMMMMMMMMMDMMMMMUMMMUMMMMMMMMMMMMMMMMMMMMMMMMMMDMMMMMMMMMMMMMMMMMMMMMMMMMMMMMMMMMDMMMMMMMMDMMMMMMMDMMMMMMMMMMMMMMMMMMMMMMMMMMMMMMMMMMUMMMUMMMMMMMMMMMMMMMMMMMMMMMMMMMMMMMMMMMMMMMMMMMUMMMMMMMMMMMMMMMMMMM'
p171
ssg31
(dp172
g40
S'MMMMMMMMMMMMMMMMMMMMMMMMMMMMMMMMMDMMMMMMMMUMMMUMMMMMMMMMMMMMMMMDMMMMMMMMMMMMUMMMMDMMMMMMMMMMMMDMMMMMMMMUMMMMMMMMMMMMDMMMDMMMMMMMMMMMMMMMMMMMMMMMMMDMMMMMMMMMMMMMMMMMMMMMMMMMMMMMMMMMMMMUMUMMMMMMMMMMMMMMMMMMMMMMMMMMDMMMMMMMMMMMMMMMUMMMMMMMMMMUMMMUMMMMMMMDMMMMMMUMMMMMMMMMMMMMMMMMMMMMMMMMMMMMMDMMMMMDMUMMMMMMMMMMMMMMMMMMMMMMMMMMMUMMMMMUMMMMMMUUMMMDMMMMMMMMMMMMUMMMMMMMMMMMMMMMMMMMDMMMMMMMMMMMMMMMMMMMMMMMMMMMMMMMMMMMMDMMMMMMMMMMMMMMMMMMMMMMMMMMMMMMUMMDMMMMMMMMDMMMMMMMDMMMMMMMMMMMMMMMMMMMMMMMMMMMMMMMMMMUMMMMMMMMMMMMMMMMMMMMMMMMMMMMMMMMMMMUMMMMMMUMMMMMMMMMMMMMMMMMMMMMMMM'
p173
sssg27
(dp174
g8
g56
sg11
g77
sg13
g96
sg15
g113
sg17
g128
sg19
g141
sg21
g152
sg23
g161
sg25
g168
sg29
(dp175
g40
S'MMMMMMMMMMMMMMMMMMMMMUMMMMMMMMMMMMMMMMMMMMDMMMMDMMMMMMMMMMMMMMMMMMMMMMMMMMMMMMMMMMMMMMDMMMMMMMMMMMMMMMMMMMMMMMMDMMMMMMMMMMMMMMMMMMMMMUMMMMMMMMMMMMMMMMMMMMMMMMMMMMMMUMMMMMMMMMUUMMMMMMMDMMMMMMMMMMMMMMMMMMMMMMMMMDMMMMMMMDMMMMMMMMMMUDMMMMMMMMUMMMMMMMMMMMMMMMMMMMMMMMMMMMMMMMMMMMMUMMMMMMMMMMMMMMMMMMMMMMMMMMMMMMMMMMMMMMMMMMMMMMMMMMMMMMMDMMMMMMMMUMMMMMMMMMMMMMMMDMUMMMDMMUMMMMMMMMMDMMMMMDUMMMUMMMMMMMMMMMMMMMMMMMMMMMMMMMMMMMMMMMMMMMMMMMMMMMMMMMMMMMMMMMMUMMMMMMMMMMMMMMMMMMMMMMMMMMMMMMMMMMMMMMMMMMMMMMMMMMMUMMMUMMMDMMMMMMMMMMMMMMMMMMMMMMMMMMMMMMMMMMMMMMMUMMMMMMMMMMMMDMMMMMM'
p176
ssg31
(dp177
g40
S'MMMMMMMMMMMMMMMMMMMMMMMMMMMMMMMMMMMMMMMMMMDMMMUDMMMMMMMMMMMMMMMMMMMMMMMMMMMMUMMMMMMMMMDMMMMMMMMMMMMMMMMUMMMMMMMDMMMMMMMMMMMMMMMMMMMMMMMMMMMMMMMMMMMMMMMMMMMMMMMMMMMMMMMMMMMMMMMMMMMMMMMDMUMMMMMMMMMMMMMMMMMMMMMMMDMMMMMMMDMMMMMMMMMMUDMMMMMMMMMUMMMUMMMMMMMMMMMMMMUMMMMMMMMMMMMMMMMMMMMMMMMMMMMMMMMMMMMMMUMMMMMMMMMMMMMMMMMMMMMMMMMMMUMMMMMDMMMMMMUUMMMMMMMMMMMMMMMMDMMMMMDMMMMMMMMMMMMDMMMMMDMMMMMMMMMMMMMMMMMMMMMMMMMMMMMMMMMMMMMMMMMMMMMMMMMMMMMMMMMMMMMMUMMUMMMMMMMMMMMMMMMMMMMMMMMMMMMMMMMMMMMMMMMMMMMMMMMMMMMUMMMMMMMDMMMMMMMMMMMMMMMMMMMMMMMMMMMUMMMMMMUMMMMMMMMMMMMMMMMMDMMMMMM'
p178
sssg29
(dp179
g8
g58
sg11
g79
sg13
g98
sg15
g115
sg17
g130
sg19
g143
sg21
g154
sg23
g163
sg25
g170
sg27
g175
sg31
(dp180
g40
S'MMMMMMMMMMMMMMMMMMMMMDMMMMMMMMMMMMMMMMMMMMDMMMUMMMMMMMMMMMMMMMMMMMMMMMMMMMMMUMMMMMMMMMMMMMMMMMMMMMMMMMMUMMMMMMMMMMMMMMMMMMMMMMMMMMMMMDMMMMMMMMMMMMMMMMMMMMMMMMMMMMMMDMMMMMMMMMDDMMMMMMMDMUMMMMMMMMMMMMMMMMMMMMMMMMMMMMMMMMMMMMMMMMMMUMMMMMMMMMDUMMMUMMMMMMMMMMMMMMUMMMMMMMMMMMMMMMMDMMMMMMMMMMMMMMMMMMMMMUMMMMMMMMMMMMMMMMMMMMMMMMMMMUMMMMMDMMMMMMUUDMMMMMMMMMMMMMMMDMDMMMMMMDMMMMMMMMMMMMMMMMDMMMDMMMMMMMMMMMMMMMMMMMMMMMMMMMMMMMMMMMMMMMMMMMMMMMMMMMMMMMMMUMMUMMMMMMMMMMMMMMMMMMMMMMMMMMMMMMMMMMMMMMMMMMMMMMMMMMMDMMMDMMMMMMMMMMMMMMMMMMMMMMMMMMMMMMMUMMMMMMUMMMMDMMMMMMMMMMMMMMMMMMM'
p181
sssg31
(dp182
g8
g60
sg11
g81
sg13
g100
sg15
g117
sg17
g132
sg19
g145
sg21
g156
sg23
g165
sg25
g172
sg27
g177
sg29
g180
sssS'adj'
p183
g37
sb.