(dp0
S'assemblage-392-543'
p1
(lp2
S'assemblage-955-782'
p3
aS'assemblage-392-556'
p4
aS'assemblage-259-119'
p5
aS'assemblage-958-518'
p6
aS'assemblage-142-547'
p7
aS'assemblage-481-987'
p8
aS'assemblage-641-709'
p9
aS'assemblage-817-468'
p10
aS'assemblage-291-322'
p11
aS'assemblage-473-623'
p12
aS'assemblage-486-973'
p13
aS'assemblage-429-597'
p14
aS'assemblage-658-712'
p15
aS'assemblage-254-688'
p16
aS'assemblage-798-508'
p17
asg4
(lp18
g3
ag1
ag5
ag6
ag7
ag8
ag9
ag10
ag11
ag12
ag13
ag14
ag15
ag16
ag17
asg6
(lp19
g3
ag1
ag4
ag5
ag7
ag8
ag9
ag10
ag11
ag12
ag13
ag14
ag15
ag16
ag17
asg7
(lp20
g3
ag1
ag4
ag5
ag6
ag8
ag9
ag10
ag11
ag12
ag13
ag14
ag15
ag16
ag17
asg8
(lp21
g3
ag1
ag4
ag5
ag6
ag7
ag9
ag10
ag11
ag12
ag13
ag14
ag15
ag16
ag17
asg9
(lp22
g3
ag1
ag4
ag5
ag6
ag7
ag8
ag10
ag11
ag12
ag13
ag14
ag15
ag16
ag17
asg10
(lp23
g3
ag1
ag4
ag5
ag6
ag7
ag8
ag9
ag11
ag12
ag13
ag14
ag15
ag16
ag17
asg5
(lp24
g3
ag1
ag4
ag6
ag7
ag8
ag9
ag10
ag11
ag12
ag13
ag14
ag15
ag16
ag17
asg11
(lp25
g3
ag1
ag4
ag5
ag6
ag7
ag8
ag9
ag10
ag12
ag13
ag14
ag15
ag16
ag17
asg12
(lp26
g3
ag1
ag4
ag5
ag6
ag7
ag8
ag9
ag10
ag11
ag13
ag14
ag15
ag16
ag17
asg14
(lp27
g3
ag1
ag4
ag5
ag6
ag7
ag8
ag9
ag10
ag11
ag12
ag13
ag15
ag16
ag17
asg13
(lp28
g3
ag1
ag4
ag5
ag6
ag7
ag8
ag9
ag10
ag11
ag12
ag14
ag15
ag16
ag17
asg3
(lp29
g1
ag4
ag5
ag6
ag7
ag8
ag9
ag10
ag11
ag12
ag13
ag14
ag15
ag16
ag17
asg15
(lp30
g3
ag1
ag4
ag5
ag6
ag7
ag8
ag9
ag10
ag11
ag12
ag13
ag14
ag16
ag17
asg16
(lp31
g3
ag1
ag4
ag5
ag6
ag7
ag8
ag9
ag10
ag11
ag12
ag13
ag14
ag15
ag17
asg17
(lp32
g3
ag1
ag4
ag5
ag6
ag7
ag8
ag9
ag10
ag11
ag12
ag13
ag14
ag15
ag16
as.