(dp0
S'assemblage-37-57'
p1
(lp2
F0.0
aF0.0
aF0.0
aF0.0
aF0.0
aF0.0
aF0.0
aF0.9890117929359435
aF0.0
aF0.0
aF0.0
aF0.0
aF0.0
aF0.0
aF0.0
aF0.0
aF0.0
aF0.0
aF0.0
aF0.010988207064056418
aF0.0
aF0.0
aF0.0
aF0.0
aF0.0
asS'assemblage-32-5'
p3
(lp4
F0.0
aF0.0
aF0.0
aF0.0
aF0.0
aF0.0
aF0.0
aF0.0
aF0.0
aF0.0
aF0.6471022517534145
aF0.0
aF0.0014765596160944998
aF0.0
aF0.0
aF0.0
aF0.0
aF0.0
aF0.0
aF0.0
aF0.0
aF0.0
aF0.35142118863049093
aF0.0
aF0.0
asS'assemblage-51-43'
p5
(lp6
F0.0
aF0.0
aF0.17349575489110372
aF0.0
aF0.0
aF0.0
aF0.0
aF0.2517534145441122
aF0.0
aF0.08305647840531562
aF0.19047619047619047
aF0.0
aF0.24953857511997046
aF0.0
aF0.0
aF0.0
aF0.0
aF0.0022148394241417496
aF0.0
aF0.0
aF0.0
aF0.0
aF0.049464747139165745
aF0.0
aF0.0
asS'assemblage-67-29'
p7
(lp8
F0.0
aF0.0
aF0.023624953857511996
aF0.0
aF0.0
aF0.0
aF0.0
aF0.004798818752307124
aF0.0
aF0.0
aF0.5710594315245479
aF0.0
aF0.40014765596160945
aF0.0
aF0.0
aF0.0
aF0.0
aF0.0
aF0.0
aF0.0
aF0.0
aF0.0
aF0.00036913990402362494
aF0.0
aF0.0
asS'assemblage-28-69'
p9
(lp10
F0.0
aF0.0
aF0.11074197120708748
aF0.0
aF0.0
aF0.0
aF0.0
aF0.013289036544850499
aF0.0
aF0.0
aF0.07050572166851236
aF0.0
aF0.8039867109634552
aF0.0
aF0.0
aF0.0
aF0.0
aF0.0014765596160944998
aF0.0
aF0.0
aF0.0
aF0.0
aF0.0
aF0.0
aF0.0
asS'assemblage-55-47'
p11
(lp12
F0.0
aF0.0
aF0.0
aF0.0
aF0.0
aF0.0
aF0.0
aF0.0
aF0.0
aF0.0
aF0.0
aF0.0
aF0.9948320413436692
aF0.0
aF0.0
aF0.0
aF0.0
aF0.00516795865633075
aF0.0
aF0.0
aF0.0
aF0.0
aF0.0
aF0.0
aF0.0
asS'assemblage-1-73'
p13
(lp14
F0.0
aF0.0
aF0.0
aF0.0
aF0.0
aF0.0
aF0.0
aF1.0
aF0.0
aF0.0
aF0.0
aF0.0
aF0.0
aF0.0
aF0.0
aF0.0
aF0.0
aF0.0
aF0.0
aF0.0
aF0.0
aF0.0
aF0.0
aF0.0
aF0.0
asS'assemblage-46-35'
p15
(lp16
F0.0
aF0.0
aF0.0
aF0.0
aF0.0
aF0.0
aF0.0
aF0.9999854532759223
aF0.0
aF0.0
aF0.0
aF0.0
aF0.0
aF0.0
aF1.4546724077737694e-05
aF0.0
aF0.0
aF0.0
aF0.0
aF0.0
aF0.0
aF0.0
aF0.0
aF0.0
aF0.0
asS'assemblage-3-16'
p17
(lp18
F0.0
aF0.0
aF0.0
aF0.0
aF0.0
aF0.0
aF0.0
aF0.9999268428291341
aF0.0
aF0.0
aF0.0
aF1.4631434173177655e-05
aF0.0
aF0.0
aF0.0
aF0.0
aF0.0
aF0.0
aF0.0
aF0.0
aF0.0
aF5.852573669271062e-05
aF0.0
aF0.0
aF0.0
asS'assemblage-50-41'
p19
(lp20
F0.0
aF0.0
aF0.0
aF0.0
aF0.0
aF0.0
aF0.0
aF0.0
aF0.0
aF0.0
aF0.8014027316352897
aF0.0
aF0.0
aF0.0
aF0.0
aF0.0
aF0.0
aF0.0
aF0.0
aF0.0
aF0.0
aF0.0
aF0.19859726836471023
aF0.0
aF0.0
as.