(dp0
S'assemblage-329-519'
p1
(lp2
cnumpy.core.multiarray
scalar
p3
(cnumpy
dtype
p4
(S'f8'
p5
I0
I1
tp6
Rp7
(I3
S'<'
p8
NNNI-1
I-1
I0
tp9
bS'=b\xdc\xaf\\\xd5\x90?'
p10
tp11
Rp12
aI0
aI0
aI0
aI0
aI0
aI0
aI0
aI0
aI0
aI0
aI0
ag3
(g7
S'\rC\xf0\xff\xec]\x85?'
p13
tp14
Rp15
aI0
aI0
aI0
aI0
aI0
aI0
aI0
aI0
aI0
aI0
aI0
aI0
aI0
aI0
aI0
aI0
aI0
aI0
aI0
aI0
aI0
aI0
aI0
aI0
aI0
aI0
aI0
ag3
(g7
S'j\xf6e\xb3\xd7\xe8\xa3?'
p16
tp17
Rp18
aI0
aI0
aI0
aI0
aI0
aI0
ag3
(g7
S'\xa5i=\na&\xac?'
p19
tp20
Rp21
ag3
(g7
S'\xa3O<\xf9\xf6\xde\xe2?'
p22
tp23
Rp24
aI0
aI0
aI0
aI0
aI0
ag3
(g7
S'\xb9\xb0\xaex\xa8^\xc2?'
p25
tp26
Rp27
aI0
aI0
aI0
aI0
ag3
(g7
S'\x9c\x8a\xc5T\xe5\xe3\xb0?'
p28
tp29
Rp30
ag3
(g7
S'\x02\x83~3\xbe\xdd\x8e?'
p31
tp32
Rp33
aI0
aI0
aI0
aI0
aI0
ag3
(g7
S')Z]\xd4\xbc[\xa0?'
p34
tp35
Rp36
aI0
aI0
aI0
aI0
aI0
aI0
aI0
aI0
aI0
aI0
aI0
ag3
(g7
S'(\xa0z\xe1\xc9x\x87?'
p37
tp38
Rp39
aI0
aI0
aI0
aI0
ag3
(g7
S'\n\x95\xd2\xda{o\x9f?'
p40
tp41
Rp42
aI0
aI0
aI0
aI0
aI0
aI0
ag3
(g7
S'\\qC\xa2R\xcf\x89?'
p43
tp44
Rp45
asS'assemblage-875-237'
p46
(lp47
g3
(g7
S'|\x9f\x9c^k\xc2\xe5?'
p48
tp49
Rp50
aI0
aI0
aI0
aI0
aI0
aI0
aI0
aI0
aI0
aI0
aI0
aI0
aI0
aI0
aI0
aI0
aI0
aI0
aI0
aI0
aI0
aI0
aI0
aI0
aI0
aI0
aI0
aI0
aI0
aI0
aI0
aI0
aI0
aI0
aI0
aI0
aI0
aI0
aI0
ag3
(g7
S'\xe1\xfcq/f\x84\xb5?'
p51
tp52
Rp53
aI0
aI0
aI0
aI0
aI0
aI0
ag3
(g7
S'\xa4h\xfe\xf9\x0e\x1b\xa8?'
p54
tp55
Rp56
ag3
(g7
S'\x8a\x12\xf3\xe3pT\xa1?'
p57
tp58
Rp59
aI0
aI0
aI0
aI0
aI0
ag3
(g7
S'\\\xfa\nxpA\x86?'
p60
tp61
Rp62
aI0
aI0
aI0
aI0
aI0
aI0
aI0
aI0
aI0
aI0
aI0
aI0
aI0
aI0
aI0
aI0
aI0
aI0
aI0
aI0
aI0
aI0
aI0
aI0
aI0
aI0
aI0
aI0
ag3
(g7
S'~U{\xfb\x88q\xbe?'
p63
tp64
Rp65
aI0
ag3
(g7
S'1\x0eP1\xb8[\x86?'
p66
tp67
Rp68
aI0
aI0
aI0
aI0
ag3
(g7
S'\xb6\x9b\x92\xb3\x93K\x9f?'
p69
tp70
Rp71
asS'assemblage-869-356'
p72
(lp73
g3
(g7
S'\xb6B\x01\x02\xbc\xdc\xcf?'
p74
tp75
Rp76
aI0
aI0
aI0
ag3
(g7
S'3fo\xbe\xc7\xa9\xb0?'
p77
tp78
Rp79
aI0
aI0
aI0
aI0
aI0
aI0
aI0
aI0
aI0
aI0
aI0
aI0
aI0
aI0
aI0
aI0
aI0
ag3
(g7
S'|[\x8b$1c\xa2?'
p80
tp81
Rp82
ag3
(g7
S'\xaf\x8f\xfd\xf1\x1d\xbf\xbd?'
p83
tp84
Rp85
aI0
ag3
(g7
S'\xce\xa7\xf8k\xa3\n\x8e?'
p86
tp87
Rp88
aI0
aI0
aI0
aI0
ag3
(g7
S'h\xc1:\x81\xf3&\x8a?'
p89
tp90
Rp91
aI0
ag3
(g7
S'\xa6\xbf!4\xfe,\x9b?'
p92
tp93
Rp94
aI0
aI0
aI0
aI0
aI0
aI0
aI0
aI0
ag3
(g7
S'\xf8\xf6\xc1\x9fw)\xa6?'
p95
tp96
Rp97
aI0
aI0
aI0
aI0
aI0
aI0
aI0
aI0
aI0
aI0
aI0
aI0
ag3
(g7
S'\xf6\xab\xbc\x8cL\xce\x99?'
p98
tp99
Rp100
aI0
aI0
aI0
aI0
aI0
aI0
aI0
aI0
aI0
aI0
aI0
aI0
aI0
aI0
aI0
ag3
(g7
S'\xc2\xc3#\xd4D\xa0\xb6?'
p101
tp102
Rp103
aI0
aI0
aI0
aI0
aI0
aI0
aI0
aI0
ag3
(g7
S'\\\x1cCbH\n\xc0?'
p104
tp105
Rp106
aI0
aI0
aI0
ag3
(g7
S"\x0bz\xf5\xab\x18'\xc6?"
p107
tp108
Rp109
aI0
aI0
aI0
aI0
aI0
aI0
ag3
(g7
S'\x9b\x96\xe0\x049R\xab?'
p110
tp111
Rp112
asS'assemblage-652-638'
p113
(lp114
I0
aI0
aI0
aI0
aI0
aI0
aI0
aI0
aI0
aI0
aI0
aI0
aI0
aI0
aI0
aI0
ag3
(g7
S'\xca]\xff\x0cG\xd8\x82?'
p115
tp116
Rp117
aI0
ag3
(g7
S'\xf3\xa8b\x1b\xe1\xb4\xa1?'
p118
tp119
Rp120
ag3
(g7
S'\xeb\xc4C\x15@\xa3\xa0?'
p121
tp122
Rp123
aI0
aI0
aI0
aI0
aI0
aI0
ag3
(g7
S'\xdb-4\xc2<\xd8\x91?'
p124
tp125
Rp126
aI0
aI0
aI0
aI0
aI0
aI0
aI0
aI0
aI0
aI0
ag3
(g7
S'\xa4\x04\x1b\\ \xbd\xe0?'
p127
tp128
Rp129
aI0
aI0
aI0
aI0
aI0
aI0
aI0
aI0
aI0
aI0
ag3
(g7
S'\xe5z\xb8y\x81q\x9c?'
p130
tp131
Rp132
aI0
aI0
aI0
aI0
aI0
aI0
aI0
aI0
aI0
aI0
aI0
aI0
aI0
aI0
ag3
(g7
S'\x94\xaf?+]\x1b\xab?'
p133
tp134
Rp135
aI0
aI0
aI0
aI0
aI0
aI0
aI0
aI0
aI0
aI0
aI0
aI0
aI0
aI0
ag3
(g7
S'\xa2\xfb \x10j\x88\xa8?'
p136
tp137
Rp138
aI0
aI0
aI0
aI0
ag3
(g7
S'\xd6\x99\xffRd!\xcd?'
p139
tp140
Rp141
aI0
aI0
aI0
aI0
aI0
aI0
ag3
(g7
S'\x9d\xa0$\xd5R3\xa8?'
p142
tp143
Rp144
asS'assemblage-828-944'
p145
(lp146
g3
(g7
S'\xc8\xb3"\x02\x1a\xd8\xd6?'
p147
tp148
Rp149
aI0
aI0
aI0
aI0
aI0
aI0
aI0
aI0
aI0
aI0
aI0
aI0
aI0
aI0
aI0
aI0
aI0
aI0
aI0
aI0
aI0
aI0
aI0
aI0
aI0
aI0
aI0
aI0
aI0
aI0
aI0
aI0
aI0
aI0
aI0
aI0
aI0
aI0
aI0
aI0
aI0
aI0
aI0
aI0
aI0
aI0
aI0
ag3
(g7
S'^\x95=\xf4\xef\x93\x85?'
p150
tp151
Rp152
aI0
aI0
aI0
aI0
aI0
ag3
(g7
S'\x8bR\x9bU\x18\x06\xd6?'
p153
tp154
Rp155
aI0
aI0
aI0
aI0
aI0
aI0
ag3
(g7
S'\xa1i\xc3\x15\x8dq\x81?'
p156
tp157
Rp158
aI0
aI0
aI0
aI0
aI0
aI0
aI0
aI0
aI0
aI0
aI0
aI0
aI0
aI0
aI0
aI0
aI0
ag3
(g7
S'\x1b\xd1\x83J\xdd0{?'
p159
tp160
Rp161
aI0
aI0
aI0
ag3
(g7
S'\x94\xf5\xcf\x91*T\xcf?'
p162
tp163
Rp164
aI0
aI0
aI0
aI0
ag3
(g7
S'8F\x0c\x9b\xe6Q\x87?'
p165
tp166
Rp167
aI0
ag3
(g7
S'2z\x9c\xa9\xf1N\xa1?'
p168
tp169
Rp170
asS'assemblage-232-911'
p171
(lp172
g3
(g7
S'\xc9~U\xa7\xf8\x96\xd9?'
p173
tp174
Rp175
aI0
aI0
aI0
aI0
aI0
aI0
aI0
aI0
aI0
aI0
aI0
aI0
aI0
aI0
aI0
aI0
aI0
aI0
aI0
aI0
aI0
aI0
aI0
aI0
aI0
aI0
aI0
aI0
aI0
aI0
aI0
aI0
aI0
aI0
aI0
aI0
aI0
aI0
aI0
aI0
aI0
aI0
aI0
aI0
aI0
aI0
aI0
aI0
aI0
aI0
aI0
aI0
aI0
ag3
(g7
S'\x9c@\xb1\x01o\xe2\xe0?'
p176
tp177
Rp178
aI0
aI0
aI0
aI0
aI0
aI0
aI0
aI0
aI0
aI0
aI0
ag3
(g7
S'\xff[\xd2\xa8\xd1$\x82?'
p179
tp180
Rp181
aI0
aI0
aI0
aI0
aI0
aI0
aI0
aI0
aI0
aI0
aI0
aI0
aI0
aI0
aI0
aI0
ag3
(g7
S'\xdcS"\xddn\x8b\xa2?'
p182
tp183
Rp184
aI0
aI0
aI0
aI0
aI0
aI0
ag3
(g7
S'v\x0b\n\xad\x9ay\xa4?'
p185
tp186
Rp187
asS'assemblage-403-871'
p188
(lp189
I0
aI0
aI0
aI0
aI0
aI0
aI0
aI0
aI0
aI0
aI0
aI0
aI0
aI0
aI0
aI0
aI0
aI0
aI0
aI0
aI0
aI0
aI0
aI0
aI0
aI0
aI0
aI0
aI0
aI0
aI0
aI0
aI0
aI0
aI0
aI0
aI0
ag3
(g7
S'\x04\x8bpBz\x04\xa1?'
p190
tp191
Rp192
aI0
aI0
aI0
aI0
aI0
aI0
ag3
(g7
S'\xe3Ho\xd6T[\xab?'
p193
tp194
Rp195
aI0
ag3
(g7
S'^\xbfTV9(\xa6?'
p196
tp197
Rp198
ag3
(g7
S'\x0c\xb0c\xad\x9c\xc5\x92?'
p199
tp200
Rp201
ag3
(g7
S'8\xd0E(\xab!\xe1?'
p202
tp203
Rp204
aI0
aI0
aI0
aI0
aI0
aI0
aI0
aI0
aI0
aI0
aI0
aI0
aI0
aI0
aI0
aI0
aI0
aI0
aI0
aI0
aI0
aI0
aI0
aI0
aI0
aI0
aI0
aI0
aI0
aI0
aI0
aI0
ag3
(g7
S'\x87\xe1x~l\x0c\xd2?'
p205
tp206
Rp207
ag3
(g7
S'\xbeB\xe8\xba\xda\xbd\x92?'
p208
tp209
Rp210
ag3
(g7
S'+!\xac\x0fU\x9c\x8a?'
p211
tp212
Rp213
aI0
aI0
aI0
aI0
aI0
aI0
ag3
(g7
S'q\xc2t\xb1\x99"\x96?'
p214
tp215
Rp216
asS'assemblage-894-621'
p217
(lp218
g3
(g7
S'\xc0\xe5_e$5\x82?'
p219
tp220
Rp221
aI0
aI0
aI0
ag3
(g7
S'1N|\xbd\xd1\xb5\xd9?'
p222
tp223
Rp224
ag3
(g7
S'\xfc\xb7\xc4\xa6\xa5\xde\xb5?'
p225
tp226
Rp227
aI0
aI0
aI0
aI0
aI0
aI0
aI0
aI0
aI0
aI0
aI0
aI0
aI0
aI0
aI0
aI0
aI0
aI0
aI0
aI0
aI0
aI0
aI0
aI0
aI0
aI0
ag3
(g7
S'\xb0K\x9c\xa2\xc3g\x95?'
p228
tp229
Rp230
aI0
aI0
aI0
aI0
aI0
aI0
aI0
aI0
ag3
(g7
S'\xf1\x82\x96\x06\x01G\xd6?'
p231
tp232
Rp233
aI0
aI0
aI0
aI0
aI0
aI0
aI0
aI0
aI0
aI0
aI0
aI0
aI0
aI0
aI0
aI0
aI0
aI0
aI0
aI0
aI0
aI0
ag3
(g7
S'G\xfc\x1c\x88z\xd7\x9f?'
p234
tp235
Rp236
aI0
aI0
aI0
aI0
ag3
(g7
S'h.&\xc6\xc1g\xaa?'
p237
tp238
Rp239
ag3
(g7
S'\x15\xda&\xc5-x\x95?'
p240
tp241
Rp242
aI0
aI0
aI0
aI0
aI0
aI0
aI0
aI0
aI0
aI0
aI0
aI0
aI0
aI0
aI0
aI0
aI0
aI0
aI0
ag3
(g7
S'\xe2\xe1I\x19\xaf\x9d\xa9?'
p243
tp244
Rp245
asS'assemblage-725-249'
p246
(lp247
g3
(g7
S'\xec\x08\xfa\xecw+\xd2?'
p248
tp249
Rp250
aI0
aI0
aI0
aI0
aI0
aI0
aI0
aI0
aI0
aI0
aI0
aI0
aI0
aI0
aI0
aI0
ag3
(g7
S"J9\x0e'L\x1e\x86?"
p251
tp252
Rp253
aI0
aI0
aI0
aI0
aI0
ag3
(g7
S'\x91\x897\xf8\xb9\xb0\x8b?'
p254
tp255
Rp256
aI0
aI0
aI0
aI0
aI0
aI0
aI0
aI0
ag3
(g7
S'\xc2\xe3\xc1v\xc7\x05\x94?'
p257
tp258
Rp259
aI0
aI0
aI0
aI0
aI0
aI0
aI0
aI0
ag3
(g7
S'\x82\x06>\xe4\xb8\xc0\xb8?'
p260
tp261
Rp262
aI0
aI0
aI0
aI0
aI0
aI0
aI0
aI0
ag3
(g7
S'#\xcd\xdc!\x97\xf9\xa2?'
p263
tp264
Rp265
aI0
aI0
aI0
aI0
aI0
aI0
aI0
aI0
aI0
aI0
aI0
aI0
aI0
aI0
aI0
aI0
aI0
aI0
aI0
ag3
(g7
S'I\x07\x91\x03\xd7\xf4\xc2?'
p266
tp267
Rp268
aI0
aI0
aI0
aI0
aI0
aI0
aI0
aI0
aI0
aI0
aI0
aI0
ag3
(g7
S'F\xebd.\x19\x8b\xd7?'
p269
tp270
Rp271
aI0
aI0
ag3
(g7
S'\x87\xb7\xd4\x0f\x05w\x99?'
p272
tp273
Rp274
aI0
aI0
aI0
ag3
(g7
S'\xe0)6\xb0\x92\xab\x93?'
p275
tp276
Rp277
asS'assemblage-393-879'
p278
(lp279
I0
aI0
aI0
aI0
aI0
aI0
aI0
aI0
aI0
aI0
aI0
aI0
aI0
aI0
aI0
aI0
aI0
aI0
aI0
aI0
aI0
aI0
aI0
aI0
aI0
aI0
aI0
aI0
aI0
aI0
aI0
aI0
aI0
aI0
aI0
aI0
aI0
ag3
(g7
S'\xaf\x86\x11Oa\x88\xa4?'
p280
tp281
Rp282
aI0
aI0
aI0
aI0
aI0
aI0
ag3
(g7
S'&+\xff\xa7BI\xa5?'
p283
tp284
Rp285
aI0
ag3
(g7
S'\xd1PrKR\xac\x95?'
p286
tp287
Rp288
aI0
ag3
(g7
S'\xe9Ek\x0fO\xd5\xe2?'
p289
tp290
Rp291
aI0
aI0
aI0
aI0
aI0
aI0
aI0
aI0
aI0
aI0
aI0
aI0
aI0
aI0
aI0
aI0
aI0
aI0
aI0
aI0
aI0
aI0
aI0
aI0
aI0
aI0
aI0
aI0
aI0
aI0
aI0
aI0
ag3
(g7
S'\xe8\x8eo\xd6\xaec\xd0?'
p292
tp293
Rp294
ag3
(g7
S'\x9bW\x99m/(\x83?'
p295
tp296
Rp297
ag3
(g7
S'2\x90\x10\xe1X\xe2\x9b?'
p298
tp299
Rp300
aI0
aI0
aI0
aI0
aI0
aI0
ag3
(g7
S'S\x15\xd0\x04\xa0k\xa0?'
p301
tp302
Rp303
asS'assemblage-448-522'
p304
(lp305
g3
(g7
S'\xb8\xeeC)\xc7\x00\xc3?'
p306
tp307
Rp308
aI0
aI0
aI0
aI0
aI0
aI0
aI0
aI0
aI0
aI0
aI0
aI0
aI0
aI0
aI0
aI0
aI0
aI0
aI0
aI0
aI0
aI0
aI0
aI0
aI0
ag3
(g7
S'/  \xc8t7\xb1?'
p309
tp310
Rp311
aI0
aI0
aI0
aI0
aI0
aI0
aI0
aI0
aI0
aI0
aI0
aI0
aI0
ag3
(g7
S'X\x07\xb1\xe1\xc5\x12\x91?'
p312
tp313
Rp314
aI0
aI0
aI0
aI0
aI0
aI0
aI0
ag3
(g7
S'\xdc*\xd8v\xb1o\xc0?'
p315
tp316
Rp317
aI0
aI0
aI0
aI0
aI0
ag3
(g7
S'6\x86w\x93^\x1a\xc4?'
p318
tp319
Rp320
aI0
aI0
ag3
(g7
S'\xeb\x8e])R\xfb\x97?'
p321
tp322
Rp323
aI0
aI0
aI0
aI0
aI0
aI0
aI0
aI0
aI0
aI0
aI0
aI0
aI0
aI0
aI0
aI0
aI0
aI0
aI0
aI0
ag3
(g7
S'\x15N\xa9e4\x13{?'
p324
tp325
Rp326
aI0
aI0
aI0
aI0
ag3
(g7
S'\x7f\nc\xe3\xd7"\xd9?'
p327
tp328
Rp329
aI0
aI0
aI0
aI0
ag3
(g7
S'-~\x11\xc0\xed\xf1\xae?'
p330
tp331
Rp332
aI0
ag3
(g7
S'_w\x9b\x9fu\x08\x96?'
p333
tp334
Rp335
asS'assemblage-625-387'
p336
(lp337
g3
(g7
S'l\x1bi\xf1\x98\xf8\xdc?'
p338
tp339
Rp340
aI0
aI0
aI0
aI0
aI0
aI0
aI0
aI0
aI0
aI0
aI0
aI0
aI0
aI0
aI0
aI0
aI0
aI0
aI0
aI0
aI0
aI0
aI0
aI0
aI0
aI0
aI0
aI0
aI0
aI0
aI0
aI0
aI0
aI0
aI0
aI0
aI0
aI0
aI0
aI0
aI0
aI0
aI0
aI0
aI0
aI0
aI0
aI0
aI0
aI0
aI0
aI0
aI0
ag3
(g7
S'\x04f\x85E\xbc\xa4\xdc?'
p341
tp342
Rp343
aI0
aI0
aI0
aI0
ag3
(g7
S'V\x1a\xb2\xe9\xf7r\x87?'
p344
tp345
Rp346
aI0
aI0
aI0
aI0
aI0
aI0
ag3
(g7
S'\x02\xc4\x04\xd1zM\x90?'
p347
tp348
Rp349
aI0
aI0
aI0
aI0
aI0
aI0
aI0
aI0
aI0
aI0
aI0
aI0
aI0
aI0
aI0
aI0
ag3
(g7
S'\x06g \xf8\x11\x04\xa9?'
p350
tp351
Rp352
aI0
aI0
aI0
aI0
aI0
aI0
ag3
(g7
S'\xf1a\xd9\x1e\xf9d\xa3?'
p353
tp354
Rp355
asS'assemblage-879-628'
p356
(lp357
g3
(g7
S'\x18O\xe5\xfc\xb6\xa0\xcc?'
p358
tp359
Rp360
aI0
aI0
aI0
aI0
aI0
ag3
(g7
S'\xda\x91\xa5\x95\xd2\xec\x93?'
p361
tp362
Rp363
aI0
aI0
aI0
aI0
aI0
aI0
aI0
aI0
aI0
aI0
ag3
(g7
S'\x87\x1a\xb0\x98\x92\x85\x9e?'
p364
tp365
Rp366
aI0
aI0
aI0
aI0
aI0
aI0
aI0
aI0
aI0
aI0
aI0
aI0
aI0
aI0
ag3
(g7
S'zE\x7f\xb2~\xb2\x91?'
p367
tp368
Rp369
aI0
aI0
aI0
aI0
aI0
aI0
aI0
aI0
ag3
(g7
S'\xbf\xab\xcb\xef\xa7\xe5\xbd?'
p370
tp371
Rp372
aI0
aI0
aI0
aI0
aI0
aI0
aI0
aI0
ag3
(g7
S'\x06\x08\xc3V*\xbf\xa0?'
p373
tp374
Rp375
aI0
aI0
aI0
aI0
aI0
aI0
aI0
aI0
aI0
aI0
aI0
aI0
aI0
aI0
aI0
aI0
aI0
aI0
aI0
ag3
(g7
S'\xdd\x9aO&\xae\x9d\xc2?'
p376
tp377
Rp378
aI0
aI0
aI0
aI0
aI0
aI0
aI0
aI0
aI0
aI0
aI0
aI0
ag3
(g7
S'\xdf\x9e\xa2\xc0d<\xd8?'
p379
tp380
Rp381
aI0
aI0
ag3
(g7
S'\xfc\xcfg \x12\x0e\x91?'
p382
tp383
Rp384
aI0
aI0
aI0
ag3
(g7
S'\x9f\xf9\x80\x93\xc0\xc3\xa5?'
p385
tp386
Rp387
asS'assemblage-874-244'
p388
(lp389
I0
aI0
aI0
aI0
aI0
aI0
aI0
aI0
aI0
aI0
aI0
aI0
ag3
(g7
S'\xd5\\\xe2`\x1aK\x98?'
p390
tp391
Rp392
aI0
aI0
aI0
aI0
aI0
aI0
aI0
aI0
aI0
aI0
aI0
aI0
aI0
aI0
aI0
aI0
aI0
aI0
aI0
aI0
aI0
aI0
aI0
aI0
aI0
aI0
aI0
ag3
(g7
S'\xa6\xc4\xf4Yo\xf5\x91?'
p393
tp394
Rp395
aI0
aI0
aI0
aI0
aI0
aI0
ag3
(g7
S'\xe2\xf8roE\xd9\xaa?'
p396
tp397
Rp398
ag3
(g7
S'\x91\x11L\xb4&\x98\xe1?'
p399
tp400
Rp401
aI0
aI0
aI0
aI0
aI0
ag3
(g7
S'62\xdf\xbf\x8f?\xc1?'
p402
tp403
Rp404
aI0
aI0
aI0
aI0
ag3
(g7
S'\x01i\xf5\xc3\xf0\x06\xb7?'
p405
tp406
Rp407
ag3
(g7
S'\x06\xb1\x0cbe>\x91?'
p408
tp409
Rp410
aI0
aI0
aI0
aI0
aI0
ag3
(g7
S'B\xbc\xa1k\xb9F\xac?'
p411
tp412
Rp413
aI0
aI0
aI0
aI0
aI0
aI0
aI0
aI0
aI0
aI0
aI0
ag3
(g7
S'oM\x95\xbe\xad\xcb\x8a?'
p414
tp415
Rp416
aI0
aI0
aI0
aI0
ag3
(g7
S'\x07N\x1e\xeb\x82\x81\xa9?'
p417
tp418
Rp419
aI0
aI0
aI0
aI0
aI0
aI0
ag3
(g7
S'2==\xb0\xdb\x15\x94?'
p420
tp421
Rp422
asS'assemblage-415-539'
p423
(lp424
g3
(g7
S'\xbf\xf0\xc5\xfb\xfd\x14\xec?'
p425
tp426
Rp427
aI0
aI0
aI0
aI0
aI0
aI0
aI0
aI0
aI0
aI0
aI0
aI0
aI0
aI0
aI0
aI0
aI0
aI0
aI0
aI0
aI0
aI0
aI0
aI0
aI0
aI0
aI0
aI0
aI0
aI0
aI0
aI0
aI0
aI0
aI0
aI0
aI0
aI0
aI0
aI0
aI0
aI0
aI0
aI0
aI0
aI0
aI0
aI0
aI0
aI0
aI0
aI0
aI0
ag3
(g7
S'\x93\x85\x91t\xb7=\xa3?'
p428
tp429
Rp430
aI0
aI0
aI0
aI0
aI0
aI0
aI0
aI0
aI0
aI0
aI0
aI0
aI0
aI0
aI0
aI0
aI0
aI0
aI0
aI0
aI0
aI0
aI0
aI0
ag3
(g7
S'\x00\xd2V\xee\x9dt\xa8?'
p431
tp432
Rp433
aI0
aI0
aI0
ag3
(g7
S'l\x94\xce-\x1b\xf9{?'
p434
tp435
Rp436
aI0
aI0
aI0
aI0
aI0
aI0
ag3
(g7
S'^\xeag\x1bc\xc4\xa3?'
p437
tp438
Rp439
asS'assemblage-324-470'
p440
(lp441
I0
aI0
aI0
aI0
ag3
(g7
S'\x1c\xc0e}\r\x15\xe2?'
p442
tp443
Rp444
aI0
aI0
aI0
aI0
aI0
aI0
aI0
aI0
aI0
aI0
aI0
aI0
aI0
aI0
aI0
aI0
aI0
aI0
aI0
aI0
aI0
aI0
aI0
aI0
aI0
aI0
ag3
(g7
S'\xe2\xca\n\xe6\x96\xed\x94?'
p445
tp446
Rp447
ag3
(g7
S'8\x1d\xcb\x14\x00\x8a\xb8?'
p448
tp449
Rp450
aI0
aI0
aI0
aI0
aI0
aI0
aI0
aI0
aI0
aI0
aI0
aI0
aI0
aI0
aI0
aI0
aI0
aI0
aI0
aI0
aI0
aI0
aI0
ag3
(g7
S'\x98\xdbd\x99!\x8f\x93?'
p451
tp452
Rp453
aI0
aI0
aI0
aI0
aI0
aI0
aI0
aI0
aI0
aI0
aI0
aI0
aI0
aI0
aI0
aI0
aI0
aI0
aI0
ag3
(g7
S'\x7f=l\x8f\x1c\x12\x96?'
p454
tp455
Rp456
aI0
aI0
aI0
aI0
aI0
aI0
ag3
(g7
S'\xc6.}j#\xa0\xd0?'
p457
tp458
Rp459
aI0
aI0
aI0
aI0
aI0
aI0
ag3
(g7
S'\xe97\xa5\xe4\xe6H\xa1?'
p460
tp461
Rp462
asS'assemblage-598-393'
p463
(lp464
g3
(g7
S'Ec\x00#oB\xeb?'
p465
tp466
Rp467
aI0
aI0
aI0
aI0
aI0
aI0
aI0
aI0
aI0
aI0
aI0
aI0
aI0
aI0
aI0
aI0
aI0
aI0
aI0
aI0
aI0
aI0
aI0
aI0
aI0
aI0
aI0
aI0
aI0
aI0
aI0
aI0
aI0
aI0
aI0
aI0
aI0
aI0
aI0
aI0
aI0
aI0
aI0
aI0
aI0
aI0
aI0
aI0
aI0
aI0
aI0
aI0
aI0
ag3
(g7
S'\xba\xbd\x03\xf6\x9d\xdf\xab?'
p468
tp469
Rp470
aI0
aI0
aI0
aI0
aI0
aI0
aI0
aI0
aI0
aI0
aI0
aI0
aI0
aI0
aI0
aI0
aI0
aI0
aI0
aI0
aI0
aI0
aI0
aI0
ag3
(g7
S'C:\xa8kB\xaa\xb0?'
p471
tp472
Rp473
aI0
aI0
aI0
ag3
(g7
S'\xc5i\xfd\x15\xd3\x9b\x86?'
p474
tp475
Rp476
aI0
aI0
aI0
aI0
aI0
aI0
ag3
(g7
S'kN\x0e\xf4\xd0\x07\x9c?'
p477
tp478
Rp479
asS'assemblage-303-472'
p480
(lp481
g3
(g7
S'\xf9Qw+\xd9\xc1\x87?'
p482
tp483
Rp484
aI0
aI0
aI0
ag3
(g7
S'0\x90\xd8\xae/A\xb8?'
p485
tp486
Rp487
aI0
aI0
aI0
aI0
aI0
aI0
aI0
aI0
aI0
ag3
(g7
S'n\xba\xc9\x1a-\xacd?'
p488
tp489
Rp490
aI0
aI0
aI0
aI0
aI0
aI0
aI0
aI0
aI0
aI0
aI0
aI0
aI0
aI0
aI0
aI0
aI0
ag3
(g7
S'\x8d\xef2ql\xb9\xea?'
p491
tp492
Rp493
aI0
aI0
aI0
ag3
(g7
S'q\x84\xfd\xc9\x01\xc2|?'
p494
tp495
Rp496
aI0
aI0
aI0
aI0
aI0
aI0
aI0
aI0
aI0
aI0
aI0
aI0
aI0
aI0
aI0
aI0
aI0
aI0
aI0
aI0
aI0
aI0
aI0
aI0
aI0
aI0
aI0
aI0
aI0
aI0
aI0
aI0
aI0
aI0
aI0
aI0
aI0
aI0
aI0
aI0
aI0
aI0
aI0
aI0
aI0
aI0
ag3
(g7
S'\xc0@\xb6[B\xe3\x85?'
p497
tp498
Rp499
aI0
aI0
aI0
aI0
aI0
aI0
ag3
(g7
S'[{\xbb\x98\xeaC\xa9?'
p500
tp501
Rp502
asS'assemblage-234-894'
p503
(lp504
g3
(g7
S'\x05\xb5\xe8\x04\x93\xb7\xeb?'
p505
tp506
Rp507
aI0
aI0
aI0
aI0
aI0
aI0
aI0
aI0
aI0
aI0
aI0
aI0
aI0
aI0
aI0
aI0
aI0
aI0
aI0
aI0
aI0
aI0
aI0
aI0
aI0
aI0
aI0
aI0
aI0
aI0
aI0
aI0
aI0
aI0
aI0
aI0
aI0
aI0
aI0
aI0
aI0
aI0
aI0
aI0
aI0
aI0
aI0
aI0
aI0
aI0
aI0
aI0
aI0
ag3
(g7
S'\xbbb[\xc0\x80[\xa3?'
p508
tp509
Rp510
aI0
aI0
aI0
aI0
aI0
aI0
aI0
aI0
aI0
aI0
aI0
aI0
aI0
aI0
aI0
aI0
aI0
aI0
aI0
aI0
aI0
aI0
aI0
aI0
ag3
(g7
S'\xbb\x933\xb8\xba\xce\xa7?'
p511
tp512
Rp513
aI0
aI0
aI0
ag3
(g7
S' \xdd\x89\x98/\xac\x97?'
p514
tp515
Rp516
aI0
aI0
aI0
aI0
aI0
aI0
ag3
(g7
S'(\x8c\xb6f\xfeR\xa2?'
p517
tp518
Rp519
as.