(dp0
S'verbose'
p1
I01
sS'occurrences'
p2
NsS'threshold'
p3
NsS'mst'
p4
NsS'bootstrapCI'
p5
I1
sS'continuityroot'
p6
NsS'atlas'
p7
I1
sS'continuity'
p8
NsS'spatialsignificance'
p9
S'1'
p10
sS'graphroot'
p11
NsS'individualfileoutput'
p12
NsS'spatialbootstrapN'
p13
S'100'
p14
sS'debug'
p15
S'0'
p16
sS'noheader'
p17
NsS'minmaxbycount'
p18
NsS'inputfile'
p19
S'sampled-data/b6dcbbd0-d277-11e4-9032-b8f6b1154c9b-0-sampled-0.3.txt'
p20
sS'occurrenceseriation'
p21
NsS'occurrence'
p22
NsS'frequency'
p23
I1
sS'stats'
p24
NsS'shapefile'
p25
NsS'noscreen'
p26
I1
sS'excel'
p27
I1
sS'filtered'
p28
I1
sS'pairwisefile'
p29
NsS'allsolutions'
p30
NsS'screen'
p31
NsS'largestonly'
p32
NsS'outputdirectory'
p33
S'seriation-results/b6dcbbd0-d277-11e4-9032-b8f6b1154c9b-0-sampled-0.3'
p34
sS'bootstrapSignificance'
p35
F0.95
sS'frequencyseriation'
p36
NsS'xyfile'
p37
S'xyfiles/seriationct-4XY.txt'
p38
sS'graphs'
p39
g16
sS'pdf'
p40
Ns.