(dp0
S'assemblage-17-4'
p1
(lp2
F0.00019149751053236308
aF0.0
aF0.2862887782458828
aF0.0
aF0.0
aF0.7135197242435848
aF0.0
aF0.0
aF0.0
aF0.0
aF0.0
aF0.0
aF0.0
aF0.0
asS'assemblage-26-45'
p3
(lp4
F1.0
aF0.0
aF0.0
aF0.0
aF0.0
aF0.0
aF0.0
aF0.0
aF0.0
aF0.0
aF0.0
aF0.0
aF0.0
aF0.0
asS'assemblage-43-9'
p5
(lp6
F0.9999756305592786
aF0.0
aF0.0
aF0.0
aF0.0
aF0.0
aF0.0
aF6.092360180333862e-06
aF0.0
aF1.2184720360667723e-05
aF0.0
aF0.0
aF6.092360180333862e-06
aF0.0
asS'assemblage-63-12'
p7
(lp8
F0.14917656070471083
aF0.0
aF0.8230563002680965
aF0.0
aF0.0
aF0.027767139027192647
aF0.0
aF0.0
aF0.0
aF0.0
aF0.0
aF0.0
aF0.0
aF0.0
asS'assemblage-73-41'
p9
(lp10
F1.0
aF0.0
aF0.0
aF0.0
aF0.0
aF0.0
aF0.0
aF0.0
aF0.0
aF0.0
aF0.0
aF0.0
aF0.0
aF0.0
asS'assemblage-41-8'
p11
(lp12
F0.0
aF0.0
aF0.2782458828035236
aF0.0
aF0.00019149751053236308
aF0.721562619685944
aF0.0
aF0.0
aF0.0
aF0.0
aF0.0
aF0.0
aF0.0
aF0.0
asS'assemblage-40-68'
p13
(lp14
F0.9992992248817822
aF6.093696680154049e-06
aF0.0
aF0.0006946814215375615
aF0.0
aF0.0
aF0.0
aF0.0
aF0.0
aF0.0
aF0.0
aF0.0
aF0.0
aF0.0
asS'assemblage-27-49'
p15
(lp16
F0.08004595940252776
aF0.0
aF0.10091918805055534
aF0.0
aF0.6127920337035618
aF0.20624281884335505
aF0.0
aF0.0
aF0.0
aF0.0
aF0.0
aF0.0
aF0.0
aF0.0
asS'assemblage-3-10'
p17
(lp18
F0.9999634969885015
aF0.0
aF0.0
aF0.0
aF0.0
aF0.0
aF3.650301149844862e-05
aF0.0
aF0.0
aF0.0
aF0.0
aF0.0
aF0.0
aF0.0
as.