(dp0
S'assemblage-17-4'
p1
(lp2
F0.0
aF0.0
aF0.0
aF0.0
aF0.0
aF0.0
aF0.0
aF0.0
aF0.0
aF0.0
aF0.0
aF0.0
aF0.0006558810668998689
aF0.0
aF0.0
aF0.0
aF0.0
aF0.0
aF0.0
aF0.0
aF0.0
aF0.0
aF0.0
aF0.0
aF0.0
aF0.003060778312199388
aF0.1254919108001749
aF0.0
aF0.0
aF0.8624836029733275
aF0.0
aF0.0
aF0.0
aF0.0
aF0.0
aF0.0
aF0.0
aF0.0
aF0.0
aF0.0
aF0.0
aF0.0
aF0.008307826847398338
asS'assemblage-26-45'
p3
(lp4
F0.0
aF0.0
aF0.0
aF0.0
aF0.0
aF0.0
aF0.0
aF0.0
aF0.0
aF0.0
aF0.10809484873262469
aF0.0
aF0.0
aF0.0
aF0.0
aF0.0
aF0.0
aF0.0
aF0.0
aF0.00021804306350504225
aF0.0
aF0.0
aF1.2113503528057902e-05
aF0.0
aF0.0
aF0.0
aF0.0
aF0.0
aF0.0
aF0.8916689379485782
aF0.0
aF0.0
aF0.0
aF0.0
aF0.0
aF0.0
aF6.056751764028951e-06
aF0.0
aF0.0
aF0.0
aF0.0
aF0.0
aF0.0
asS'assemblage-14-31'
p5
(lp6
F0.0
aF0.0
aF0.0
aF6.056751764028951e-06
aF0.0
aF0.0
aF0.0
aF0.0
aF0.0
aF1.8170255292086855e-05
aF0.1044365706671512
aF1.2113503528057902e-05
aF0.0
aF0.0
aF0.0
aF0.0
aF0.0
aF0.0
aF0.0
aF0.00012719178704460798
aF0.0
aF0.0
aF0.0
aF0.0
aF0.0
aF0.0
aF0.0
aF0.0
aF0.0
aF0.89539989703522
aF0.0
aF0.0
aF0.0
aF0.0
aF0.0
aF0.0
aF0.0
aF0.0
aF0.0
aF0.0
aF0.0
aF0.0
aF0.0
asS'assemblage-73-8'
p7
(lp8
F0.0
aF0.0
aF0.0
aF0.0
aF0.0
aF0.0
aF0.0
aF0.0
aF0.0
aF0.0
aF0.0
aF0.0
aF0.0
aF0.04678618277219064
aF0.0
aF0.0
aF0.0
aF0.0
aF0.0
aF0.0
aF0.0
aF0.0
aF0.0
aF0.0
aF0.0
aF0.7352426759947529
aF0.0
aF0.0
aF0.0
aF0.08766943594228246
aF0.0
aF0.0
aF0.0
aF0.0
aF0.0
aF0.0
aF0.0
aF0.0
aF0.0
aF0.0
aF0.0006558810668998689
aF0.0
aF0.12964582422387408
asS'assemblage-53-34'
p9
(lp10
F0.0
aF0.0
aF0.0
aF0.0
aF0.0019282637083684205
aF0.0
aF6.102100342938039e-06
aF0.0
aF0.0
aF0.0
aF0.0
aF0.0
aF0.0
aF0.0
aF0.0003844323216050965
aF0.0
aF0.0
aF0.0
aF0.0020564078155701194
aF0.0
aF0.0
aF0.0
aF0.0
aF0.0
aF0.0
aF0.0
aF0.0
aF0.0
aF0.0
aF0.9955881814520557
aF0.0
aF1.8306301028814117e-05
aF0.0
aF0.0
aF0.0
aF0.0
aF0.0
aF0.0
aF0.0
aF6.102100342938039e-06
aF0.0
aF1.2204200685876078e-05
aF0.0
asS'assemblage-41-8'
p11
(lp12
F0.0
aF0.0
aF0.0
aF0.0
aF0.0
aF0.0
aF0.0
aF0.0
aF0.0
aF0.0
aF0.0
aF0.0
aF0.00021862702229995628
aF0.0
aF0.0
aF0.0
aF0.0
aF0.0
aF0.0
aF0.0
aF0.0
aF0.0
aF0.0
aF0.0
aF0.0
aF0.0026235242675994755
aF0.12636641888937472
aF0.0
aF0.0
aF0.8655443812855269
aF0.0
aF0.0
aF0.0
aF0.0
aF0.0
aF0.0
aF0.0
aF0.0
aF0.0
aF0.0
aF0.0
aF0.0
aF0.005247048535198951
asS'assemblage-40-68'
p13
(lp14
F0.0
aF0.0
aF0.0
aF0.0
aF0.0012814410720169882
aF0.0
aF0.0
aF0.0
aF6.102100342938039e-06
aF0.0
aF0.0
aF0.0
aF0.0
aF0.0
aF0.00036612602057628236
aF0.0
aF0.0
aF0.0
aF0.0013790746775039968
aF0.0
aF0.0
aF0.0
aF0.0
aF6.102100342938039e-06
aF0.0
aF0.0
aF0.0
aF0.0
aF0.0
aF0.9969245414271592
aF0.0
aF0.0
aF0.0
aF6.102100342938039e-06
aF6.102100342938039e-06
aF0.0
aF0.0
aF0.0
aF0.0
aF0.0
aF0.0
aF2.4408401371752157e-05
aF0.0
asS'assemblage-27-49'
p15
(lp16
F0.0
aF0.0
aF0.0
aF0.0
aF0.0
aF0.0
aF0.0
aF0.0
aF0.0
aF0.0
aF0.0
aF0.0
aF0.0
aF0.04285089637079143
aF0.0
aF0.0
aF0.0
aF0.0
aF0.0
aF0.0
aF0.0
aF0.0
aF0.0
aF0.0
aF0.0
aF0.7341495408832531
aF0.0
aF0.0
aF0.0
aF0.08460865763008307
aF0.0
aF0.0
aF0.0
aF0.0
aF0.0
aF0.0
aF0.0
aF0.0
aF0.0
aF0.0
aF0.003279405334499344
aF0.0
aF0.135111499781373
asS'assemblage-15-46'
p17
(lp18
F0.0
aF0.0
aF0.0
aF0.0
aF0.0
aF0.0
aF0.0
aF0.0
aF0.0
aF0.0
aF0.0
aF0.0
aF0.0
aF0.01355487538259729
aF0.0
aF0.0
aF0.0
aF0.0
aF0.0
aF0.0
aF0.0
aF0.0
aF0.0
aF0.0
aF0.0
aF0.4774814167031045
aF0.0017490161783996502
aF0.0
aF0.0
aF0.36095321381722784
aF0.0
aF0.0
aF0.0
aF0.0
aF0.0
aF0.0
aF0.0
aF0.0
aF0.0
aF0.0
aF0.0
aF0.0
aF0.14626147791867075
as.