ccopy_reg
_reconstructor
p0
(cnetworkx.classes.graph
Graph
p1
c__builtin__
object
p2
Ntp3
Rp4
(dp5
S'node'
p6
(dp7
S'assemblage-17-4'
p8
(dp9
S'name'
p10
g8
ssS'assemblage-26-45'
p11
(dp12
g10
g11
ssS'assemblage-43-9'
p13
(dp14
g10
g13
ssS'assemblage-63-12'
p15
(dp16
g10
g15
ssS'assemblage-73-41'
p17
(dp18
g10
g17
ssS'assemblage-41-8'
p19
(dp20
g10
g19
ssS'assemblage-40-68'
p21
(dp22
g10
g21
ssS'assemblage-27-49'
p23
(dp24
g10
g23
ssS'assemblage-3-10'
p25
(dp26
g10
g25
sssS'graph'
p27
(dp28
S'is_directed'
p29
I00
ssS'edge'
p30
(dp31
g8
(dp32
g11
(dp33
S'weight'
p34
S'UMDMMDMMMMMMMM'
p35
ssg13
(dp36
g34
S'UMDMMDMUMUMMUM'
p37
ssg15
(dp38
g34
S'UMUMMDMMMMMMMM'
p39
ssg17
(dp40
g34
S'UMDMMDMMMMMMMM'
p41
ssg19
(dp42
g34
S'DMDMUUMMMMMMMM'
p43
ssg21
(dp44
g34
S'UUDUMDMMMMMMMM'
p45
ssg23
(dp46
g34
S'UMDMUDMMMMMMMM'
p47
ssg25
(dp48
g34
S'UMDMMDUMMMMMMM'
p49
sssg11
(dp50
g8
g33
sg13
(dp51
g34
S'DMMMMMMUMUMMUM'
p52
ssg15
(dp53
g34
S'DMUMMUMMMMMMMM'
p54
ssg17
(dp55
g34
S'MMMMMMMMMMMMMM'
p56
ssg19
(dp57
g34
S'DMUMUUMMMMMMMM'
p58
ssg21
(dp59
g34
S'DUMUMMMMMMMMMM'
p60
ssg23
(dp61
g34
S'DMUMUUMMMMMMMM'
p62
ssg25
(dp63
g34
S'DMMMMMUMMMMMMM'
p64
sssg13
(dp65
g8
g36
sg11
g51
sg15
(dp66
g34
S'DMUMMUMDMDMMDM'
p67
ssg17
(dp68
g34
S'UMMMMMMDMDMMDM'
p69
ssg19
(dp70
g34
S'DMUMUUMDMDMMDM'
p71
ssg21
(dp72
g34
S'DUMUMMMDMDMMDM'
p73
ssg23
(dp74
g34
S'DMUMUUMDMDMMDM'
p75
ssg25
(dp76
g34
S'DMMMMMUDMDMMDM'
p77
sssg15
(dp78
g8
g38
sg11
g53
sg13
g66
sg17
(dp79
g34
S'UMDMMDMMMMMMMM'
p80
ssg19
(dp81
g34
S'DMDMUUMMMMMMMM'
p82
ssg21
(dp83
g34
S'UUDUMDMMMMMMMM'
p84
ssg23
(dp85
g34
S'DMDMUUMMMMMMMM'
p86
ssg25
(dp87
g34
S'UMDMMDUMMMMMMM'
p88
sssg17
(dp89
g8
g40
sg11
g55
sg13
g68
sg15
g79
sg19
(dp90
g34
S'DMUMUUMMMMMMMM'
p91
ssg21
(dp92
g34
S'DUMUMMMMMMMMMM'
p93
ssg23
(dp94
g34
S'DMUMUUMMMMMMMM'
p95
ssg25
(dp96
g34
S'DMMMMMUMMMMMMM'
p97
sssg19
(dp98
g8
g42
sg11
g57
sg13
g70
sg15
g81
sg17
g90
sg21
(dp99
g34
S'UUDUDDMMMMMMMM'
p100
ssg23
(dp101
g34
S'UMDMUDMMMMMMMM'
p102
ssg25
(dp103
g34
S'UMDMDDUMMMMMMM'
p104
sssg21
(dp105
g8
g44
sg11
g59
sg13
g72
sg15
g83
sg17
g92
sg19
g99
sg23
(dp106
g34
S'DDUDUUMMMMMMMM'
p107
ssg25
(dp108
g34
S'UDMDMMUMMMMMMM'
p109
sssg23
(dp110
g8
g46
sg11
g61
sg13
g74
sg15
g85
sg17
g94
sg19
g101
sg21
g106
sg25
(dp111
g34
S'UMDMDDUMMMMMMM'
p112
sssg25
(dp113
g8
g48
sg11
g63
sg13
g76
sg15
g87
sg17
g96
sg19
g103
sg21
g108
sg23
g111
sssS'adj'
p114
g31
sb.