(dp0
S'assemblage-17-4'
p1
(lp2
cnumpy.core.multiarray
scalar
p3
(cnumpy
dtype
p4
(S'f8'
p5
I0
I1
tp6
Rp7
(I3
S'<'
p8
NNNI-1
I-1
I0
tp9
bS'[\xbc\xf5\x88Ek1?'
p10
tp11
Rp12
aI0
ag3
(g7
S'\xf87\xfb\x13\xb0j\xd2?'
p13
tp14
Rp15
aI0
aI0
ag3
(g7
S'E\xc6\xb1<\x9d\xda\xe6?'
p16
tp17
Rp18
aI0
aI0
aI0
aI0
aI0
aI0
aI0
aI0
asS'assemblage-26-45'
p19
(lp20
g3
(g7
S'\x00\x00\x00\x00\x00\x00\xf0?'
p21
tp22
Rp23
aI0
aI0
aI0
aI0
aI0
aI0
aI0
aI0
aI0
aI0
aI0
aI0
aI0
asS'assemblage-43-9'
p24
(lp25
g3
(g7
S'\xc4i;\xb5\xcf\xff\xef?'
p26
tp27
Rp28
aI0
aI0
aI0
aI0
aI0
aI0
ag3
(g7
S'\x9a\xd2\xc3\xbe\xcd\x8b\xde>'
p29
tp30
Rp31
aI0
ag3
(g7
S'J\xcf\xc1\xd3\xaf\x82\xed>'
p32
tp33
Rp34
aI0
aI0
ag3
(g7
S'\\>\xf4j*]\xe0>'
p35
tp36
Rp37
aI0
asS'assemblage-63-12'
p38
(lp39
g3
(g7
S'\x1bWQ?rH\xc3?'
p40
tp41
Rp42
aI0
ag3
(g7
S'\x86\x0c.(e[\xea?'
p43
tp44
Rp45
aI0
aI0
ag3
(g7
S'\xc8\n\xfe\x8c\x89\xe7\x9c?'
p46
tp47
Rp48
aI0
aI0
aI0
aI0
aI0
aI0
aI0
aI0
asS'assemblage-73-41'
p49
(lp50
g3
(g7
S'\x00\x00\x00\x00\x00\x00\xf0?'
p51
tp52
Rp53
aI0
aI0
aI0
aI0
aI0
aI0
aI0
aI0
aI0
aI0
aI0
aI0
aI0
asS'assemblage-41-8'
p54
(lp55
I0
aI0
ag3
(g7
S'EO&\x8a\xf0\xd8\xd1?'
p56
tp57
Rp58
aI0
ag3
(g7
S'\x836P\x14\xe9\x12-?'
p59
tp60
Rp61
ag3
(g7
S"\xb9\xc6\\A\xce'\xe7?"
p62
tp63
Rp64
aI0
aI0
aI0
aI0
aI0
aI0
aI0
aI0
asS'assemblage-40-68'
p65
(lp66
g3
(g7
S'\xe5\x85\xa2\xb8r\xfa\xef?'
p67
tp68
Rp69
ag3
(g7
S'\x91\x10:LI\x8d\xdb>'
p70
tp71
Rp72
aI0
ag3
(g7
S'\xc7*\xf8>T\xbfF?'
p73
tp74
Rp75
aI0
aI0
aI0
aI0
aI0
aI0
aI0
aI0
aI0
aI0
asS'assemblage-27-49'
p76
(lp77
g3
(g7
S'C\x83\xc6Y\x19\xaa\xb4?'
p78
tp79
Rp80
aI0
ag3
(g7
S'\xccs\xb1\x9d\xd0\xfc\xb9?'
p81
tp82
Rp83
aI0
ag3
(g7
S'~\xa9\xe05\xe6\xa8\xe3?'
p84
tp85
Rp86
ag3
(g7
S'\xbeLr\xdcg\x92\xca?'
p87
tp88
Rp89
aI0
aI0
aI0
aI0
aI0
aI0
aI0
aI0
asS'assemblage-3-10'
p90
(lp91
g3
(g7
S'\x85D\xc0\xca\xb8\xff\xef?'
p92
tp93
Rp94
aI0
aI0
aI0
aI0
aI0
ag3
(g7
S'\xf0\xd4\xbf\xb6\xb3\x1c\x05?'
p95
tp96
Rp97
aI0
aI0
aI0
aI0
aI0
aI0
aI0
as.