(dp0
S'assemblage-17-4'
p1
(lp2
cnumpy.core.multiarray
scalar
p3
(cnumpy
dtype
p4
(S'f8'
p5
I0
I1
tp6
Rp7
(I3
S'<'
p8
NNNI-1
I-1
I0
tp9
bS'\\\xed\x9d\x80\xd9e(?'
p10
tp11
Rp12
aI0
ag3
(g7
S'xC5.\x19G\xd2?'
p13
tp14
Rp15
aI0
aI0
ag3
(g7
S'o\xd3\xec[\xca\xc8\xe6?'
p16
tp17
Rp18
aI0
aI0
aI0
aI0
aI0
aI0
aI0
aI0
asS'assemblage-26-45'
p19
(lp20
g3
(g7
S'\x00\x00\x00\x00\x00\x00\xf0?'
p21
tp22
Rp23
aI0
aI0
aI0
aI0
aI0
aI0
aI0
aI0
aI0
aI0
aI0
aI0
aI0
asS'assemblage-43-9'
p24
(lp25
g3
(g7
S'\x1ar\t?\xc6\xff\xef?'
p26
tp27
Rp28
aI0
aI0
aI0
aI0
aI0
aI0
ag3
(g7
S'D\xd8+\xafp\x8f\xd4>'
p29
tp30
Rp31
aI0
ag3
(g7
S'n|\xa0wxb\xe7>'
p32
tp33
Rp34
aI0
aI0
ag3
(g7
S'By\x9fm\x92w\xd6>'
p35
tp36
Rp37
aI0
asS'assemblage-63-12'
p38
(lp39
g3
(g7
S'u\xb0c\x04>\x08\xc3?'
p40
tp41
Rp42
aI0
ag3
(g7
S'^\x90FF\xcfI\xea?'
p43
tp44
Rp45
aI0
aI0
ag3
(g7
S'8\x1c\xc6\x86f\xec\x9b?'
p46
tp47
Rp48
aI0
aI0
aI0
aI0
aI0
aI0
aI0
aI0
asS'assemblage-73-41'
p49
(lp50
g3
(g7
S'\x00\x00\x00\x00\x00\x00\xf0?'
p51
tp52
Rp53
aI0
aI0
aI0
aI0
aI0
aI0
aI0
aI0
aI0
aI0
aI0
aI0
aI0
asS'assemblage-41-8'
p54
(lp55
I0
aI0
ag3
(g7
S'\x19\x84(]W\xad\xd1?'
p56
tp57
Rp58
aI0
ag3
(g7
S'\xb1c\x9b\x0e?\x1f$?'
p59
tp60
Rp61
ag3
(g7
S'\xdf\xa0y\xa8\xfa\x11\xe7?'
p62
tp63
Rp64
aI0
aI0
aI0
aI0
aI0
aI0
aI0
aI0
asS'assemblage-40-68'
p65
(lp66
g3
(g7
S'\xbf\xeb\xec!E\xfa\xef?'
p67
tp68
Rp69
ag3
(g7
S'%6xu~n\xd1>'
p70
tp71
Rp72
aI0
ag3
(g7
S'%\xec\xbd\xf3I\x07F?'
p73
tp74
Rp75
aI0
aI0
aI0
aI0
aI0
aI0
aI0
aI0
aI0
aI0
asS'assemblage-27-49'
p76
(lp77
g3
(g7
S'u\x0c\xdb\xd5cF\xb4?'
p78
tp79
Rp80
aI0
ag3
(g7
S'\xc6\xad\xfex\xb4\x86\xb9?'
p81
tp82
Rp83
aI0
ag3
(g7
S'r7"\x90\xbf\x90\xe3?'
p84
tp85
Rp86
ag3
(g7
S'\xdeVY\xe8\xffL\xca?'
p87
tp88
Rp89
aI0
aI0
aI0
aI0
aI0
aI0
aI0
aI0
asS'assemblage-3-10'
p90
(lp91
g3
(g7
S'\x01%1\x8d\xab\xff\xef?'
p92
tp93
Rp94
aI0
aI0
aI0
aI0
aI0
ag3
(g7
S'\xb2\xda\xde\xeeO\xcd\x01?'
p95
tp96
Rp97
aI0
aI0
aI0
aI0
aI0
aI0
aI0
as.