(dp0
S'assemblage-17-4'
p1
(lp2
S'assemblage-26-45'
p3
aS'assemblage-43-9'
p4
aS'assemblage-63-12'
p5
aS'assemblage-73-41'
p6
aS'assemblage-41-8'
p7
aS'assemblage-40-68'
p8
aS'assemblage-27-49'
p9
aS'assemblage-3-10'
p10
asg3
(lp11
g1
ag4
ag5
ag6
ag7
ag8
ag9
ag10
asg4
(lp12
g1
ag3
ag5
ag6
ag7
ag8
ag9
ag10
asg5
(lp13
g1
ag3
ag4
ag6
ag7
ag8
ag9
ag10
asg6
(lp14
g1
ag3
ag4
ag5
ag7
ag8
ag9
ag10
asg7
(lp15
g1
ag3
ag4
ag5
ag6
ag8
ag9
ag10
asg8
(lp16
g1
ag3
ag4
ag5
ag6
ag7
ag9
ag10
asg9
(lp17
g1
ag3
ag4
ag5
ag6
ag7
ag8
ag10
asg10
(lp18
g1
ag3
ag4
ag5
ag6
ag7
ag8
ag9
as.