ccopy_reg
_reconstructor
p0
(cnetworkx.classes.graph
Graph
p1
c__builtin__
object
p2
Ntp3
Rp4
(dp5
S'node'
p6
(dp7
S'assemblage-3-20'
p8
(dp9
S'name'
p10
g8
ssS'assemblage-49-5'
p11
(dp12
g10
g11
ssS'assemblage-12-27'
p13
(dp14
g10
g13
ssS'assemblage-14-15'
p15
(dp16
g10
g15
ssS'assemblage-18-23'
p17
(dp18
g10
g17
ssS'assemblage-17-9'
p19
(dp20
g10
g19
ssS'assemblage-7-20'
p21
(dp22
g10
g21
ssS'assemblage-10-17'
p23
(dp24
g10
g23
ssS'assemblage-18-9'
p25
(dp26
g10
g25
ssS'assemblage-28-25'
p27
(dp28
g10
g27
ssS'assemblage-47-22'
p29
(dp30
g10
g29
sssS'graph'
p31
(dp32
S'is_directed'
p33
I00
ssS'edge'
p34
(dp35
g8
(dp36
g11
(dp37
S'weight'
p38
S'MMMMMMUMMMMUMMMMMDMMMDMMMMMMMMMMUMMMMMMMMMMMMMMMMMMMDMMMMMMMMMMMMMMMMMMMMMMDMMMMMMMMUMMMMMMMMMDMMMMMMMMMMMMMMMMMMMMMMMMMMMMMMMMMMMMMMMMMMMMMMMMMMMMMMMMMMMMMMMMMMMMMMMMMMMMMMMMMMMMMMMMMMMUMMMMMMDMMMMMMMMMMMMMMMMMMMMMMMMMMDMMMMMMMMMMMMMMMMMMMMMMMMMMMMMMMMMMMM'
p39
ssg13
(dp40
g38
S'MMMMMMMMMMMMMMMMMDMMMDMMMMMMMMMMMMMMMMMMMMMMMMMMMMMMDMMMMMMMMMMMMMMMMMMMMMMDMMMMMMMMMMMMMMMMMMDMMMMMMMMMMMMMMMMMMMMMMMMMMMMMMMMMMUMMMMMMMMMMUMMMMMMMMMMMMMMMMMMMMMMMMMMMMMMMMMMMMMMMMMMMMMMMMMMMMDMMMMMMMMMMMMMMMMMMMMMMMMMMDMMMMMMMMMMMMMMMMMMMMMMMMMUMMMMMMMMMM'
p41
ssg15
(dp42
g38
S'MMMMMMMMMMMMMMMMMDMMMDMMMMMMMMMMUMMMMMMMMMMMMMMMMMMMDMMMMMMMMMMMMMMMMMMMMMMDMMMMMMMMMUMMMMMMMMDMMMMMMMMMMMMMMMMMMMMMMMMMMMMMMMMMMMMMMMMMMMMUMMMMMMUMMMMMMMMMMMMMMMMMMMMMMMMMMMMMMMMMMMMMMMMMMMMMMDMMMMMMMMMMMMMMMMMMMMMMMMMMDMMMUMMMMMMMMUMMMMMMMMMMMMMMMMMMMMMMM'
p43
ssg17
(dp44
g38
S'MMMMUMMMMMMMMMMMMDMMMDMMMMMMMMMMUMMMMMMMMMMMMMMMMMMMDMMMMMMMMMMMMMMMMMMMMMMDMMMMMMUMMMMMMMMMMMDMMMMUUMMMMMMMMMMMMMMMMMMMMMMMMMMMMMMUMMMMMMMMMMMMMMMMMMMMMMMMUMMMMMMMMMMMMMMMMMMUMMMMMMMMMMMMMMMMMDMMMMMMMMMMMMMMMMMMMMMMMMMMDMUMMMMMMMMMMMMMMMMMMMMMMMMMMMMMMMMMM'
p45
ssg19
(dp46
g38
S'MMMMMMMMMMMMMMMMMDMMMDMMMMMMMMMUUMMMMMMMMMMMMMMMMMMMDMMMMMMMMMMMMMMMMMMMMMMDMMMUMMMMMMMMMMMMMMDMMMMMMMMMMMMMMMMMMMMMMMMUMMMMMMMMMMMMMMMMMMMMMMMMMMMMMMMMMMMMMMMMMMMMMMMMMMMMMMMMMMMMMMMMUMMMMMMMMDMMMMMMMMMMMMMMMMMMMMMMMMMMDMMMMMMMMMMMMMMMMMMMMMMMMMMMMMMMMMMMM'
p47
ssg21
(dp48
g38
S'MMMMUMMMMMMMMMMMMDMMMDMMMMMMMUMMUMMMMMMMMMMMMMUMMMMMDMMMMUMMMMMMMMMMMMMMMMMDMMUMMMUMMMMMMMMMMMDMMMMUUMMMMMMUMMMMMMMMUMMMMMMMMMMMMMMMMMMMMMMMMMMMMMMMMMMMMMMMMMMMMMMMMMMMMMMMMMMMMMMMMMMMMMMMMMMMMDMMMMMMMMMMMMMMMMMMMMMMMMMMDMUMMMMMMMUMMMMMMMMMMMMMMMMMMMMMMMMMM'
p49
ssg23
(dp50
g38
S'MMMMMMMMUMMMMMMMMDMMMDMMMMMMMMMMUMMMMMMMMMMMMMUMMMMUDMMMMUMMMMMMMMMMMMMMMMMDMMUMMMUMMMMMMMMMMMDMMMMUUMMMMMMUMMMMMMMMMMMMMMMMMMMMMMMUMMMMMMMMMMMMMMMMMMMMMMMMMMMMMMMMMMMMMMMMMMMMMMMMMMMMMMMMMMMMMDMMMMMMMMMMMMMMMMMMMMMMMMMMDMUMMMMMMMMMMMMMMMMMMMMMMMMMMMMMMMMMM'
p51
ssg25
(dp52
g38
S'MMMMMMMMMUMMMMMMMDMMMDMMMMMMMMMMMMMMMMMMMMMMMMMMMMMMUMMMMMMMMMMMMMMMMMMMMMMDMMMMMMMMMMMMMMMMMMDMMMMMMMMMMMMMMMMMMMMMMMMMMMMUMMMMMMMMUMMMMMMMUMMMMMMMMMMMMMMMMMMMMMMMMMMMMMMUMMMMMMMMMMMMMMMUMMMMMDMMMMMMMMMMMMMMUMMMMMMMMMMMDMMMMMMMMMMMMMMMMMMMMMMMMMMMMMMMMMMMM'
p53
ssg27
(dp54
g38
S'MMMMMMMMMMMMUMMMMDMMMDMMMMMMMMMMUMMMMMMMMMUMMMMMMMMMDMMMMMMMMMMMMMMMMMMMUMMDMMMMMMMMMMMMMMMMMMDMMMMMMUMMMMMMMMMMMMMMMMMMMMMMMMMUMMMMMMMMMMMMMMMMMMMMMMMUMMMMMMMMMMMMMMMMMMMMMMMMMMMMMMMMMMMMMMMMMDMMMMMMMMMMMMMMMMMMMMMMMMMMDMMMMMMMMMMMMMMMMMMMMMMMMMMMMMMMMMMUM'
p55
ssg29
(dp56
g38
S'MMMMMUMMMMMMMMMMMDMMMDUMMMMMMMMMUMMMMMMMMMMMMMMMMMMMDMMMMMMMMMUMMMMMMMMMMMMDMMMMMMMMMUMUMMMMMMDMMMMMMMMMMMMMMMMMMMMMMMMMUMMMMMMMMMMMMMMMMMMUMMMMMMMMMMMMMMMMMMMMMMMMMMMMMMMMMUMMMMMMMMMMUMMMMMMMMDMMMMMMMMMMMMMMMMMMMMMMMMMMDMMMUMMMMMMMMMMMMMMMMMMMMUMUMMMMMMMMM'
p57
sssg11
(dp58
g8
g37
sg13
(dp59
g38
S'MMMMMMDMMMMDMMMMMMMMMMMMMMMMMMMMDMMMMMMMMMMMMMMMMMMMUMMMMMMMMMMMMMMMMMMMMMMMMMMMMMMMDMMMMMMMMMMMMMMMMMMMMMMMMMMMMMMMMMMMMMMMMMMMMUMMMMMMMMMMUMMMMMMMMMMMMMMMMMMMMMMMMMMMMMMMMMMMMMMMMMMMMMDMMMMMMMMMMMMMMMMMMMMMMMMMMMMMMMMMMMMMMMMMMMMMMMMMMMMMMMMMMMUMMMMMMMMMM'
p60
ssg15
(dp61
g38
S'MMMMMMDMMMMDMMMMMMMMMMMMMMMMMMMMUMMMMMMMMMMMMMMMMMMMDMMMMMMMMMMMMMMMMMMMMMMMMMMMMMMMDUMMMMMMMMMMMMMMMMMMMMMMMMMMMMMMMMMMMMMMMMMMMMMMMMMMMMMUMMMMMMUMMMMMMMMMMMMMMMMMMMMMMMMMMMMMMMMMMMMMMMDMMMMMMMMMMMMMMMMMMMMMMMMMMMMMMMMMMMMMUMMMMMMMMUMMMMMMMMMMMMMMMMMMMMMMM'
p62
ssg17
(dp63
g38
S'MMMMUMDMMMMDMMMMMMMMMMMMMMMMMMMMUMMMMMMMMMMMMMMMMMMMDMMMMMMMMMMMMMMMMMMMMMMMMMMMMMUMDMMMMMMMMMMMMMMUUMMMMMMMMMMMMMMMMMMMMMMMMMMMMMMUMMMMMMMMMMMMMMMMMMMMMMMMUMMMMMMMMMMMMMMMMMMUMMMMMMMMMMDMMMMMMMMMMMMMMMMMMMMMMMMMMMMMMMMMMMUMMMMMMMMMMMMMMMMMMMMMMMMMMMMMMMMMM'
p64
ssg19
(dp65
g38
S'MMMMMMDMMMMDMMMMMMMMMMMMMMMMMMMUUMMMMMMMMMMMMMMMMMMMDMMMMMMMMMMMMMMMMMMMMMMMMMMUMMMMDMMMMMMMMMMMMMMMMMMMMMMMMMMMMMMMMMMUMMMMMMMMMMMMMMMMMMMMMMMMMMMMMMMMMMMMMMMMMMMMMMMMMMMMMMMMMMMMMMMMUMDMMMMMMMMMMMMMMMMMMMMMMMMMMMMMMMMMMMMMMMMMMMMMMMMMMMMMMMMMMMMMMMMMMMMMM'
p66
ssg21
(dp67
g38
S'MMMMUMDMMMMDMMMMMMMMMMMMMMMMMUMMUMMMMMMMMMMMMMUMMMMMDMMMMUMMMMMMMMMMMMMMMMMMMMUMMMUMDMMMMMMMMMMMMMMUUMMMMMMUMMMMMMMMUMMMMMMMMMMMMMMMMMMMMMMMMMMMMMMMMMMMMMMMMMMMMMMMMMMMMMMMMMMMMMMMMMMMMMDMMMMMMMMMMMMMMMMMMMMMMMMMMMMMMMMMMMUMMMMMMMUMMMMMMMMMMMMMMMMMMMMMMMMMM'
p68
ssg23
(dp69
g38
S'MMMMMMDMUMMDMMMMMMMMMMMMMMMMMMMMUMMMMMMMMMMMMMUMMMMUDMMMMUMMMMMMMMMMMMMMMMMMMMUMMMUMDMMMMMMMMMMMMMMUUMMMMMMUMMMMMMMMMMMMMMMMMMMMMMMUMMMMMMMMMMMMMMMMMMMMMMMMMMMMMMMMMMMMMMMMMMMMMMMMMMMMMMDMMMMMMMMMMMMMMMMMMMMMMMMMMMMMMMMMMMUMMMMMMMMMMMMMMMMMMMMMMMMMMMMMMMMMM'
p70
ssg25
(dp71
g38
S'MMMMMMDMMUMDMMMMMMMMMMMMMMMMMMMMDMMMMMMMMMMMMMMMMMMMUMMMMMMMMMMMMMMMMMMMMMMMMMMMMMMMDMMMMMMMMMMMMMMMMMMMMMMMMMMMMMMMMMMMMMMUMMMMMMMMUMMMMMMMUMMMMMMMMMMMMMMMMMMMMMMMMMMMMMMUMMMMMMMMMMMMMMDUMMMMMMMMMMMMMMMMMMMMUMMMMMMMMMMMMMMMMMMMMMMMMMMMMMMMMMMMMMMMMMMMMMMMM'
p72
ssg27
(dp73
g38
S'MMMMMMDMMMMDUMMMMMMMMMMMMMMMMMMMUMMMMMMMMMUMMMMMMMMMDMMMMMMMMMMMMMMMMMMMUMMMMMMMMMMMDMMMMMMMMMMMMMMMMUMMMMMMMMMMMMMMMMMMMMMMMMMUMMMMMMMMMMMMMMMMMMMMMMMUMMMMMMMMMMMMMMMMMMMMMMMMMMMMMMMMMMDMMMMMMMMMMMMMMMMMMMMMMMMMMMMMMMMMMMMMMMMMMMMMMMMMMMMMMMMMMMMMMMMMMMMUM'
p74
ssg29
(dp75
g38
S'MMMMMUDMMMMDMMMMMMMMMMUMMMMMMMMMUMMMMMMMMMMMMMMMMMMMDMMMMMMMMMUMMMMMMMMMMMMMMMMMMMMMDUMUMMMMMMMMMMMMMMMMMMMMMMMMMMMMMMMMUMMMMMMMMMMMMMMMMMMUMMMMMMMMMMMMMMMMMMMMMMMMMMMMMMMMMUMMMMMMMMMMUMDMMMMMMMMMMMMMMMMMMMMMMMMMMMMMMMMMMMMMUMMMMMMMMMMMMMMMMMMMMUMUMMMMMMMMM'
p76
sssg13
(dp77
g8
g40
sg11
g59
sg15
(dp78
g38
S'MMMMMMMMMMMMMMMMMMMMMMMMMMMMMMMMUMMMMMMMMMMMMMMMMMMMDMMMMMMMMMMMMMMMMMMMMMMMMMMMMMMMMUMMMMMMMMMMMMMMMMMMMMMMMMMMMMMMMMMMMMMMMMMMMDMMMMMMMMMUDMMMMMUMMMMMMMMMMMMMMMMMMMMMMMMMMMMMMMMMMMMMMMMMMMMMMMMMMMMMMMMMMMMMMMMMMMMMMMMMMMMMUMMMMMMMMUMMMMMMMMMMMMDMMMMMMMMMM'
p79
ssg17
(dp80
g38
S'MMMMUMMMMMMMMMMMMMMMMMMMMMMMMMMMUMMMMMMMMMMMMMMMMMMMDMMMMMMMMMMMMMMMMMMMMMMMMMMMMMUMMMMMMMMMMMMMMMMUUMMMMMMMMMMMMMMMMMMMMMMMMMMMMDMUMMMMMMMMDMMMMMMMMMMMMMMMUMMMMMMMMMMMMMMMMMMUMMMMMMMMMMMMMMMMMMMMMMMMMMMMMMMMMMMMMMMMMMMMMMUMMMMMMMMMMMMMMMMMMMMMMMDMMMMMMMMMM'
p81
ssg21
(dp82
g38
S'MMMMUMMMMMMMMMMMMMMMMMMMMMMMMUMMUMMMMMMMMMMMMMUMMMMMDMMMMUMMMMMMMMMMMMMMMMMMMMUMMMUMMMMMMMMMMMMMMMMUUMMMMMMUMMMMMMMMUMMMMMMMMMMMMDMMMMMMMMMMDMMMMMMMMMMMMMMMMMMMMMMMMMMMMMMMMMMMMMMMMMMMMMMMMMMMMMMMMMMMMMMMMMMMMMMMMMMMMMMMMMUMMMMMMMUMMMMMMMMMMMMMMMDMMMMMMMMMM'
p83
ssg19
(dp84
g38
S'MMMMMMMMMMMMMMMMMMMMMMMMMMMMMMMUUMMMMMMMMMMMMMMMMMMMDMMMMMMMMMMMMMMMMMMMMMMMMMMUMMMMMMMMMMMMMMMMMMMMMMMMMMMMMMMMMMMMMMMUMMMMMMMMMDMMMMMMMMMMDMMMMMMMMMMMMMMMMMMMMMMMMMMMMMMMMMMMMMMMMMMMUMMMMMMMMMMMMMMMMMMMMMMMMMMMMMMMMMMMMMMMMMMMMMMMMMMMMMMMMMMMMMDMMMMMMMMMM'
p85
ssg23
(dp86
g38
S'MMMMMMMMUMMMMMMMMMMMMMMMMMMMMMMMUMMMMMMMMMMMMMUMMMMUDMMMMUMMMMMMMMMMMMMMMMMMMMUMMMUMMMMMMMMMMMMMMMMUUMMMMMMUMMMMMMMMMMMMMMMMMMMMMDMUMMMMMMMMDMMMMMMMMMMMMMMMMMMMMMMMMMMMMMMMMMMMMMMMMMMMMMMMMMMMMMMMMMMMMMMMMMMMMMMMMMMMMMMMMMUMMMMMMMMMMMMMMMMMMMMMMMDMMMMMMMMMM'
p87
ssg25
(dp88
g38
S'MMMMMMMMMUMMMMMMMMMMMMMMMMMMMMMMMMMMMMMMMMMMMMMMMMMMUMMMMMMMMMMMMMMMMMMMMMMMMMMMMMMMMMMMMMMMMMMMMMMMMMMMMMMMMMMMMMMMMMMMMMMUMMMMMDMMUMMMMMMMDMMMMMMMMMMMMMMMMMMMMMMMMMMMMMMUMMMMMMMMMMMMMMMUMMMMMMMMMMMMMMMMMMMMUMMMMMMMMMMMMMMMMMMMMMMMMMMMMMMMMMMMMMDMMMMMMMMMM'
p89
ssg27
(dp90
g38
S'MMMMMMMMMMMMUMMMMMMMMMMMMMMMMMMMUMMMMMMMMMUMMMMMMMMMDMMMMMMMMMMMMMMMMMMMUMMMMMMMMMMMMMMMMMMMMMMMMMMMMUMMMMMMMMMMMMMMMMMMMMMMMMMUMDMMMMMMMMMMDMMMMMMMMMMUMMMMMMMMMMMMMMMMMMMMMMMMMMMMMMMMMMMMMMMMMMMMMMMMMMMMMMMMMMMMMMMMMMMMMMMMMMMMMMMMMMMMMMMMMMMMMMDMMMMMMMMUM'
p91
ssg29
(dp92
g38
S'MMMMMUMMMMMMMMMMMMMMMMUMMMMMMMMMUMMMMMMMMMMMMMMMMMMMDMMMMMMMMMUMMMMMMMMMMMMMMMMMMMMMMUMUMMMMMMMMMMMMMMMMMMMMMMMMMMMMMMMMUMMMMMMMMDMMMMMMMMMUDMMMMMMMMMMMMMMMMMMMMMMMMMMMMMMMMUMMMMMMMMMMUMMMMMMMMMMMMMMMMMMMMMMMMMMMMMMMMMMMMMMMUMMMMMMMMMMMMMMMMMMMMUDUMMMMMMMMM'
p93
sssg15
(dp94
g8
g42
sg11
g61
sg13
g78
sg17
(dp95
g38
S'MMMMUMMMMMMMMMMMMMMMMMMMMMMMMMMMUMMMMMMMMMMMMMMMMMMMDMMMMMMMMMMMMMMMMMMMMMMMMMMMMMUMMDMMMMMMMMMMMMMUUMMMMMMMMMMMMMMMMMMMMMMMMMMMMMMUMMMMMMMDMMMMMMDMMMMMMMMMUMMMMMMMMMMMMMMMMMMUMMMMMMMMMMMMMMMMMMMMMMMMMMMMMMMMMMMMMMMMMMMMMMUMDMMMMMMMMDMMMMMMMMMMMMMMMMMMMMMMM'
p96
ssg21
(dp97
g38
S'MMMMUMMMMMMMMMMMMMMMMMMMMMMMMUMMUMMMMMMMMMMMMMUMMMMMDMMMMUMMMMMMMMMMMMMMMMMMMMUMMMUMMDMMMMMMMMMMMMMUUMMMMMMUMMMMMMMMUMMMMMMMMMMMMMMMMMMMMMMDMMMMMMDMMMMMMMMMMMMMMMMMMMMMMMMMMMMMMMMMMMMMMMMMMMMMMMMMMMMMMMMMMMMMMMMMMMMMMMMMMMUMDMMMMMUMMDMMMMMMMMMMMMMMMMMMMMMMM'
p98
ssg19
(dp99
g38
S'MMMMMMMMMMMMMMMMMMMMMMMMMMMMMMMUUMMMMMMMMMMMMMMMMMMMDMMMMMMMMMMMMMMMMMMMMMMMMMMUMMMMMDMMMMMMMMMMMMMMMMMMMMMMMMMMMMMMMMMUMMMMMMMMMMMMMMMMMMMDMMMMMMDMMMMMMMMMMMMMMMMMMMMMMMMMMMMMMMMMMMMMUMMMMMMMMMMMMMMMMMMMMMMMMMMMMMMMMMMMMMMMDMMMMMMMMDMMMMMMMMMMMMMMMMMMMMMMM'
p100
ssg23
(dp101
g38
S'MMMMMMMMUMMMMMMMMMMMMMMMMMMMMMMMUMMMMMMMMMMMMMUMMMMUDMMMMUMMMMMMMMMMMMMMMMMMMMUMMMUMMDMMMMMMMMMMMMMUUMMMMMMUMMMMMMMMMMMMMMMMMMMMMMMUMMMMMMMDMMMMMMDMMMMMMMMMMMMMMMMMMMMMMMMMMMMMMMMMMMMMMMMMMMMMMMMMMMMMMMMMMMMMMMMMMMMMMMMMMMUMDMMMMMMMMDMMMMMMMMMMMMMMMMMMMMMMM'
p102
ssg25
(dp103
g38
S'MMMMMMMMMUMMMMMMMMMMMMMMMMMMMMMMDMMMMMMMMMMMMMMMMMMMUMMMMMMMMMMMMMMMMMMMMMMMMMMMMMMMMDMMMMMMMMMMMMMMMMMMMMMMMMMMMMMMMMMMMMMUMMMMMMMMUMMMMMMDUMMMMMDMMMMMMMMMMMMMMMMMMMMMMMMUMMMMMMMMMMMMMMMUMMMMMMMMMMMMMMMMMMMMUMMMMMMMMMMMMMMMDMMMMMMMMDMMMMMMMMMMMMMMMMMMMMMMM'
p104
ssg27
(dp105
g38
S'MMMMMMMMMMMMUMMMMMMMMMMMMMMMMMMMDMMMMMMMMMUMMMMMMMMMUMMMMMMMMMMMMMMMMMMMUMMMMMMMMMMMMDMMMMMMMMMMMMMMMUMMMMMMMMMMMMMMMMMMMMMMMMMUMMMMMMMMMMMDMMMMMMDMMMMUMMMMMMMMMMMMMMMMMMMMMMMMMMMMMMMMMMMMMMMMMMMMMMMMMMMMMMMMMMMMMMMMMMMMMMMMDMMMMMMMMDMMMMMMMMMMMMMMMMMMMMMUM'
p106
ssg29
(dp107
g38
S'MMMMMUMMMMMMMMMMMMMMMMUMMMMMMMMMUMMMMMMMMMMMMMMMMMMMDMMMMMMMMMUMMMMMMMMMMMMMMMMMMMMMMDMUMMMMMMMMMMMMMMMMMMMMMMMMMMMMMMMMUMMMMMMMMMMMMMMMMMMDMMMMMMDMMMMMMMMMMMMMMMMMMMMMMMMMMUMMMMMMMMMMUMMMMMMMMMMMMMMMMMMMMMMMMMMMMMMMMMMMMMMMDMMMMMMMMDMMMMMMMMMMMUMUMMMMMMMMM'
p108
sssg17
(dp109
g8
g44
sg11
g63
sg13
g80
sg15
g95
sg21
(dp110
g38
S'MMMMUMMMMMMMMMMMMMMMMMMMMMMMMUMMDMMMMMMMMMMMMMUMMMMMUMMMMUMMMMMMMMMMMMMMMMMMMMUMMMDMMMMMMMMMMMMMMMMUMMMMMMMUMMMMMMMMUMMMMMMMMMMMMMMDMMMMMMMMMMMMMMMMMMMMMMMMDMMMMMMMMMMMMMMMMMMDMMMMMMMMMMMMMMMMMMMMMMMMMMMMMMMMMMMMMMMMMMMMMMUMMMMMMMUMMMMMMMMMMMMMMMMMMMMMMMMMM'
p111
ssg19
(dp112
g38
S'MMMMDMMMMMMMMMMMMMMMMMMMMMMMMMMUDMMMMMMMMMMMMMMMMMMMUMMMMMMMMMMMMMMMMMMMMMMMMMMUMMDMMMMMMMMMMMMMMMMDDMMMMMMMMMMMMMMMMMMUMMMMMMMMMMMDMMMMMMMMMMMMMMMMMMMMMMMMDMMMMMMMMMMMMMMMMMMDMMMMMMMMUMMMMMMMMMMMMMMMMMMMMMMMMMMMMMMMMMMMMMDMMMMMMMMMMMMMMMMMMMMMMMMMMMMMMMMMM'
p113
ssg23
(dp114
g38
S'MMMMDMMMUMMMMMMMMMMMMMMMMMMMMMMMDMMMMMMMMMMMMMUMMMMUUMMMMUMMMMMMMMMMMMMMMMMMMMUMMMDMMMMMMMMMMMMMMMMUMMMMMMMUMMMMMMMMMMMMMMMMMMMMMMMMMMMMMMMMMMMMMMMMMMMMMMMMDMMMMMMMMMMMMMMMMMMDMMMMMMMMMMMMMMMMMMMMMMMMMMMMMMMMMMMMMMMMMMMMMMUMMMMMMMMMMMMMMMMMMMMMMMMMMMMMMMMMM'
p115
ssg25
(dp116
g38
S'MMMMDMMMMUMMMMMMMMMMMMMMMMMMMMMMDMMMMMMMMMMMMMMMMMMMUMMMMMMMMMMMMMMMMMMMMMMMMMMMMMDMMMMMMMMMMMMMMMMDDMMMMMMMMMMMMMMMMMMMMMMUMMMMMMMDUMMMMMMMUMMMMMMMMMMMMMMMDMMMMMMMMMMMMMMUMMMDMMMMMMMMMMMUMMMMMMMMMMMMMMMMMMMMUMMMMMMMMMMMMMDMMMMMMMMMMMMMMMMMMMMMMMMMMMMMMMMMM'
p117
ssg27
(dp118
g38
S'MMMMDMMMMMMMUMMMMMMMMMMMMMMMMMMMDMMMMMMMMMUMMMMMMMMMUMMMMMMMMMMMMMMMMMMMUMMMMMMMMMDMMMMMMMMMMMMMMMMDDUMMMMMMMMMMMMMMMMMMMMMMMMMUMMMDMMMMMMMMMMMMMMMMMMMUMMMMDMMMMMMMMMMMMMMMMMMDMMMMMMMMMMMMMMMMMMMMMMMMMMMMMMMMMMMMMMMMMMMMMMDMMMMMMMMMMMMMMMMMMMMMMMMMMMMMMMMUM'
p119
ssg29
(dp120
g38
S'MMMMDUMMMMMMMMMMMMMMMMUMMMMMMMMMDMMMMMMMMMMMMMMMMMMMUMMMMMMMMMUMMMMMMMMMMMMMMMMMMMDMMUMUMMMMMMMMMMMDDMMMMMMMMMMMMMMMMMMMUMMMMMMMMMMDMMMMMMMUMMMMMMMMMMMMMMMMDMMMMMMMMMMMMMMMMUMDMMMMMMMMUMMMMMMMMMMMMMMMMMMMMMMMMMMMMMMMMMMMMMDMUMMMMMMMMMMMMMMMMMMMMUMUMMMMMMMMM'
p121
sssg19
(dp122
g8
g46
sg11
g65
sg13
g84
sg15
g99
sg17
g112
sg21
(dp123
g38
S'MMMMDMMMMMMMMMMMMMMMMMMMMMMMMDMUDMMMMMMMMMMMMMDMMMMMUMMMMDMMMMMMMMMMMMMMMMMMMMDUMMDMMMMMMMMMMMMMMMMDDMMMMMMDMMMMMMMMDMMUMMMMMMMMMMMMMMMMMMMMMMMMMMMMMMMMMMMMMMMMMMMMMMMMMMMMMMMMMMMMMMMMUMMMMMMMMMMMMMMMMMMMMMMMMMMMMMMMMMMMMMDMMMMMMMDMMMMMMMMMMMMMMMMMMMMMMMMMM'
p124
ssg23
(dp125
g38
S'MMMMMMMMUMMMMMMMMMMMMMMMMMMMMMMDUMMMMMMMMMMMMMUMMMMUDMMMMUMMMMMMMMMMMMMMMMMMMMUDMMUMMMMMMMMMMMMMMMMUUMMMMMMUMMMMMMMMMMMDMMMMMMMMMMMUMMMMMMMMMMMMMMMMMMMMMMMMMMMMMMMMMMMMMMMMMMMMMMMMMMMMDMMMMMMMMMMMMMMMMMMMMMMMMMMMMMMMMMMMMMUMMMMMMMMMMMMMMMMMMMMMMMMMMMMMMMMMM'
p126
ssg25
(dp127
g38
S'MMMMMMMMMUMMMMMMMMMMMMMMMMMMMMMDDMMMMMMMMMMMMMMMMMMMUMMMMMMMMMMMMMMMMMMMMMMMMMMDMMMMMMMMMMMMMMMMMMMMMMMMMMMMMMMMMMMMMMMDMMMUMMMMMMMMUMMMMMMMUMMMMMMMMMMMMMMMMMMMMMMMMMMMMMMUMMMMMMMMMMMMDMMUMMMMMMMMMMMMMMMMMMMMUMMMMMMMMMMMMMMMMMMMMMMMMMMMMMMMMMMMMMMMMMMMMMMMM'
p128
ssg27
(dp129
g38
S'MMMMMMMMMMMMUMMMMMMMMMMMMMMMMMMDDMMMMMMMMMUMMMMMMMMMUMMMMMMMMMMMMMMMMMMMUMMMMMMDMMMMMMMMMMMMMMMMMMMMMUMMMMMMMMMMMMMMMMMDMMMMMMMUMMMMMMMMMMMMMMMMMMMMMMMUMMMMMMMMMMMMMMMMMMMMMMMMMMMMMMMMDMMMMMMMMMMMMMMMMMMMMMMMMMMMMMMMMMMMMMMMMMMMMMMMMMMMMMMMMMMMMMMMMMMMMMMUM'
p130
ssg29
(dp131
g38
S'MMMMMUMMMMMMMMMMMMMMMMUMMMMMMMMDDMMMMMMMMMMMMMMMMMMMUMMMMMMMMMUMMMMMMMMMMMMMMMMDMMMMMUMUMMMMMMMMMMMMMMMMMMMMMMMMMMMMMMMDUMMMMMMMMMMMMMMMMMMUMMMMMMMMMMMMMMMMMMMMMMMMMMMMMMMMMUMMMMMMMMMMDMMMMMMMMMMMMMMMMMMMMMMMMMMMMMMMMMMMMMMMUMMMMMMMMMMMMMMMMMMMMUMUMMMMMMMMM'
p132
sssg21
(dp133
g8
g48
sg11
g67
sg13
g82
sg15
g97
sg17
g110
sg19
g123
sg23
(dp134
g38
S'MMMMDMMMUMMMMMMMMMMMMMMMMMMMMDMMUMMMMMMMMMMMMMDMMMMUDMMMMDMMMMMMMMMMMMMMMMMMMMUMMMUMMMMMMMMMMMMMMMMDUMMMMMMDMMMMMMMMDMMMMMMMMMMMMMMUMMMMMMMMMMMMMMMMMMMMMMMMMMMMMMMMMMMMMMMMMMMMMMMMMMMMMMMMMMMMMMMMMMMMMMMMMMMMMMMMMMMMMMMMMMUMMMMMMMDMMMMMMMMMMMMMMMMMMMMMMMMMM'
p135
ssg25
(dp136
g38
S'MMMMDMMMMUMMMMMMMMMMMMMMMMMMMDMMDMMMMMMMMMMMMMDMMMMMUMMMMDMMMMMMMMMMMMMMMMMMMMDMMMDMMMMMMMMMMMMMMMMDDMMMMMMDMMMMMMMMDMMMMMMUMMMMMMMMUMMMMMMMUMMMMMMMMMMMMMMMMMMMMMMMMMMMMMMUMMMMMMMMMMMMMMMUMMMMMMMMMMMMMMMMMMMMUMMMMMMMMMMMMMDMMMMMMMDMMMMMMMMMMMMMMMMMMMMMMMMMM'
p137
ssg27
(dp138
g38
S'MMMMDMMMMMMMUMMMMMMMMMMMMMMMMDMMDMMMMMMMMMUMMMDMMMMMUMMMMDMMMMMMMMMMMMMMUMMMMMDMMMDMMMMMMMMMMMMMMMMDDUMMMMMDMMMMMMMMDMMMMMMMMMMUMMMMMMMMMMMMMMMMMMMMMMMUMMMMMMMMMMMMMMMMMMMMMMMMMMMMMMMMMMMMMMMMMMMMMMMMMMMMMMMMMMMMMMMMMMMMMMDMMMMMMMDMMMMMMMMMMMMMMMMMMMMMMMMUM'
p139
ssg29
(dp140
g38
S'MMMMDUMMMMMMMMMMMMMMMMUMMMMMMDMMDMMMMMMMMMMMMMDMMMMMUMMMMDMMMMUMMMMMMMMMMMMMMMDMMMDMMUMUMMMMMMMMMMMDDMMMMMMDMMMMMMMMDMMMUMMMMMMMMMMMMMMMMMMUMMMMMMMMMMMMMMMMMMMMMMMMMMMMMMMMMUMMMMMMMMMMUMMMMMMMMMMMMMMMMMMMMMMMMMMMMMMMMMMMMMDMUMMMMMDMMMMMMMMMMMMMMUMUMMMMMMMMM'
p141
sssg23
(dp142
g8
g50
sg11
g69
sg13
g86
sg15
g101
sg17
g114
sg19
g125
sg21
g134
sg25
(dp143
g38
S'MMMMMMMMDUMMMMMMMMMMMMMMMMMMMMMMDMMMMMMMMMMMMMDMMMMDUMMMMDMMMMMMMMMMMMMMMMMMMMDMMMDMMMMMMMMMMMMMMMMDDMMMMMMDMMMMMMMMMMMMMMMUMMMMMMMDUMMMMMMMUMMMMMMMMMMMMMMMMMMMMMMMMMMMMMMUMMMMMMMMMMMMMMMUMMMMMMMMMMMMMMMMMMMMUMMMMMMMMMMMMMDMMMMMMMMMMMMMMMMMMMMMMMMMMMMMMMMMM'
p144
ssg27
(dp145
g38
S'MMMMMMMMDMMMUMMMMMMMMMMMMMMMMMMMDMMMMMMMMMUMMMDMMMMDUMMMMDMMMMMMMMMMMMMMUMMMMMDMMMDMMMMMMMMMMMMMMMMDDUMMMMMDMMMMMMMMMMMMMMMMMMMUMMMDMMMMMMMMMMMMMMMMMMMUMMMMMMMMMMMMMMMMMMMMMMMMMMMMMMMMMMMMMMMMMMMMMMMMMMMMMMMMMMMMMMMMMMMMMMDMMMMMMMMMMMMMMMMMMMMMMMMMMMMMMMMUM'
p146
ssg29
(dp147
g38
S'MMMMMUMMDMMMMMMMMMMMMMUMMMMMMMMMDMMMMMMMMMMMMMDMMMMDUMMMMDMMMMUMMMMMMMMMMMMMMMDMMMDMMUMUMMMMMMMMMMMDDMMMMMMDMMMMMMMMMMMMUMMMMMMMMMMDMMMMMMMUMMMMMMMMMMMMMMMMMMMMMMMMMMMMMMMMMUMMMMMMMMMMUMMMMMMMMMMMMMMMMMMMMMMMMMMMMMMMMMMMMMDMUMMMMMMMMMMMMMMMMMMMMUMUMMMMMMMMM'
p148
sssg25
(dp149
g8
g52
sg11
g71
sg13
g88
sg15
g103
sg17
g116
sg19
g127
sg21
g136
sg23
g143
sg27
(dp150
g38
S'MMMMMMMMMDMMUMMMMMMMMMMMMMMMMMMMUMMMMMMMMMUMMMMMMMMMDMMMMMMMMMMMMMMMMMMMUMMMMMMMMMMMMMMMMMMMMMMMMMMMMUMMMMMMMMMMMMMMMMMMMMMDMMMUMMMMDMMMMMMMDMMMMMMMMMMUMMMMMMMMMMMMMMMMMMMDMMMMMMMMMMMMMMMDMMMMMMMMMMMMMMMMMMMMDMMMMMMMMMMMMMMMMMMMMMMMMMMMMMMMMMMMMMMMMMMMMMMUM'
p151
ssg29
(dp152
g38
S'MMMMMUMMMDMMMMMMMMMMMMUMMMMMMMMMUMMMMMMMMMMMMMMMMMMMDMMMMMMMMMUMMMMMMMMMMMMMMMMMMMMMMUMUMMMMMMMMMMMMMMMMMMMMMMMMMMMMMMMMUMMDMMMMMMMMDMMMMMMUDMMMMMMMMMMMMMMMMMMMMMMMMMMMMMMDMUMMMMMMMMMMUMMDMMMMMMMMMMMMMMMMMMMMDMMMMMMMMMMMMMMMUMMMMMMMMMMMMMMMMMMMMUMUMMMMMMMMM'
p153
sssg27
(dp154
g8
g54
sg11
g73
sg13
g90
sg15
g105
sg17
g118
sg19
g129
sg21
g138
sg23
g145
sg25
g150
sg29
(dp155
g38
S'MMMMMUMMMMMMDMMMMMMMMMUMMMMMMMMMUMMMMMMMMMDMMMMMMMMMDMMMMMMMMMUMMMMMMMMMDMMMMMMMMMMMMUMUMMMMMMMMMMMMMDMMMMMMMMMMMMMMMMMMUMMMMMMDMMMMMMMMMMMUMMMMMMMMMMMDMMMMMMMMMMMMMMMMMMMMMUMMMMMMMMMMUMMMMMMMMMMMMMMMMMMMMMMMMMMMMMMMMMMMMMMMUMMMMMMMMMMMMMMMMMMMMUMUMMMMMMMDM'
p156
sssg29
(dp157
g8
g56
sg11
g75
sg13
g92
sg15
g107
sg17
g120
sg19
g131
sg21
g140
sg23
g147
sg25
g152
sg27
g155
sssS'adj'
p158
g35
sb.