(dp0
S'assemblage-3-20'
p1
(lp2
S'assemblage-49-5'
p3
aS'assemblage-12-27'
p4
aS'assemblage-14-15'
p5
aS'assemblage-18-23'
p6
aS'assemblage-7-20'
p7
aS'assemblage-17-9'
p8
aS'assemblage-10-17'
p9
aS'assemblage-18-9'
p10
aS'assemblage-28-25'
p11
aS'assemblage-47-22'
p12
asg3
(lp13
g1
ag4
ag5
ag6
ag7
ag8
ag9
ag10
ag11
ag12
asg4
(lp14
g1
ag3
ag5
ag6
ag7
ag8
ag9
ag10
ag11
ag12
asg5
(lp15
g1
ag3
ag4
ag6
ag7
ag8
ag9
ag10
ag11
ag12
asg6
(lp16
g1
ag3
ag4
ag5
ag7
ag8
ag9
ag10
ag11
ag12
asg8
(lp17
g1
ag3
ag4
ag5
ag6
ag7
ag9
ag10
ag11
ag12
asg7
(lp18
g1
ag3
ag4
ag5
ag6
ag8
ag9
ag10
ag11
ag12
asg9
(lp19
g1
ag3
ag4
ag5
ag6
ag7
ag8
ag10
ag11
ag12
asg10
(lp20
g1
ag3
ag4
ag5
ag6
ag7
ag8
ag9
ag11
ag12
asg11
(lp21
g1
ag3
ag4
ag5
ag6
ag7
ag8
ag9
ag10
ag12
asg12
(lp22
g1
ag3
ag4
ag5
ag6
ag7
ag8
ag9
ag10
ag11
as.