(dp0
S'assemblage-51-49'
p1
(lp2
cnumpy.core.multiarray
scalar
p3
(cnumpy
dtype
p4
(S'f8'
p5
I0
I1
tp6
Rp7
(I3
S'<'
p8
NNNI-1
I-1
I0
tp9
bS"\x03\xc3't\x05\xabn?"
p10
tp11
Rp12
aI0
aI0
aI0
aI0
aI0
aI0
aI0
ag3
(g7
S'\x19\xa4$\xacr\xd6\xc5?'
p13
tp14
Rp15
aI0
aI0
aI0
aI0
aI0
aI0
ag3
(g7
S'\xc6P\x91\xbe\xd0F\x00?'
p16
tp17
Rp18
aI0
aI0
aI0
aI0
aI0
aI0
aI0
aI0
aI0
ag3
(g7
S"\x03\xaa'\x88\x81\xd6d?"
p19
tp20
Rp21
aI0
aI0
aI0
aI0
aI0
ag3
(g7
S'\xa3\x9f+\xf7[\r\xd1?'
p22
tp23
Rp24
aI0
aI0
aI0
aI0
aI0
aI0
aI0
aI0
ag3
(g7
S'\x84p\x99/s\xf6\xe0?'
p25
tp26
Rp27
aI0
aI0
aI0
aI0
ag3
(g7
S'\xefMY\xa7\xa3\xc8\x9c?'
p28
tp29
Rp30
aI0
aI0
aI0
aI0
aI0
aI0
aI0
aI0
aI0
aI0
aI0
aI0
aI0
asS'assemblage-54-10'
p31
(lp32
I0
aI0
aI0
aI0
aI0
aI0
aI0
aI0
ag3
(g7
S'\xd4C\x17\n^\xfc\xcf?'
p33
tp34
Rp35
aI0
aI0
aI0
aI0
aI0
aI0
aI0
aI0
aI0
aI0
ag3
(g7
S'-\xda\x07z\t\x90\x03?'
p36
tp37
Rp38
aI0
aI0
aI0
aI0
aI0
aI0
aI0
aI0
aI0
aI0
aI0
ag3
(g7
S'K\xe8%AM\x02\xdb?'
p39
tp40
Rp41
aI0
aI0
aI0
aI0
aI0
aI0
aI0
aI0
ag3
(g7
S'*\xf4\xd8d!L\xd1?'
p42
tp43
Rp44
aI0
aI0
aI0
aI0
ag3
(g7
S'\x84n\xcdS\xf06\xa9?'
p45
tp46
Rp47
aI0
aI0
aI0
aI0
ag3
(g7
S'E\x14\xe2#\xf6m\x85?'
p48
tp49
Rp50
aI0
aI0
aI0
aI0
aI0
aI0
aI0
aI0
asS'assemblage-53-62'
p51
(lp52
g3
(g7
S'\x1a\xb2\x08\xe5\xd4n\xac?'
p53
tp54
Rp55
aI0
aI0
aI0
aI0
aI0
aI0
aI0
ag3
(g7
S'\x80G*\xcf\xbdb\xd3?'
p56
tp57
Rp58
aI0
aI0
aI0
aI0
aI0
aI0
aI0
aI0
aI0
aI0
aI0
aI0
aI0
aI0
aI0
aI0
ag3
(g7
S'\x90w\x02Ir\x87\x91?'
p59
tp60
Rp61
aI0
aI0
aI0
aI0
aI0
ag3
(g7
S'\xc60\xa0\xe1\xdd-\xc7?'
p62
tp63
Rp64
aI0
aI0
aI0
aI0
aI0
aI0
aI0
aI0
ag3
(g7
S'`\x14\xc2\xee0\xef\xda?'
p65
tp66
Rp67
aI0
aI0
aI0
aI0
ag3
(g7
S'\xe11\x11\xa9\xd5L\x9c?'
p68
tp69
Rp70
aI0
aI0
aI0
aI0
aI0
aI0
aI0
aI0
aI0
aI0
aI0
aI0
aI0
asS'assemblage-28-48'
p71
(lp72
I0
aI0
aI0
aI0
aI0
aI0
aI0
aI0
aI0
aI0
aI0
aI0
aI0
aI0
aI0
aI0
aI0
aI0
aI0
aI0
aI0
aI0
aI0
aI0
aI0
aI0
aI0
aI0
aI0
aI0
ag3
(g7
S'km2\x93k\xa4\x91?'
p73
tp74
Rp75
ag3
(g7
S'\x8a\xa0\xbc\x82\xe4\xfc\xd3?'
p76
tp77
Rp78
aI0
aI0
aI0
aI0
aI0
aI0
aI0
aI0
ag3
(g7
S'\x90\x8a\x18)bj\xe5?'
p79
tp80
Rp81
aI0
aI0
aI0
aI0
aI0
aI0
aI0
aI0
aI0
ag3
(g7
S'5\xf3\xff\xd5\x1fw_?'
p82
tp83
Rp84
ag3
(g7
S'x\xdd\x1c_\xac\xd4\xec>'
p85
tp86
Rp87
aI0
aI0
aI0
aI0
aI0
aI0
aI0
asS'assemblage-61-65'
p88
(lp89
I0
aI0
aI0
aI0
aI0
aI0
aI0
aI0
aI0
aI0
aI0
aI0
aI0
aI0
aI0
aI0
aI0
aI0
aI0
aI0
aI0
aI0
aI0
aI0
aI0
aI0
ag3
(g7
S'$\x0fK\x90\x89\xc6%?'
p90
tp91
Rp92
aI0
aI0
aI0
ag3
(g7
S'\x06\xdc,_\x97\xe0S?'
p93
tp94
Rp95
ag3
(g7
S'\x9a\xeb\xf2\x14,r\xe3?'
p96
tp97
Rp98
aI0
aI0
aI0
aI0
aI0
aI0
aI0
aI0
ag3
(g7
S'L\xb8T"\n\x18\xd9?'
p99
tp100
Rp101
aI0
aI0
aI0
aI0
aI0
aI0
aI0
aI0
aI0
aI0
aI0
aI0
aI0
aI0
aI0
aI0
aI0
aI0
asS'assemblage-60-61'
p102
(lp103
I0
aI0
aI0
aI0
aI0
aI0
aI0
aI0
ag3
(g7
S'\xab2\xb0j\x15\xb0`?'
p104
tp105
Rp106
aI0
aI0
aI0
aI0
aI0
aI0
aI0
aI0
aI0
aI0
aI0
aI0
aI0
aI0
aI0
aI0
aI0
aI0
aI0
aI0
aI0
aI0
aI0
aI0
aI0
aI0
aI0
aI0
aI0
aI0
aI0
aI0
aI0
aI0
aI0
aI0
ag3
(g7
S'\x98\x1b\xfb\x83S\xf1\xef?'
p107
tp108
Rp109
aI0
aI0
aI0
aI0
aI0
aI0
aI0
aI0
aI0
aI0
aI0
aI0
aI0
asS'assemblage-15-49'
p110
(lp111
I0
aI0
aI0
aI0
aI0
aI0
aI0
aI0
aI0
aI0
aI0
aI0
aI0
aI0
aI0
aI0
aI0
aI0
aI0
aI0
aI0
aI0
aI0
aI0
aI0
aI0
aI0
aI0
aI0
aI0
aI0
ag3
(g7
S'^\x9b\xea\xca\xc3\xc4\xe8?'
p112
tp113
Rp114
aI0
aI0
aI0
aI0
aI0
aI0
aI0
aI0
ag3
(g7
S'6\x90@\x89\x02\x0b\xcd?'
p115
tp116
Rp117
aI0
aI0
aI0
aI0
aI0
aI0
aI0
aI0
aI0
aI0
aI0
aI0
aI0
aI0
aI0
aI0
aI0
aI0
asS'assemblage-55-5'
p118
(lp119
I0
aI0
aI0
aI0
aI0
aI0
aI0
aI0
aI0
aI0
aI0
aI0
aI0
aI0
aI0
aI0
aI0
aI0
aI0
aI0
aI0
aI0
aI0
aI0
aI0
aI0
aI0
aI0
aI0
aI0
ag3
(g7
S'\xb6\xb8\x08\x9cu\xa3\xc0?'
p120
tp121
Rp122
ag3
(g7
S'\xa6j\xc3\x13\xebp\xb2?'
p123
tp124
Rp125
aI0
aI0
aI0
aI0
aI0
aI0
aI0
aI0
ag3
(g7
S'\n\xfb\x82X\xa6\x92\xe9?'
p126
tp127
Rp128
aI0
aI0
aI0
aI0
aI0
aI0
aI0
aI0
aI0
aI0
aI0
aI0
aI0
aI0
aI0
aI0
aI0
aI0
asS'assemblage-27-51'
p129
(lp130
I0
aI0
aI0
aI0
aI0
aI0
aI0
aI0
aI0
aI0
aI0
aI0
aI0
aI0
aI0
aI0
aI0
aI0
aI0
aI0
aI0
aI0
aI0
aI0
aI0
aI0
aI0
aI0
aI0
aI0
ag3
(g7
S'\xba\x1b\x03\xb1\xec\x88\xb5?'
p131
tp132
Rp133
ag3
(g7
S'\xb3\xec\xfeg\xedz\xd4?'
p134
tp135
Rp136
aI0
aI0
aI0
aI0
aI0
aI0
aI0
aI0
ag3
(g7
S'\x17\xc6\x0cIa\x1a\xe3?'
p137
tp138
Rp139
aI0
aI0
aI0
aI0
aI0
aI0
aI0
aI0
aI0
aI0
aI0
aI0
aI0
aI0
aI0
aI0
aI0
aI0
asS'assemblage-69-65'
p140
(lp141
I0
aI0
aI0
aI0
aI0
aI0
aI0
aI0
ag3
(g7
S'\xd9uq9T)\xea?'
p142
tp143
Rp144
aI0
aI0
aI0
aI0
aI0
aI0
aI0
aI0
aI0
aI0
aI0
aI0
aI0
aI0
aI0
aI0
ag3
(g7
S'\xb1\nq=\xafu\x97?'
p145
tp146
Rp147
aI0
aI0
aI0
aI0
aI0
ag3
(g7
S'u&J\xbaTi\xbf?'
p148
tp149
Rp150
aI0
aI0
aI0
aI0
aI0
aI0
aI0
aI0
ag3
(g7
S'Xx\xa5\xe7\xdb\xc7\x8b?'
p151
tp152
Rp153
aI0
aI0
aI0
aI0
ag3
(g7
S'\xdeb\x1e\x0c\x8a\x0e\x9b?'
p154
tp155
Rp156
aI0
aI0
aI0
aI0
aI0
aI0
aI0
aI0
aI0
aI0
aI0
aI0
aI0
asS'assemblage-29-52'
p157
(lp158
I0
aI0
aI0
aI0
aI0
aI0
aI0
aI0
aI0
aI0
aI0
aI0
aI0
aI0
aI0
aI0
aI0
aI0
aI0
aI0
ag3
(g7
S'\xbb\xa2aL\xf0\x01\x01?'
p159
tp160
Rp161
aI0
aI0
aI0
aI0
aI0
aI0
aI0
aI0
aI0
ag3
(g7
S'\xa9;^\x1b\x86+\x9c?'
p162
tp163
Rp164
ag3
(g7
S'\xfb\x11\xfcO\xe4W1?'
p165
tp166
Rp167
aI0
aI0
aI0
aI0
aI0
aI0
aI0
aI0
ag3
(g7
S'\xd2Z\x01!\xb6\x1f\xef?'
p168
tp169
Rp170
aI0
aI0
aI0
aI0
aI0
aI0
aI0
aI0
aI0
aI0
aI0
aI0
aI0
aI0
aI0
aI0
aI0
aI0
asS'assemblage-33-69'
p171
(lp172
I0
aI0
aI0
aI0
aI0
aI0
aI0
aI0
ag3
(g7
S'\xa1\xd0\xca\x05[\x87\xef?'
p173
tp174
Rp175
aI0
aI0
aI0
aI0
aI0
aI0
aI0
aI0
aI0
aI0
aI0
aI0
aI0
aI0
ag3
(g7
S'L\x7fi\xe5LF0?'
p176
tp177
Rp178
aI0
aI0
aI0
aI0
aI0
aI0
aI0
ag3
(g7
S'\x7f\xc5\x1bV\xc7:\x8d?'
p179
tp180
Rp181
aI0
aI0
ag3
(g7
S'B=%\x0b\x7f[P?'
p182
tp183
Rp184
aI0
aI0
aI0
aI0
aI0
aI0
aI0
aI0
aI0
aI0
aI0
aI0
aI0
aI0
aI0
aI0
aI0
aI0
aI0
aI0
aI0
aI0
aI0
aI0
asS'assemblage-31-23'
p185
(lp186
I0
aI0
aI0
aI0
aI0
aI0
aI0
aI0
ag3
(g7
S'v\x8a\x9b\x81\x94w\xb3?'
p187
tp188
Rp189
aI0
aI0
aI0
aI0
aI0
aI0
aI0
aI0
aI0
aI0
aI0
aI0
aI0
aI0
aI0
aI0
aI0
aI0
aI0
aI0
aI0
aI0
ag3
(g7
S'A5\xa8\x0eo\xe8\xd8?'
p190
tp191
Rp192
aI0
aI0
aI0
aI0
aI0
aI0
aI0
aI0
ag3
(g7
S'\x94\x85\xae\x1a\x1c\xfa\xe0?'
p193
tp194
Rp195
aI0
aI0
aI0
aI0
ag3
(g7
S'\xd6\x94<h\x89:r?'
p196
tp197
Rp198
aI0
aI0
aI0
ag3
(g7
S'X\xbc^\xd8\x03}\xf4>'
p199
tp200
Rp201
ag3
(g7
S'.\xf7FK3\x90K?'
p202
tp203
Rp204
aI0
aI0
aI0
aI0
aI0
aI0
aI0
aI0
asS'assemblage-47-50'
p205
(lp206
I0
aI0
aI0
ag3
(g7
S'g\xeaJ\x15p^\x15?'
p207
tp208
Rp209
ag3
(g7
S'\xde\xca]\xdb\x8a\xaa\x05?'
p210
tp211
Rp212
aI0
aI0
aI0
aI0
ag3
(g7
S'\x82\xf4\xa4:\x1fU\x05?'
p213
tp214
Rp215
ag3
(g7
S'\xbf\x1d\xe4\xfa\xc0\x9a\x06?'
p216
tp217
Rp218
aI0
aI0
aI0
aI0
aI0
aI0
aI0
aI0
aI0
aI0
aI0
aI0
aI0
aI0
aI0
aI0
aI0
aI0
aI0
ag3
(g7
S'\xeeG\xa4@r\xa3\xa2?'
p219
tp220
Rp221
ag3
(g7
S'\xa6v1\xf2]B\xba?'
p222
tp223
Rp224
aI0
aI0
aI0
aI0
aI0
aI0
aI0
aI0
ag3
(g7
S'\xea\xb0\xc4\x88\xc9\x93\xeb?'
p225
tp226
Rp227
aI0
aI0
aI0
aI0
aI0
aI0
aI0
aI0
aI0
aI0
aI0
ag3
(g7
S'R\xc0\xfa\xba\x0fq\x02?'
p228
tp229
Rp230
aI0
aI0
aI0
aI0
aI0
aI0
asS'assemblage-17-26'
p231
(lp232
I0
aI0
aI0
aI0
aI0
aI0
aI0
aI0
aI0
aI0
aI0
aI0
aI0
aI0
aI0
aI0
aI0
aI0
aI0
aI0
aI0
aI0
aI0
aI0
aI0
aI0
aI0
aI0
aI0
aI0
aI0
ag3
(g7
S'\xba\x8d\xba\xe2\x1d|\xee?'
p233
tp234
Rp235
aI0
aI0
aI0
aI0
aI0
aI0
aI0
aI0
ag3
(g7
S'\x9f\xbf\xc2\x0719\xa8?'
p236
tp237
Rp238
aI0
aI0
aI0
aI0
aI0
ag3
(g7
S'8\xe5;^\x1fAC?'
p239
tp240
Rp241
aI0
aI0
aI0
aI0
aI0
aI0
aI0
aI0
aI0
aI0
aI0
aI0
as.