(dp0
S'assemblage-15-2'
p1
(lp2
F0.0
aF0.76
aF0.0
aF0.0
aF0.0
aF0.005
aF0.005
aF0.0
aF0.0
aF0.05
aF0.0
aF0.18
aF0.0
aF0.0
aF0.0
aF0.0
aF0.0
aF0.0
aF0.0
asS'assemblage-11-3'
p3
(lp4
F0.0
aF0.885
aF0.0
aF0.0
aF0.0
aF0.045
aF0.0
aF0.0
aF0.0
aF0.0
aF0.0
aF0.07
aF0.0
aF0.0
aF0.0
aF0.0
aF0.0
aF0.0
aF0.0
asS'assemblage-11-2'
p5
(lp6
F0.0
aF0.955
aF0.0
aF0.0
aF0.0
aF0.02
aF0.0
aF0.0
aF0.0
aF0.0
aF0.0
aF0.025
aF0.0
aF0.0
aF0.0
aF0.0
aF0.0
aF0.0
aF0.0
asS'assemblage-12-4'
p7
(lp8
F0.0
aF0.685
aF0.0
aF0.0
aF0.0
aF0.0
aF0.0
aF0.0
aF0.0
aF0.0
aF0.0
aF0.315
aF0.0
aF0.0
aF0.0
aF0.0
aF0.0
aF0.0
aF0.0
asS'assemblage-28-1'
p9
(lp10
F0.0
aF0.785
aF0.0
aF0.0
aF0.0
aF0.0
aF0.035
aF0.0
aF0.0
aF0.145
aF0.0
aF0.035
aF0.0
aF0.0
aF0.0
aF0.0
aF0.0
aF0.0
aF0.0
asS'assemblage-12-1'
p11
(lp12
F0.0
aF1.0
aF0.0
aF0.0
aF0.0
aF0.0
aF0.0
aF0.0
aF0.0
aF0.0
aF0.0
aF0.0
aF0.0
aF0.0
aF0.0
aF0.0
aF0.0
aF0.0
aF0.0
asS'assemblage-12-2'
p13
(lp14
F0.0
aF0.795
aF0.0
aF0.0
aF0.005
aF0.0
aF0.03
aF0.0
aF0.0
aF0.135
aF0.0
aF0.035
aF0.0
aF0.0
aF0.0
aF0.0
aF0.0
aF0.0
aF0.0
asS'assemblage-2-3'
p15
(lp16
F0.0
aF0.75
aF0.0
aF0.005
aF0.0
aF0.005
aF0.0
aF0.0
aF0.0
aF0.0
aF0.0
aF0.235
aF0.0
aF0.0
aF0.0
aF0.0
aF0.005
aF0.0
aF0.0
asS'assemblage-3-2'
p17
(lp18
F0.015
aF0.555
aF0.0
aF0.0
aF0.0
aF0.0
aF0.075
aF0.0
aF0.0
aF0.34
aF0.0
aF0.0
aF0.015
aF0.0
aF0.0
aF0.0
aF0.0
aF0.0
aF0.0
asS'assemblage-1-4'
p19
(lp20
F0.0
aF0.77
aF0.0
aF0.0
aF0.0
aF0.005
aF0.0
aF0.0
aF0.0
aF0.11
aF0.0
aF0.11
aF0.005
aF0.0
aF0.0
aF0.0
aF0.0
aF0.0
aF0.0
asS'assemblage-21-4'
p21
(lp22
F0.0
aF1.0
aF0.0
aF0.0
aF0.0
aF0.0
aF0.0
aF0.0
aF0.0
aF0.0
aF0.0
aF0.0
aF0.0
aF0.0
aF0.0
aF0.0
aF0.0
aF0.0
aF0.0
asS'assemblage-21-3'
p23
(lp24
F0.0
aF0.86
aF0.0
aF0.0
aF0.0
aF0.075
aF0.0
aF0.0
aF0.005
aF0.0
aF0.0
aF0.055
aF0.0
aF0.0
aF0.0
aF0.0
aF0.0
aF0.005
aF0.0
asS'assemblage-28-3'
p25
(lp26
F0.0
aF0.995
aF0.005
aF0.0
aF0.0
aF0.0
aF0.0
aF0.0
aF0.0
aF0.0
aF0.0
aF0.0
aF0.0
aF0.0
aF0.0
aF0.0
aF0.0
aF0.0
aF0.0
asS'assemblage-25-4'
p27
(lp28
F0.0
aF0.575
aF0.0
aF0.0
aF0.0
aF0.0
aF0.12
aF0.0
aF0.0
aF0.27
aF0.0
aF0.035
aF0.0
aF0.0
aF0.0
aF0.0
aF0.0
aF0.0
aF0.0
asS'assemblage-6-2'
p29
(lp30
F0.0
aF0.99
aF0.0
aF0.0
aF0.0
aF0.0
aF0.0
aF0.005
aF0.0
aF0.0
aF0.005
aF0.0
aF0.0
aF0.0
aF0.0
aF0.0
aF0.0
aF0.0
aF0.0
asS'assemblage-7-3'
p31
(lp32
F0.0
aF0.89
aF0.0
aF0.0
aF0.0
aF0.045
aF0.0
aF0.0
aF0.0
aF0.0
aF0.0
aF0.055
aF0.0
aF0.0
aF0.0
aF0.005
aF0.0
aF0.005
aF0.0
asS'assemblage-20-3'
p33
(lp34
F0.0
aF0.995
aF0.0
aF0.0
aF0.0
aF0.0
aF0.0
aF0.0
aF0.0
aF0.0
aF0.0
aF0.0
aF0.0
aF0.005
aF0.0
aF0.0
aF0.0
aF0.0
aF0.0
asS'assemblage-20-1'
p35
(lp36
F0.005
aF0.445
aF0.0
aF0.0
aF0.0
aF0.0
aF0.145
aF0.0
aF0.0
aF0.405
aF0.0
aF0.0
aF0.0
aF0.0
aF0.0
aF0.0
aF0.0
aF0.0
aF0.0
asS'assemblage-18-4'
p37
(lp38
F0.0
aF0.915
aF0.0
aF0.0
aF0.0
aF0.03
aF0.0
aF0.0
aF0.0
aF0.0
aF0.0
aF0.05
aF0.0
aF0.0
aF0.005
aF0.0
aF0.0
aF0.0
aF0.0
asS'assemblage-16-2'
p39
(lp40
F0.0
aF0.71
aF0.0
aF0.0
aF0.0
aF0.015
aF0.0
aF0.0
aF0.0
aF0.0
aF0.0
aF0.27
aF0.0
aF0.0
aF0.0
aF0.0
aF0.0
aF0.0
aF0.005
asS'assemblage-19-1'
p41
(lp42
F0.005
aF0.695
aF0.0
aF0.0
aF0.0
aF0.015
aF0.04
aF0.0
aF0.0
aF0.095
aF0.0
aF0.145
aF0.005
aF0.0
aF0.0
aF0.0
aF0.0
aF0.0
aF0.0
asS'assemblage-4-4'
p43
(lp44
F0.02
aF0.595
aF0.0
aF0.0
aF0.0
aF0.0
aF0.025
aF0.0
aF0.0
aF0.3
aF0.0
aF0.0
aF0.06
aF0.0
aF0.0
aF0.0
aF0.0
aF0.0
aF0.0
as.