ccopy_reg
_reconstructor
p0
(cnetworkx.classes.graph
Graph
p1
c__builtin__
object
p2
Ntp3
Rp4
(dp5
S'node'
p6
(dp7
S'assemblage-14-12'
p8
(dp9
S'name'
p10
g8
ssS'assemblage-19-22'
p11
(dp12
g10
g11
ssS'assemblage-19-23'
p13
(dp14
g10
g13
ssS'assemblage-19-20'
p15
(dp16
g10
g15
ssS'assemblage-14-18'
p17
(dp18
g10
g17
ssS'assemblage-15-7'
p19
(dp20
g10
g19
ssS'assemblage-17-22'
p21
(dp22
g10
g21
ssS'assemblage-14-1'
p23
(dp24
g10
g23
ssS'assemblage-9-3'
p25
(dp26
g10
g25
ssS'assemblage-9-17'
p27
(dp28
g10
g27
ssS'assemblage-9-16'
p29
(dp30
g10
g29
ssS'assemblage-8-14'
p31
(dp32
g10
g31
ssS'assemblage-8-21'
p33
(dp34
g10
g33
ssS'assemblage-5-21'
p35
(dp36
g10
g35
ssS'assemblage-24-12'
p37
(dp38
g10
g37
ssS'assemblage-7-1'
p39
(dp40
g10
g39
ssS'assemblage-21-11'
p41
(dp42
g10
g41
ssS'assemblage-24-5'
p43
(dp44
g10
g43
ssS'assemblage-5-18'
p45
(dp46
g10
g45
ssS'assemblage-6-18'
p47
(dp48
g10
g47
ssS'assemblage-6-19'
p49
(dp50
g10
g49
ssS'assemblage-22-23'
p51
(dp52
g10
g51
ssS'assemblage-6-16'
p53
(dp54
g10
g53
ssS'assemblage-22-13'
p55
(dp56
g10
g55
ssS'assemblage-22-12'
p57
(dp58
g10
g57
ssS'assemblage-14-6'
p59
(dp60
g10
g59
ssS'assemblage-17-8'
p61
(dp62
g10
g61
ssS'assemblage-7-23'
p63
(dp64
g10
g63
ssS'assemblage-13-14'
p65
(dp66
g10
g65
ssS'assemblage-5-19'
p67
(dp68
g10
g67
ssS'assemblage-8-9'
p69
(dp70
g10
g69
ssS'assemblage-2-23'
p71
(dp72
g10
g71
ssS'assemblage-10-4'
p73
(dp74
g10
g73
ssS'assemblage-21-7'
p75
(dp76
g10
g75
sssS'graph'
p77
(dp78
S'is_directed'
p79
I00
ssS'edge'
p80
(dp81
g8
(dp82
g11
(dp83
S'weight'
p84
S'MDMMMMMMMMMUMMMMMMMMMMMMMUMMMMMMMMUMMMMMMMUDMMMMMMUMMMMMMMDMMMMMMMDMDU'
p85
ssg13
(dp86
g84
S'MDMMMUMUMMMUMUMMMUMMMMMMMMMMMMMMMMUMMMMMMMUDUMMMMMUMMMMMMMDMMMMMUMDMDM'
p87
ssg15
(dp88
g84
S'MDMMMUUUMMMMMMMMMMMUMMUMMMMMMMMMMMUMMMMUMMMDMMMUMUUMMMMUMMDMMUMMMMDMDM'
p89
ssg17
(dp90
g84
S'MDMMMMMMMMMMMMMMMMMMMMMMMMMMMMMMMUUMMMMMMMMDMMMMMMUMMMMMMMDMMMMMMMDMDM'
p91
ssg19
(dp92
g84
S'MDMMMMMMMUMMUMMMMMMMMMMUMMMMMUMMMMMMMMMMMMMUMMMMMMMMMMMMMUDMMMMMMMDMDM'
p93
ssg21
(dp94
g84
S'MDMMMMMMUMMMMMMMMMMMMMMMMMMMMMMMMMMMMMMMMMMDMMMMMMUMMMMMMMDMMMMMMMDUDM'
p95
ssg23
(dp96
g84
S'MDMMMMMMMMMMMMMMMMMMMMMMMMMMMMMMMMMMMMMUMMMUMUMMMMMMMMMMMUDMMMUMMMDMDM'
p97
ssg25
(dp98
g84
S'MDMMMMMMMMMMMMMMMUMMMMMMMMMMMMMMMMUMUMMMUMMDUMMMMMUMMMUMMMDMMMMMMMDMDM'
p99
ssg27
(dp100
g84
S'MDUMMMMMMMMMMMMMMUMMMMMMMMMMMMMMMMUMMMMMMMMDMMMMMMUMMMMMMMDMMMMMMMDMDM'
p101
ssg29
(dp102
g84
S'UDMMMMMUMMMMMMUMMUUMUMUMMMMMUMUMMMUMMMUUMMUDUMMMMMUMUMMUMMDMMMMMUMDMDM'
p103
ssg31
(dp104
g84
S'MDMMMMMMMMMMUMMMMMMMMMMMMMMMMMMMMMMMMMMMMMMUMUMMMMMMMMMMMUDMMMMMMMDMDM'
p105
ssg33
(dp106
g84
S'MDMMMMMMMMMMMMMMMUMMMMMMMMMMMMMMMMUMMMMMMMMDMMMMMMUMMMMMMMDMMMMMMMDMDM'
p107
ssg35
(dp108
g84
S'MDMMMMMMMMMMMMMMMMMMMMMMMMMMMMMMMMMMMMMMMMMDMMMMMMUMMMMMMMDMMMMMMMDMDM'
p109
ssg37
(dp110
g84
S'MDMMMMMMMMMMMMMMMMMMMMMMMMMMMMMMMMUMMMMMMMMDMMMMMMUMMMMMMMDMMMMMMMDMDM'
p111
ssg39
(dp112
g84
S'MDMMMMMMMMMMMMMMMUMMMMMMMMMMMMMMMMUMMMMMUMMDUMMMMMUMMMMMMMDUMMMMMMDMDM'
p113
ssg41
(dp114
g84
S'MDUMMMMMMMMMMMMUMUMMMMMMMMMMMMMMMMUMMMMMMUMDMMMMMMUMMMMMMMDMMMMMMMDMDM'
p115
ssg43
(dp116
g84
S'MDMMMMMMMMMMMMMMMMMMMMMMMMMMMMMMMMMMMMMMMMMMMMMMMMMMMUMMMMUMMMMMMMDMDM'
p117
ssg45
(dp118
g84
S'MDMMMMUMMMMMMMMMMMMUMMUMMMMUMMUMMMMMMMMUMMMUMMMMMMMMMMMUMMDMMMMMMMDMDM'
p119
ssg47
(dp120
g84
S'MDMMMMMMMMMUMMMMMMMMMMMMMMMMMMMMMMUMMMMMMMMDMMMMMMUMMMMMMMDMMMMMMMDMDM'
p121
ssg49
(dp122
g84
S'MDMUMMMMMMMMMMMMUMMMMMMMMMMMMMUMMMMUMMMUMMMUMMMMUMMMMUMMMMDMMMMUMUDMDM'
p123
ssg51
(dp124
g84
S'MDMMMMMMMMUMMMMMMMMMMMMMMMMMMMMMMMUMMMMMMMMDMMMMMMUUMMMMMMDMMMMMMMDMDM'
p125
ssg53
(dp126
g84
S'MDMMMMMMMMMMMMMMMMMMMUUMMMMMMMMMMMMMMMMUMMMDMMMMMMUMMMMUMMDMMMMMMMDMDM'
p127
ssg55
(dp128
g84
S'MDMMMMMMMMMMMMMMMMMMMMMUMMUMMMMMUMMMMMUMMMMUMMMMMMMMMMMMMUDMMMMMMMDMDM'
p129
ssg57
(dp130
g84
S'MDMMMMMUMMMMMMMMMUMMMMMMMMMMMMMMMMUMMMMMMMMDMMMMMMUMMMMMMMDMMMMMMMDMDM'
p131
ssg59
(dp132
g84
S'MDMMMMMMMMMMMMMMMMMMMMMMMMMMMMMMMMUMMUMMMMMDMMMMMMUMMMMMMMDMMMMMMMDMDM'
p133
ssg61
(dp134
g84
S'MDMMMMMMMMMMMMMMMMMMMMMMMMMMMMMMMMUMMMMMMMMDMMMMMMUMMMMMMMDMMMMMMMDMDM'
p135
ssg63
(dp136
g84
S'MDMMMMMMMMMMMMMMMMMMMMMMMMMMMMMMMMMMMMMMMMMDMMMMMUUMMMMMMMDMMMMMMMDMDM'
p137
ssg65
(dp138
g84
S'MDMMMMMMMMMMMMMMMMUMMMUMMMMMMMMMMMMMMMUUMMMUMMMMMMMMMMMUUMDMMMMMMMDMDM'
p139
ssg67
(dp140
g84
S'MDMMMUMUMMMMMMMMMUMMMMMMMMMMMMMMMMUMMMMMUMMDUMMMMMUMMMMMMMDMMUMMMMDMDM'
p141
ssg69
(dp142
g84
S'MDMMMMMMMMMMMMMMMMMMMMMMMMMMMMMMMMUMMMMMMMUDMMMMMMUMUMMMMMDMMMMMMMDMDM'
p143
ssg71
(dp144
g84
S'MDMMUMMMMMMMMMMMUMMMMMUMMMMMMMUMMMMMMMMUMMMUMMUMMMMMMMMUMMDMMMMMMMDMDM'
p145
ssg73
(dp146
g84
S'MDMMMMMMUMMMMMMMMMUMMUUMUMMMMMMUMMMMMMMUMMMDMMMMMMUMMMMUMMDMMMMMMMDMDM'
p147
ssg75
(dp148
g84
S'MDMMMMMMMMMMMMMMMMUMMMMUMMMMMMMMUMMMMMUMMMMUMUMMMMMMMMMMUUDMUMMMMMDMDM'
p149
sssg11
(dp150
g8
g83
sg19
(dp151
g84
S'MMMMMMMMMDMUDMMMMMMMMMMDMUMMMDMMMMUMMMMMMMUDMMMMMMUMMMMMMDMMMMMMMMMMDU'
p152
ssg13
(dp153
g84
S'MMMMMDMDMMMUMDMMMDMMMMMMMUMMMMMMMMDMMMMMMMUDDMMMMMUMMMMMMMMMMMMMDMMMMU'
p154
ssg15
(dp155
g84
S'MMMMMDDDMMMUMMMMMMMDMMDMMUMMMMMMMMUMMMMDMMUDMMMDMDUMMMMDMMMMMDMMMMMMMU'
p156
ssg17
(dp157
g84
S'MMMMMMMMMMMUMMMMMMMMMMMMMUMMMMMMMDDMMMMMMMUMMMMMMMUMMMMMMMMMMMMMMMMMMU'
p158
ssg25
(dp159
g84
S'MMMMMMMMMMMDMMMMMUMMMMMMMDMMMMMMMMUMUMMMUMDDUMMMMMDMMMUMMMMMMMMMMMMMMD'
p160
ssg21
(dp161
g84
S'MMMMMMMMUMMDMMMMMMMMMMMMMDMMMMMMMMDMMMMMMMDUMMMMMMDMMMMMMMMMMMMMMMMUMD'
p162
ssg23
(dp163
g84
S'MMMMMMMMMMMDMMMMMMMMMMMMMDMMMMMMMMDMMMMUMMDUMUMMMMDMMMMMMUMMMMUMMMMMUD'
p164
ssg27
(dp165
g84
S'MMUMMMMMMMMDMMMMMUMMMMMMMDMMMMMMMMDMMMMMMMDUMMMMMMDMMMMMMMMMMMMMMMMMMD'
p166
ssg29
(dp167
g84
S'UMMMMMMUMMMDMMUMMUUMUMUMMDMMUMUMMMDMMMUUMMUUUMMMMMDMUMMUMMUMMMMMUMMMUD'
p168
ssg31
(dp169
g84
S'MMMMMMMMMMMDUMMMMMMMMMMMMDMMMMMMMMDMMMMMMMDUMUMMMMDMMMMMMUMMMMMMMMMMUD'
p170
ssg33
(dp171
g84
S'MMMMMMMMMMMDMMMMMUMMMMMMMDMMMMMMMMDMMMMMMMDUMMMMMMDMMMMMMMMMMMMMMMMMMD'
p172
ssg35
(dp173
g84
S'MMMMMMMMMMMDMMMMMMMMMMMMMDMMMMMMMMDMMMMMMMDUMMMMMMDMMMMMMMMMMMMMMMMMMD'
p174
ssg37
(dp175
g84
S'MMMMMMMMMMMDMMMMMMMMMMMMMDMMMMMMMMUMMMMMMMDUMMMMMMDMMMMMMMMMMMMMMMMMMD'
p176
ssg39
(dp177
g84
S'MMMMMMMMMMMDMMMMMUMMMMMMMDMMMMMMMMUMMMMMUMDDUMMMMMDMMMMMMMMUMMMMMMMMMD'
p178
ssg41
(dp179
g84
S'MMUMMMMMMMMDMMMUMUMMMMMMMDMMMMMMMMDMMMMMMUDUMMMMMMDMMMMMMMMMMMMMMMMMMD'
p180
ssg43
(dp181
g84
S'MMMMMMMMMMMDMMMMMMMMMMMMMDMMMMMMMMDMMMMMMMDUMMMMMMDMMUMMMMUMMMMMMMMMUD'
p182
ssg45
(dp183
g84
S'MMMMMMUMMMMDMMMMMMMUMMUMMDMUMMUMMMDMMMMUMMDUMMMMMMDMMMMUMMMMMMMMMMMMMD'
p184
ssg47
(dp185
g84
S'MMMMMMMMMMMUMMMMMMMMMMMMMDMMMMMMMMUMMMMMMMDDMMMMMMUMMMMMMMMMMMMMMMMMMD'
p186
ssg49
(dp187
g84
S'MMMUMMMMMMMDMMMMUMMMMMMMMDMMMMUMMMDUMMMUMMDUMMMMUMDMMUMMMMUMMMMUMUMMUD'
p188
ssg51
(dp189
g84
S'MMMMMMMMMMUDMMMMMMMMMMMMMDMMMMMMMMUMMMMMMMDUMMMMMMDUMMMMMMMMMMMMMMMMMD'
p190
ssg53
(dp191
g84
S'MMMMMMMMMMMDMMMMMMMMMUUMMDMMMMMMMMDMMMMUMMDUMMMMMMDMMMMUMMMMMMMMMMMMMD'
p192
ssg55
(dp193
g84
S'MMMMMMMMMMMDMMMMMMMMMMMUMDUMMMMMUMDMMMUMMMDUMMMMMMDMMMMMMUUMMMMMMMMMUD'
p194
ssg57
(dp195
g84
S'MMMMMMMUMMMDMMMMMUMMMMMMMDMMMMMMMMDMMMMMMMDUMMMMMMDMMMMMMMMMMMMMMMMMMD'
p196
ssg59
(dp197
g84
S'MMMMMMMMMMMDMMMMMMMMMMMMMDMMMMMMMMDMMUMMMMDMMMMMMMUMMMMMMMMMMMMMMMMMMD'
p198
ssg61
(dp199
g84
S'MMMMMMMMMMMDMMMMMMMMMMMMMDMMMMMMMMMMMMMMMMDDMMMMMMUMMMMMMMMMMMMMMMMMMD'
p200
ssg63
(dp201
g84
S'MMMMMMMMMMMDMMMMMMMMMMMMMDMMMMMMMMDMMMMMMMDUMMMMMUDMMMMMMMMMMMMMMMMMMD'
p202
ssg65
(dp203
g84
S'MMMMMMMMMMMDMMMMMMUMMMUMMDMMMMMMMMDMMMUUMMDUMMMMMMDMMMMUUMMMMMMMMMMMUD'
p204
ssg67
(dp205
g84
S'MMMMMUMUMMMDMMMMMUMMMMMMMDMMMMMMMMUMMMMMUMDUUMMMMMDMMMMMMMMMMUMMMMMMMD'
p206
ssg69
(dp207
g84
S'MMMMMMMMMMMDMMMMMMMMMMMMMDMMMMMMMMUMMMMMMMUMMMMMMMDMUMMMMMMMMMMMMMMMMD'
p208
ssg71
(dp209
g84
S'MMMMUMMMMMMDMMMMUMMMMMUMMDMMMMUMMMDMMMMUMMDUMMUMMMDMMMMUMMMMMMMMMMMMMD'
p210
ssg73
(dp211
g84
S'MMMMMMMMUMMDMMMMMMUMMUUMUDMMMMMUMMDMMMMUMMDUMMMMMMDMMMMUMMMMMMMMMMMMUD'
p212
ssg75
(dp213
g84
S'MMMMMMMMMMMDMMMMMMUMMMMUMDMMMMMMUMDMMMUMMMDUMUMMMMDMMMMMUUUMUMMMMMMMUD'
p214
sssg13
(dp215
g8
g86
sg11
g153
sg15
(dp216
g84
S'MMMMMUUUMMMDMDMMMDMUMMUMMMMMMMMMMMDMMMMUMMDUDMMUMUDMMMMUMMMMMUMMDMMMMM'
p217
ssg17
(dp218
g84
S'MMMMMDMDMMMDMDMMMDMMMMMMMMMMMMMMMUUMMMMMMMDDDMMMMMUMMMMMMMMMMMMMDMMMMM'
p219
ssg19
(dp220
g84
S'MMMMMUMUMDMUDUMMMUMMMMMDMMMMMDMMMMUMMMMMMMUDUMMMMMUMMMMMMDMMMMMMUMMMDM'
p221
ssg21
(dp222
g84
S'MMMMMDMDUMMDMDMMMDMMMMMMMMMMMMMMMMDMMMMMMMDUDMMMMMDMMMMMMMMMMMMMDMMUMM'
p223
ssg23
(dp224
g84
S'MMMMMDMDMMMDMDMMMDMMMMMMMMMMMMMMMMDMMMMUMMDUDUMMMMDMMMMMMUMMMMUMDMMMUM'
p225
ssg25
(dp226
g84
S'MMMMMDMDMMMDMDMMMUMMMMMMMMMMMMMMMMUMUMMMUMDDUMMMMMUMMMUMMMMMMMMMDMMMMM'
p227
ssg27
(dp228
g84
S'MMUMMDMDMMMDMDMMMMMMMMMMMMMMMMMMMMDMMMMMMMDUDMMMMMDMMMMMMMMMMMMMDMMMMM'
p229
ssg29
(dp230
g84
S'UMMMMDMUMMMDMDUMMDUMUMUMMMMMUMUMMMDMMMUUMMUUDMMMMMDMUMMUMMUMMMMMDMMMUM'
p231
ssg31
(dp232
g84
S'MMMMMDMDMMMDUDMMMDMMMMMMMMMMMMMMMMDMMMMMMMDUDUMMMMDMMMMMMUMMMMMMDMMMUM'
p233
ssg33
(dp234
g84
S'MMMMMDMDMMMDMDMMMDMMMMMMMMMMMMMMMMDMMMMMMMDUDMMMMMDMMMMMMMMMMMMMDMMMMM'
p235
ssg35
(dp236
g84
S'MMMMMDMDMMMDMDMMMDMMMMMMMMMMMMMMMMDMMMMMMMDUDMMMMMDMMMMMMMMMMMMMDMMMMM'
p237
ssg37
(dp238
g84
S'MMMMMDMDMMMDMDMMMDMMMMMMMMMMMMMMMMUMMMMMMMDDDMMMMMUMMMMMMMMMMMMMDMMMMM'
p239
ssg39
(dp240
g84
S'MMMMMDMDMMMDMDMMMUMMMMMMMMMMMMMMMMUMMMMMUMDDUMMMMMUMMMMMMMMUMMMMDMMMMM'
p241
ssg41
(dp242
g84
S'MMUMMDMDMMMDMDMUMUMMMMMMMMMMMMMMMMDMMMMMMUDUDMMMMMDMMMMMMMMMMMMMDMMMMM'
p243
ssg43
(dp244
g84
S'MMMMMDMDMMMDMDMMMDMMMMMMMMMMMMMMMMDMMMMMMMDUDMMMMMDMMUMMMMUMMMMMDMMMUM'
p245
ssg45
(dp246
g84
S'MMMMMDUDMMMDMDMMMDMUMMUMMMMUMMUMMMDMMMMUMMDUDMMMMMDMMMMUMMMMMMMMDMMMMM'
p247
ssg47
(dp248
g84
S'MMMMMDMDMMMUMDMMMDMMMMMMMMMMMMMMMMMMMMMMMMDDDMMMMMUMMMMMMMMMMMMMDMMMMM'
p249
ssg49
(dp250
g84
S'MMMUMDMDMMMDMDMMUDMMMMMMMMMMMMUMMMDUMMMUMMDUDMMMUMDMMUMMMMUMMMMUDUMMUM'
p251
ssg51
(dp252
g84
S'MMMMMDMDMMUDMDMMMDMMMMMMMMMMMMMMMMUMMMMMMMDDDMMMMMUUMMMMMMMMMMMMDMMMMM'
p253
ssg53
(dp254
g84
S'MMMMMDMDMMMDMDMMMDMMMUUMMMMMMMMMMMDMMMMUMMDUDMMMMMDMMMMUMMMMMMMMDMMMMM'
p255
ssg55
(dp256
g84
S'MMMMMDMDMMMDMDMMMDMMMMMUMMUMMMMMUMDMMMUMMMDUDMMMMMDMMMMMMUUMMMMMDMMMUM'
p257
ssg57
(dp258
g84
S'MMMMMDMUMMMDMDMMMDMMMMMMMMMMMMMMMMDMMMMMMMDUDMMMMMDMMMMMMMMMMMMMDMMMMM'
p259
ssg59
(dp260
g84
S'MMMMMDMDMMMDMDMMMDMMMMMMMMMMMMMMMMDMMUMMMMDDDMMMMMUMMMMMMMMMMMMMDMMMMM'
p261
ssg61
(dp262
g84
S'MMMMMDMDMMMDMDMMMDMMMMMMMMMMMMMMMMDMMMMMMMDDDMMMMMUMMMMMMMMMMMMMDMMMMM'
p263
ssg63
(dp264
g84
S'MMMMMDMDMMMDMDMMMDMMMMMMMMMMMMMMMMDMMMMMMMDUDMMMMUDMMMMMMMMMMMMMDMMMMM'
p265
ssg65
(dp266
g84
S'MMMMMDMDMMMDMDMMMDUMMMUMMMMMMMMMMMDMMMUUMMDUDMMMMMDMMMMUUMMMMMMMDMMMUM'
p267
ssg67
(dp268
g84
S'MMMMMUMDMMMDMDMMMDMMMMMMMMMMMMMMMMUMMMMMUMDDUMMMMMDMMMMMMMMMMUMMDMMMMM'
p269
ssg69
(dp270
g84
S'MMMMMDMDMMMDMDMMMDMMMMMMMMMMMMMMMMUMMMMMMMUDDMMMMMUMUMMMMMMMMMMMDMMMMM'
p271
ssg71
(dp272
g84
S'MMMMUDMDMMMDMDMMUDMMMMUMMMMMMMUMMMDMMMMUMMDUDMUMMMDMMMMUMMMMMMMMDMMMMM'
p273
ssg73
(dp274
g84
S'MMMMMDMDUMMDMDMMMDUMMUUMUMMMMMMUMMDMMMMUMMDUDMMMMMDMMMMUMMMMMMMMDMMMUM'
p275
ssg75
(dp276
g84
S'MMMMMDMDMMMDMDMMMDUMMMMUMMMMMMMMUMDMMMUMMMDUDUMMMMDMMMMMUUUMUMMMDMMMUM'
p277
sssg15
(dp278
g8
g88
sg11
g155
sg13
g216
sg17
(dp279
g84
S'MMMMMDDDMMMMMMMMMMMDMMDMMMMMMMMMMUUMMMMDMMMDMMMDMDUMMMMDMMMMMDMMMMMMMM'
p280
ssg19
(dp281
g84
S'MMMMMUUUMDMMDMMMMMMUMMUDMMMMMDMMMMUMMMMUMMMDMMMUMUUMMMMUMDMMMUMMMMMMDM'
p282
ssg21
(dp283
g84
S'MMMMMDDDUMMMMMMMMMMDMMDMMMMMMMMMMMDMMMMDMMMUMMMDMDDMMMMDMMMMMDMMMMMUMM'
p284
ssg23
(dp285
g84
S'MMMMMDDDMMMMMMMMMMMDMMDMMMMMMMMMMMDMMMMDMMMUMUMDMDDMMMMDMUMMMDUMMMMMUM'
p286
ssg25
(dp287
g84
S'MMMMMDDDMMMMMMMMMUMDMMDMMMMMMMMMMMUMUMMDUMMDUMMDMDUMMMUDMMMMMDMMMMMMMM'
p288
ssg27
(dp289
g84
S'MMUMMDDDMMMMMMMMMUMDMMDMMMMMMMMMMMUMMMMDMMMDMMMDMDUMMMMDMMMMMDMMMMMMMM'
p290
ssg29
(dp291
g84
S'UMMMMDDDMMMMMMUMMUUDUMDMMMMMUMUMMMUMMMUDMMUDUMMDMDUMUMMDMMUMMDMMUMMMUM'
p292
ssg31
(dp293
g84
S'MMMMMDDDMMMMUMMMMMMDMMDMMMMMMMMMMMDMMMMDMMMUMUMDMDDMMMMDMUMMMDMMMMMMUM'
p294
ssg33
(dp295
g84
S'MMMMMDDDMMMMMMMMMUMDMMDMMMMMMMMMMMUMMMMDMMMDMMMDMDUMMMMDMMMMMDMMMMMMMM'
p296
ssg35
(dp297
g84
S'MMMMMDDDMMMMMMMMMMMDMMDMMMMMMMMMMMDMMMMDMMMUMMMDMDDMMMMDMMMMMDMMMMMMMM'
p298
ssg37
(dp299
g84
S'MMMMMDDDMMMMMMMMMMMDMMDMMMMMMMMMMMUMMMMDMMMDMMMDMDUMMMMDMMMMMDMMMMMMMM'
p300
ssg39
(dp301
g84
S'MMMMMDDDMMMMMMMMMUMDMMDMMMMMMMMMMMUMMMMDUMMDUMMDMDUMMMMDMMMUMDMMMMMMMM'
p302
ssg41
(dp303
g84
S'MMUMMDDDMMMMMMMUMUMDMMDMMMMMMMMMMMUMMMMDMUMDMMMDMDUMMMMDMMMMMDMMMMMMMM'
p304
ssg43
(dp305
g84
S'MMMMMDDDMMMMMMMMMMMDMMDMMMMMMMMMMMDMMMMDMMMUMMMDMDDMMUMDMMUMMDMMMMMMUM'
p306
ssg45
(dp307
g84
S'MMMMMDUDMMMMMMMMMMMMMMUMMMMUMMUMMMDMMMMUMMMUMMMDMDDMMMMUMMMMMDMMMMMMMM'
p308
ssg47
(dp309
g84
S'MMMMMDDDMMMUMMMMMMMDMMDMMMMMMMMMMMUMMMMDMMMDMMMDMDUMMMMDMMMMMDMMMMMMMM'
p310
ssg49
(dp311
g84
S'MMMUMDDDMMMMMMMMUMMDMMDMMMMMMMUMMMDUMMMDMMMUMMMDUDDMMUMDMMUMMDMUMUMMUM'
p312
ssg51
(dp313
g84
S'MMMMMDDDMMUMMMMMMMMDMMDMMMMMMMMMMMUMMMMDMMMDMMMDMDUUMMMDMMMMMDMMMMMMMM'
p314
ssg53
(dp315
g84
S'MMMMMDDDMMMMMMMMMMMDMUUMMMMMMMMMMMDMMMMUMMMUMMMDMDDMMMMUMMMMMDMMMMMMMM'
p316
ssg55
(dp317
g84
S'MMMMMDDDMMMMMMMMMMMDMMDUMMUMMMMMUMDMMMUDMMMUMMMDMDDMMMMDMUUMMDMMMMMMUM'
p318
ssg57
(dp319
g84
S'MMMMMDDDMMMMMMMMMUMDMMDMMMMMMMMMMMUMMMMDMMMDMMMDMDUMMMMDMMMMMDMMMMMMMM'
p320
ssg59
(dp321
g84
S'MMMMMDDDMMMMMMMMMMMDMMDMMMMMMMMMMMUMMUMDMMMDMMMDMDUMMMMDMMMMMDMMMMMMMM'
p322
ssg61
(dp323
g84
S'MMMMMDDDMMMMMMMMMMMDMMDMMMMMMMMMMMUMMMMDMMMDMMMDMDUMMMMDMMMMMDMMMMMMMM'
p324
ssg63
(dp325
g84
S'MMMMMDDDMMMMMMMMMMMDMMDMMMMMMMMMMMDMMMMDMMMUMMMDMUDMMMMDMMMMMDMMMMMMMM'
p326
ssg65
(dp327
g84
S'MMMMMDDDMMMMMMMMMMUDMMDMMMMMMMMMMMDMMMUMMMMUMMMDMDDMMMMDUMMMMDMMMMMMUM'
p328
ssg67
(dp329
g84
S'MMMMMDDDMMMMMMMMMUMDMMDMMMMMMMMMMMUMMMMDUMMDUMMDMDUMMMMDMMMMMUMMMMMMMM'
p330
ssg69
(dp331
g84
S'MMMMMDDDMMMMMMMMMMMDMMDMMMMMMMMMMMUMMMMDMMUDMMMDMDUMUMMDMMMMMDMMMMMMMM'
p332
ssg71
(dp333
g84
S'MMMMUDDDMMMMMMMMUMMDMMMMMMMMMMUMMMDMMMMUMMMUMMUDMDDMMMMUMMMMMDMMMMMMMM'
p334
ssg73
(dp335
g84
S'MMMMMDDDUMMMMMMMMMUDMUDMUMMMMMMUMMDMMMMDMMMUMMMDMDDMMMMDMMMMMDMMMMMMUM'
p336
ssg75
(dp337
g84
S'MMMMMDDDMMMMMMMMMMUDMMDUMMMMMMMMUMDMMMUDMMMUMUMDMDDMMMMDUUUMUDMMMMMMUM'
p338
sssg17
(dp339
g8
g90
sg11
g157
sg13
g218
sg15
g279
sg19
(dp340
g84
S'MMMMMMMMMDMMDMMMMMMMMMMDMMMMMDMMMUUMMMMMMMMDMMMMMMUMMMMMMDMMMMMMMMMMDM'
p341
ssg21
(dp342
g84
S'MMMMMMMMUMMMMMMMMMMMMMMMMMMMMMMMMDDMMMMMMMMUMMMMMMDMMMMMMMMMMMMMMMMUMM'
p343
ssg23
(dp344
g84
S'MMMMMMMMMMMMMMMMMMMMMMMMMMMMMMMMMDDMMMMUMMMUMUMMMMDMMMMMMUMMMMUMMMMMUM'
p345
ssg25
(dp346
g84
S'MMMMMMMMMMMMMMMMMUMMMMMMMMMMMMMMMDUMUMMMUMMDUMMMMMDMMMUMMMMMMMMMMMMMMM'
p347
ssg27
(dp348
g84
S'MMUMMMMMMMMMMMMMMUMMMMMMMMMMMMMMMDDMMMMMMMMUMMMMMMDMMMMMMMMMMMMMMMMMMM'
p349
ssg29
(dp350
g84
S'UMMMMMMUMMMMMMUMMUUMUMUMMMMMUMUMMDDMMMUUMMUUUMMMMMDMUMMUMMUMMMMMUMMMUM'
p351
ssg31
(dp352
g84
S'MMMMMMMMMMMMUMMMMMMMMMMMMMMMMMMMMDDMMMMMMMMUMUMMMMDMMMMMMUMMMMMMMMMMUM'
p353
ssg33
(dp354
g84
S'MMMMMMMMMMMMMMMMMUMMMMMMMMMMMMMMMDDMMMMMMMMUMMMMMMDMMMMMMMMMMMMMMMMMMM'
p355
ssg35
(dp356
g84
S'MMMMMMMMMMMMMMMMMMMMMMMMMMMMMMMMMDDMMMMMMMMUMMMMMMDMMMMMMMMMMMMMMMMMMM'
p357
ssg37
(dp358
g84
S'MMMMMMMMMMMMMMMMMMMMMMMMMMMMMMMMMDDMMMMMMMMUMMMMMMDMMMMMMMMMMMMMMMMMMM'
p359
ssg39
(dp360
g84
S'MMMMMMMMMMMMMMMMMUMMMMMMMMMMMMMMMDUMMMMMUMMDUMMMMMMMMMMMMMMUMMMMMMMMMM'
p361
ssg41
(dp362
g84
S'MMUMMMMMMMMMMMMUMUMMMMMMMMMMMMMMMDDMMMMMMUMUMMMMMMDMMMMMMMMMMMMMMMMMMM'
p363
ssg43
(dp364
g84
S'MMMMMMMMMMMMMMMMMMMMMMMMMMMMMMMMMDDMMMMMMMMUMMMMMMDMMUMMMMUMMMMMMMMMUM'
p365
ssg45
(dp366
g84
S'MMMMMMUMMMMMMMMMMMMUMMUMMMMUMMUMMDDMMMMUMMMUMMMMMMDMMMMUMMMMMMMMMMMMMM'
p367
ssg47
(dp368
g84
S'MMMMMMMMMMMUMMMMMMMMMMMMMMMMMMMMMDDMMMMMMMMDMMMMMMUMMMMMMMMMMMMMMMMMMM'
p369
ssg49
(dp370
g84
S'MMMUMMMMMMMMMMMMUMMMMMMMMMMMMMUMMDDUMMMUMMMUMMMMUMDMMUMMMMUMMMMUMUMMUM'
p371
ssg51
(dp372
g84
S'MMMMMMMMMMUMMMMMMMMMMMMMMMMMMMMMMDDMMMMMMMMUMMMMMMDUMMMMMMMMMMMMMMMMMM'
p373
ssg53
(dp374
g84
S'MMMMMMMMMMMMMMMMMMMMMUUMMMMMMMMMMDDMMMMUMMMUMMMMMMDMMMMUMMMMMMMMMMMMMM'
p375
ssg55
(dp376
g84
S'MMMMMMMMMMMMMMMMMMMMMMMUMMUMMMMMUDDMMMUMMMMUMMMMMMDMMMMMMUUMMMMMMMMMUM'
p377
ssg57
(dp378
g84
S'MMMMMMMUMMMMMMMMMUMMMMMMMMMMMMMMMDDMMMMMMMMUMMMMMMDMMMMMMMMMMMMMMMMMMM'
p379
ssg59
(dp380
g84
S'MMMMMMMMMMMMMMMMMMMMMMMMMMMMMMMMMDDMMUMMMMMMMMMMMMUMMMMMMMMMMMMMMMMMMM'
p381
ssg61
(dp382
g84
S'MMMMMMMMMMMMMMMMMMMMMMMMMMMMMMMMMDDMMMMMMMMDMMMMMMUMMMMMMMMMMMMMMMMMMM'
p383
ssg63
(dp384
g84
S'MMMMMMMMMMMMMMMMMMMMMMMMMMMMMMMMMDDMMMMMMMMUMMMMMUDMMMMMMMMMMMMMMMMMMM'
p385
ssg65
(dp386
g84
S'MMMMMMMMMMMMMMMMMMUMMMUMMMMMMMMMMDDMMMUUMMMUMMMMMMDMMMMUUMMMMMMMMMMMUM'
p387
ssg67
(dp388
g84
S'MMMMMUMUMMMMMMMMMUMMMMMMMMMMMMMMMDDMMMMMUMMUUMMMMMDMMMMMMMMMMUMMMMMMMM'
p389
ssg69
(dp390
g84
S'MMMMMMMMMMMMMMMMMMMMMMMMMMMMMMMMMDUMMMMMMMUUMMMMMMDMUMMMMMMMMMMMMMMMMM'
p391
ssg71
(dp392
g84
S'MMMMUMMMMMMMMMMMUMMMMMUMMMMMMMUMMDDMMMMUMMMUMMUMMMDMMMMUMMMMMMMMMMMMMM'
p393
ssg73
(dp394
g84
S'MMMMMMMMUMMMMMMMMMUMMUUMUMMMMMMUMDDMMMMUMMMUMMMMMMDMMMMUMMMMMMMMMMMMUM'
p395
ssg75
(dp396
g84
S'MMMMMMMMMMMMMMMMMMUMMMMUMMMMMMMMUDDMMMUMMMMUMUMMMMDMMMMMUUUMUMMMMMMMUM'
p397
sssg19
(dp398
g8
g92
sg11
g151
sg13
g220
sg15
g281
sg17
g340
sg25
(dp399
g84
S'MMMMMMMMMDMMDMMMMUMMMMMDMMMMMDMMMMUMUMMMUMMDUMMMMMUMMMUMMDMMMMMMMMMMDM'
p400
ssg21
(dp401
g84
S'MMMMMMMMUDMMDMMMMMMMMMMDMMMMMDMMMMMMMMMMMMMDMMMMMMUMMMMMMDMMMMMMMMMUDM'
p402
ssg23
(dp403
g84
S'MMMMMMMMMDMMDMMMMMMMMMMDMMMMMDMMMMMMMMMUMMMDMUMMMMMMMMMMMUMMMMUMMMMMUM'
p404
ssg27
(dp405
g84
S'MMUMMMMMMDMMDMMMMUMMMMMDMMMMMDMMMMUMMMMMMMMDMMMMMMUMMMMMMDMMMMMMMMMMDM'
p406
ssg29
(dp407
g84
S'UMMMMMMUMDMMDMUMMUUMUMUDMMMMUDUMMMUMMMUUMMUDUMMMMMUMUMMUMDUMMMMMUMMMUM'
p408
ssg31
(dp409
g84
S'MMMMMMMMMDMMUMMMMMMMMMMDMMMMMDMMMMMMMMMMMMMDMUMMMMMMMMMMMUMMMMMMMMMMUM'
p410
ssg33
(dp411
g84
S'MMMMMMMMMDMMDMMMMUMMMMMDMMMMMDMMMMUMMMMMMMMDMMMMMMUMMMMMMDMMMMMMMMMMDM'
p412
ssg35
(dp413
g84
S'MMMMMMMMMDMMDMMMMMMMMMMDMMMMMDMMMMMMMMMMMMMDMMMMMMUMMMMMMDMMMMMMMMMMDM'
p414
ssg37
(dp415
g84
S'MMMMMMMMMDMMDMMMMMMMMMMDMMMMMDMMMMUMMMMMMMMDMMMMMMUMMMMMMDMMMMMMMMMMDM'
p416
ssg39
(dp417
g84
S'MMMMMMMMMDMMDMMMMUMMMMMDMMMMMDMMMMUMMMMMUMMDUMMMMMUMMMMMMDMUMMMMMMMMDM'
p418
ssg41
(dp419
g84
S'MMUMMMMMMDMMDMMUMUMMMMMDMMMMMDMMMMUMMMMMMUMDMMMMMMUMMMMMMDMMMMMMMMMMDM'
p420
ssg43
(dp421
g84
S'MMMMMMMMMDMMDMMMMMMMMMMDMMMMMDMMMMMMMMMMMMMDMMMMMMMMMUMMMDUMMMMMMMMMUM'
p422
ssg45
(dp423
g84
S'MMMMMMUMMDMMDMMMMMMUMMUDMMMUMDUMMMMMMMMUMMMDMMMMMMMMMMMUMDMMMMMMMMMMDM'
p424
ssg47
(dp425
g84
S'MMMMMMMMMDMUDMMMMMMMMMMDMMMMMDMMMMUMMMMMMMMDMMMMMMUMMMMMMDMMMMMMMMMMDM'
p426
ssg49
(dp427
g84
S'MMMUMMMMMDMMDMMMUMMMMMMDMMMMMDUMMMMUMMMUMMMDMMMMUMMMMUMMMDUMMMMUMUMMUM'
p428
ssg51
(dp429
g84
S'MMMMMMMMMDUMDMMMMMMMMMMDMMMMMDMMMMUMMMMMMMMDMMMMMMUUMMMMMDMMMMMMMMMMDM'
p430
ssg53
(dp431
g84
S'MMMMMMMMMDMMDMMMMMMMMUUDMMMMMDMMMMMMMMMUMMMDMMMMMMUMMMMUMDMMMMMMMMMMDM'
p432
ssg55
(dp433
g84
S'MMMMMMMMMDMMDMMMMMMMMMMUMMUMMDMMUMMMMMUMMMMDMMMMMMMMMMMMMDUMMMMMMMMMUM'
p434
ssg57
(dp435
g84
S'MMMMMMMUMDMMDMMMMUMMMMMDMMMMMDMMMMUMMMMMMMMDMMMMMMUMMMMMMDMMMMMMMMMMDM'
p436
ssg59
(dp437
g84
S'MMMMMMMMMDMMDMMMMMMMMMMDMMMMMDMMMMUMMUMMMMMDMMMMMMUMMMMMMDMMMMMMMMMMDM'
p438
ssg61
(dp439
g84
S'MMMMMMMMMDMMDMMMMMMMMMMDMMMMMDMMMMUMMMMMMMMDMMMMMMUMMMMMMDMMMMMMMMMMDM'
p440
ssg63
(dp441
g84
S'MMMMMMMMMDMMDMMMMMMMMMMDMMMMMDMMMMMMMMMMMMMDMMMMMUUMMMMMMDMMMMMMMMMMDM'
p442
ssg65
(dp443
g84
S'MMMMMMMMMDMMDMMMMMUMMMUDMMMMMDMMMMMMMMUUMMMDMMMMMMMMMMMUUDMMMMMMMMMMUM'
p444
ssg67
(dp445
g84
S'MMMMMUMUMDMMDMMMMUMMMMMDMMMMMDMMMMUMMMMMUMMDUMMMMMUMMMMMMDMMMUMMMMMMDM'
p446
ssg69
(dp447
g84
S'MMMMMMMMMDMMDMMMMMMMMMMDMMMMMDMMMMUMMMMMMMUDMMMMMMUMUMMMMDMMMMMMMMMMDM'
p448
ssg71
(dp449
g84
S'MMMMUMMMMDMMDMMMUMMMMMUDMMMMMDUMMMMMMMMUMMMDMMUMMMMMMMMUMDMMMMMMMMMMDM'
p450
ssg73
(dp451
g84
S'MMMMMMMMUDMMDMMMMMUMMUUDUMMMMDMUMMMMMMMUMMMDMMMMMMUMMMMUMDMMMMMMMMMMMM'
p452
ssg75
(dp453
g84
S'MMMMMMMMMDMMDMMMMMUMMMMMMMMMMDMMUMMMMMUMMMMDMUMMMMMMMMMMUUUMUMMMMMMMUM'
p454
sssg21
(dp455
g8
g94
sg11
g161
sg13
g222
sg15
g283
sg17
g342
sg19
g401
sg23
(dp456
g84
S'MMMMMMMMDMMMMMMMMMMMMMMMMMMMMMMMMMMMMMMUMMMUMUMMMMDMMMMMMUMMMMUMMMMDUM'
p457
ssg25
(dp458
g84
S'MMMMMMMMDMMMMMMMMUMMMMMMMMMMMMMMMMUMUMMMUMMDUMMMMMUMMMUMMMMMMMMMMMMDMM'
p459
ssg27
(dp460
g84
S'MMUMMMMMDMMMMMMMMUMMMMMMMMMMMMMMMMUMMMMMMMMDMMMMMMUMMMMMMMMMMMMMMMMDMM'
p461
ssg29
(dp462
g84
S'UMMMMMMUDMMMMMUMMUUMUMUMMMMMUMUMMMUMMMUUMMUDUMMMMMUMUMMUMMUMMMMMUMMDUM'
p463
ssg31
(dp464
g84
S'MMMMMMMMDMMMUMMMMMMMMMMMMMMMMMMMMMMMMMMMMMMUMUMMMMDMMMMMMUMMMMMMMMMDUM'
p465
ssg33
(dp466
g84
S'MMMMMMMMDMMMMMMMMUMMMMMMMMMMMMMMMMUMMMMMMMMDMMMMMMUMMMMMMMMMMMMMMMMDMM'
p467
ssg35
(dp468
g84
S'MMMMMMMMDMMMMMMMMMMMMMMMMMMMMMMMMMMMMMMMMMMDMMMMMMUMMMMMMMMMMMMMMMMDMM'
p469
ssg37
(dp470
g84
S'MMMMMMMMDMMMMMMMMMMMMMMMMMMMMMMMMMUMMMMMMMMDMMMMMMUMMMMMMMMMMMMMMMMDMM'
p471
ssg39
(dp472
g84
S'MMMMMMMMDMMMMMMMMUMMMMMMMMMMMMMMMMUMMMMMUMMDUMMMMMUMMMMMMMMUMMMMMMMDMM'
p473
ssg41
(dp474
g84
S'MMUMMMMMDMMMMMMUMUMMMMMMMMMMMMMMMMUMMMMMMUMDMMMMMMUMMMMMMMMMMMMMMMMDMM'
p475
ssg43
(dp476
g84
S'MMMMMMMMDMMMMMMMMMMMMMMMMMMMMMMMMMMMMMMMMMMUMMMMMMDMMUMMMMUMMMMMMMMDUM'
p477
ssg45
(dp478
g84
S'MMMMMMUMDMMMMMMMMMMUMMUMMMMUMMUMMMMMMMMUMMMUMMMMMMDMMMMUMMMMMMMMMMMDMM'
p479
ssg47
(dp480
g84
S'MMMMMMMMDMMUMMMMMMMMMMMMMMMMMMMMMMUMMMMMMMMDMMMMMMUMMMMMMMMMMMMMMMMDMM'
p481
ssg49
(dp482
g84
S'MMMUMMMMDMMMMMMMUMMMMMMMMMMMMMUMMMMUMMMUMMMUMMMMUMDMMUMMMMUMMMMUMUMDUM'
p483
ssg51
(dp484
g84
S'MMMMMMMMDMUMMMMMMMMMMMMMMMMMMMMMMMUMMMMMMMMDMMMMMMUUMMMMMMMMMMMMMMMDMM'
p485
ssg53
(dp486
g84
S'MMMMMMMMDMMMMMMMMMMMMUUMMMMMMMMMMMMMMMMUMMMUMMMMMMDMMMMUMMMMMMMMMMMDMM'
p487
ssg55
(dp488
g84
S'MMMMMMMMDMMMMMMMMMMMMMMUMMUMMMMMUMMMMMUMMMMUMMMMMMDMMMMMMUUMMMMMMMMDUM'
p489
ssg57
(dp490
g84
S'MMMMMMMUDMMMMMMMMUMMMMMMMMMMMMMMMMUMMMMMMMMDMMMMMMUMMMMMMMMMMMMMMMMDMM'
p491
ssg59
(dp492
g84
S'MMMMMMMMDMMMMMMMMMMMMMMMMMMMMMMMMMUMMUMMMMMDMMMMMMUMMMMMMMMMMMMMMMMDMM'
p493
ssg61
(dp494
g84
S'MMMMMMMMDMMMMMMMMMMMMMMMMMMMMMMMMMUMMMMMMMMDMMMMMMUMMMMMMMMMMMMMMMMDMM'
p495
ssg63
(dp496
g84
S'MMMMMMMMDMMMMMMMMMMMMMMMMMMMMMMMMMMMMMMMMMMUMMMMMUDMMMMMMMMMMMMMMMMDMM'
p497
ssg65
(dp498
g84
S'MMMMMMMMDMMMMMMMMMUMMMUMMMMMMMMMMMMMMMUUMMMUMMMMMMDMMMMUUMMMMMMMMMMDUM'
p499
ssg67
(dp500
g84
S'MMMMMUMUDMMMMMMMMUMMMMMMMMMMMMMMMMUMMMMMUMMDUMMMMMUMMMMMMMMMMUMMMMMDMM'
p501
ssg69
(dp502
g84
S'MMMMMMMMDMMMMMMMMMMMMMMMMMMMMMMMMMUMMMMMMMUDMMMMMMUMUMMMMMMMMMMMMMMDMM'
p503
ssg71
(dp504
g84
S'MMMMUMMMDMMMMMMMUMMMMMUMMMMMMMUMMMMMMMMUMMMUMMUMMMDMMMMUMMMMMMMMMMMDMM'
p505
ssg73
(dp506
g84
S'MMMMMMMMMMMMMMMMMMUMMUUMUMMMMMMUMMMMMMMUMMMUMMMMMMDMMMMUMMMMMMMMMMMDUM'
p507
ssg75
(dp508
g84
S'MMMMMMMMDMMMMMMMMMUMMMMUMMMMMMMMUMMMMMUMMMMUMUMMMMDMMMMMUUUMUMMMMMMDUM'
p509
sssg23
(dp510
g8
g96
sg11
g163
sg13
g224
sg15
g285
sg17
g344
sg19
g403
sg21
g456
sg25
(dp511
g84
S'MMMMMMMMMMMMMMMMMDMMMMMMMMMMMMMMMMDMDMMUDMMUDUMMMMDMMMDMMUMMMMUMMMMMUM'
p512
ssg27
(dp513
g84
S'MMDMMMMMMMMMMMMMMDMMMMMMMMMMMMMMMMDMMMMUMMMUMUMMMMDMMMMMMUMMMMUMMMMMUM'
p514
ssg29
(dp515
g84
S'DMMMMMMDMMMMMMDMMDDMDMDMMMMMDMDMMMDMMMDUMMDUDUMMMMDMDMMDMUDMMMUMDMMMMM'
p516
ssg31
(dp517
g84
S'MMMMMMMMMMMMDMMMMMMMMMMMMMMMMMMMMMMMMMMUMMMUMDMMMMMMMMMMMDMMMMUMMMMMDM'
p518
ssg33
(dp519
g84
S'MMMMMMMMMMMMMMMMMDMMMMMMMMMMMMMMMMDMMMMUMMMUMUMMMMDMMMMMMUMMMMUMMMMMUM'
p520
ssg35
(dp521
g84
S'MMMMMMMMMMMMMMMMMMMMMMMMMMMMMMMMMMMMMMMUMMMUMUMMMMDMMMMMMUMMMMUMMMMMUM'
p522
ssg37
(dp523
g84
S'MMMMMMMMMMMMMMMMMMMMMMMMMMMMMMMMMMDMMMMUMMMUMUMMMMDMMMMMMUMMMMUMMMMMUM'
p524
ssg39
(dp525
g84
S'MMMMMMMMMMMMMMMMMDMMMMMMMMMMMMMMMMDMMMMUDMMUDUMMMMDMMMMMMUMDMMUMMMMMUM'
p526
ssg41
(dp527
g84
S'MMDMMMMMMMMMMMMDMDMMMMMMMMMMMMMMMMDMMMMUMDMUMUMMMMDMMMMMMUMMMMUMMMMMUM'
p528
ssg43
(dp529
g84
S'MMMMMMMMMMMMMMMMMMMMMMMMMMMMMMMMMMMMMMMUMMMUMUMMMMMMMDMMMUDMMMUMMMMMDM'
p530
ssg45
(dp531
g84
S'MMMMMMUMMMMMMMMMMMMUMMUMMMMUMMUMMMMMMMMUMMMDMDMMMMMMMMMUMDMMMMDMMMMMDM'
p532
ssg47
(dp533
g84
S'MMMMMMMMMMMDMMMMMMMMMMMMMMMMMMMMMMDMMMMUMMMUMUMMMMDMMMMMMUMMMMUMMMMMUM'
p534
ssg49
(dp535
g84
S'MMMDMMMMMMMMMMMMDMMMMMMMMMMMMMDMMMMDMMMUMMMUMUMMDMMMMDMMMUDMMMUDMDMMDM'
p536
ssg51
(dp537
g84
S'MMMMMMMMMMDMMMMMMMMMMMMMMMMMMMMMMMDMMMMUMMMUMUMMMMDDMMMMMUMMMMUMMMMMUM'
p538
ssg53
(dp539
g84
S'MMMMMMMMMMMMMMMMMMMMMDDMMMMMMMMMMMMMMMMDMMMUMUMMMMDMMMMDMUMMMMUMMMMMUM'
p540
ssg55
(dp541
g84
S'MMMMMMMMMMMMMMMMMMMMMMMDMMDMMMMMDMMMMMDUMMMUMUMMMMMMMMMMMUDMMMUMMMMMDM'
p542
ssg57
(dp543
g84
S'MMMMMMMDMMMMMMMMMDMMMMMMMMMMMMMMMMDMMMMUMMMUMUMMMMDMMMMMMUMMMMUMMMMMUM'
p544
ssg59
(dp545
g84
S'MMMMMMMMMMMMMMMMMMMMMMMMMMMMMMMMMMDMMDMUMMMUMUMMMMDMMMMMMUMMMMUMMMMMUM'
p546
ssg61
(dp547
g84
S'MMMMMMMMMMMMMMMMMMMMMMMMMMMMMMMMMMDMMMMUMMMUMUMMMMDMMMMMMUMMMMUMMMMMUM'
p548
ssg63
(dp549
g84
S'MMMMMMMMMMMMMMMMMMMMMMMMMMMMMMMMMMMMMMMUMMMUMUMMMDDMMMMMMUMMMMUMMMMMUM'
p550
ssg65
(dp551
g84
S'MMMMMMMMMMMMMMMMMMUMMMUMMMMMMMMMMMMMMMUUMMMDMDMMMMMMMMMUUDMMMMDMMMMMUM'
p552
ssg67
(dp553
g84
S'MMMMMUMUMMMMMMMMMUMMMMMMMMMMMMMMMMUMMMMDUMMDUDMMMMUMMMMMMDMMMUDMMMMMDM'
p554
ssg69
(dp555
g84
S'MMMMMMMMMMMMMMMMMMMMMMMMMMMMMMMMMMDMMMMUMMDUMUMMMMDMDMMMMUMMMMUMMMMMUM'
p556
ssg71
(dp557
g84
S'MMMMUMMMMMMMMMMMUMMMMMUMMMMMMMUMMMMMMMMUMMMDMDUMMMMMMMMUMDMMMMDMMMMMDM'
p558
ssg73
(dp559
g84
S'MMMMMMMMUMMMMMMMMMUMMUUMUMMMMMMUMMMMMMMMMMMDMDMMMMUMMMMUMDMMMMDMMMMMMM'
p560
ssg75
(dp561
g84
S'MMMMMMMMMMMMMMMMMMUMMMMUMMMMMMMMUMMMMMUDMMMDMMMMMMMMMMMMUDUMUMDMMMMMUM'
p562
sssg25
(dp563
g8
g98
sg11
g159
sg13
g226
sg15
g287
sg17
g346
sg19
g399
sg21
g458
sg23
g511
sg27
(dp564
g84
S'MMDMMMMMMMMMMMMMMUMMMMMMMMMMMMMMMMUMUMMMUMMDUMMMMMUMMMUMMMMMMMMMMMMMMM'
p565
ssg29
(dp566
g84
S'DMMMMMMDMMMMMMDMMUDMDMDMMMMMDMDMMMUMUMDDUMDDUMMMMMUMDMUDMMDMMMMMDMMMDM'
p567
ssg31
(dp568
g84
S'MMMMMMMMMMMMDMMMMUMMMMMMMMMMMMMMMMUMUMMMUMMDUDMMMMUMMMUMMDMMMMMMMMMMDM'
p569
ssg33
(dp570
g84
S'MMMMMMMMMMMMMMMMMUMMMMMMMMMMMMMMMMUMUMMMUMMDUMMMMMUMMMUMMMMMMMMMMMMMMM'
p571
ssg35
(dp572
g84
S'MMMMMMMMMMMMMMMMMUMMMMMMMMMMMMMMMMUMUMMMUMMDUMMMMMUMMMUMMMMMMMMMMMMMMM'
p573
ssg37
(dp574
g84
S'MMMMMMMMMMMMMMMMMUMMMMMMMMMMMMMMMMUMUMMMUMMDUMMMMMUMMMUMMMMMMMMMMMMMMM'
p575
ssg39
(dp576
g84
S'MMMMMMMMMMMMMMMMMUMMMMMMMMMMMMMMMMMMUMMMUMMUUMMMMMDMMMUMMMMDMMMMMMMMMM'
p577
ssg41
(dp578
g84
S'MMDMMMMMMMMMMMMDMUMMMMMMMMMMMMMMMMUMUMMMUDMDUMMMMMUMMMUMMMMMMMMMMMMMMM'
p579
ssg43
(dp580
g84
S'MMMMMMMMMMMMMMMMMUMMMMMMMMMMMMMMMMUMUMMMUMMDUMMMMMUMMDUMMMDMMMMMMMMMDM'
p581
ssg45
(dp582
g84
S'MMMMMMUMMMMMMMMMMDMUMMUMMMMUMMUMMMDMDMMUDMMUDMMMMMDMMMDUMMMMMMMMMMMMMM'
p583
ssg47
(dp584
g84
S'MMMMMMMMMMMDMMMMMUMMMMMMMMMMMMMMMMUMUMMMUMMDUMMMMMDMMMUMMMMMMMMMMMMMMM'
p585
ssg49
(dp586
g84
S'MMMDMMMMMMMMMMMMDUMMMMMMMMMMMMDMMMUDUMMDUMMDUMMMDMUMMDUMMMDMMMMDMDMMDM'
p587
ssg51
(dp588
g84
S'MMMMMMMMMMDMMMMMMUMMMMMMMMMMMMMMMMUMUMMMUMMDUMMMMMUDMMUMMMMMMMMMMMMMMM'
p589
ssg53
(dp590
g84
S'MMMMMMMMMMMMMMMMMUMMMDDMMMMMMMMMMMUMUMMDUMMDUMMMMMUMMMUDMMMMMMMMMMMMMM'
p591
ssg55
(dp592
g84
S'MMMMMMMMMMMMMMMMMUMMMMMDMMDMMMMMDMUMUMDMUMMDUMMMMMUMMMUMMDDMMMMMMMMMDM'
p593
ssg57
(dp594
g84
S'MMMMMMMUMMMMMMMMMDMMMMMMMMMMMMMMMMDMDMMMDMMUDMMMMMDMMMDMMMMMMMMMMMMMMM'
p595
ssg59
(dp596
g84
S'MMMMMMMMMMMMMMMMMDMMMMMMMMMMMMMMMMDMDUMMDMMUDMMMMMUMMMDMMMMMMMMMMMMMMM'
p597
ssg61
(dp598
g84
S'MMMMMMMMMMMMMMMMMDMMMMMMMMMMMMMMMMDMDMMMDMMUDMMMMMUMMMDMMMMMMMMMMMMMMM'
p599
ssg63
(dp600
g84
S'MMMMMMMMMMMMMMMMMUMMMMMMMMMMMMMMMMUMUMMMUMMDUMMMMDUMMMUMMMMMMMMMMMMMMM'
p601
ssg65
(dp602
g84
S'MMMMMMMMMMMMMMMMMDUMMMUMMMMMMMMMMMDMDMUUDMMUDMMMMMDMMMDUUMMMMMMMMMMMUM'
p603
ssg67
(dp604
g84
S'MMMMMUMUMMMMMMMMMDMMMMMMMMMMMMMMMMDMDMMMDMMUMMMMMMDMMMDMMMMMMUMMMMMMMM'
p605
ssg69
(dp606
g84
S'MMMMMMMMMMMMMMMMMDMMMMMMMMMMMMMMMMDMDMMMDMUUDMMMMMDMUMDMMMMMMMMMMMMMMM'
p607
ssg71
(dp608
g84
S'MMMMUMMMMMMMMMMMUDMMMMUMMMMMMMUMMMDMDMMUDMMUDMUMMMDMMMDUMMMMMMMMMMMMMM'
p609
ssg73
(dp610
g84
S'MMMMMMMMUMMMMMMMMDUMMUUMUMMMMMMUMMDMDMMUDMMUDMMMMMDMMMDUMMMMMMMMMMMMUM'
p611
ssg75
(dp612
g84
S'MMMMMMMMMMMMMMMMMDUMMMMUMMMMMMMMUMDMDMUMDMMUDUMMMMDMMMDMUUUMUMMMMMMMUM'
p613
sssg27
(dp614
g8
g100
sg11
g165
sg13
g228
sg15
g289
sg17
g348
sg19
g405
sg21
g460
sg23
g513
sg25
g564
sg29
(dp615
g84
S'UMDMMMMUMMMMMMUMMDUMUMUMMMMMUMUMMMUMMMUUMMUDUMMMMMUMUMMUMMUMMMMMUMMMUM'
p616
ssg31
(dp617
g84
S'MMDMMMMMMMMMUMMMMDMMMMMMMMMMMMMMMMDMMMMMMMMUMUMMMMDMMMMMMUMMMMMMMMMMUM'
p618
ssg33
(dp619
g84
S'MMDMMMMMMMMMMMMMMDMMMMMMMMMMMMMMMMUMMMMMMMMDMMMMMMUMMMMMMMMMMMMMMMMMMM'
p620
ssg35
(dp621
g84
S'MMDMMMMMMMMMMMMMMDMMMMMMMMMMMMMMMMDMMMMMMMMUMMMMMMDMMMMMMMMMMMMMMMMMMM'
p622
ssg37
(dp623
g84
S'MMDMMMMMMMMMMMMMMDMMMMMMMMMMMMMMMMUMMMMMMMMDMMMMMMUMMMMMMMMMMMMMMMMMMM'
p624
ssg39
(dp625
g84
S'MMDMMMMMMMMMMMMMMUMMMMMMMMMMMMMMMMUMMMMMUMMDUMMMMMUMMMMMMMMUMMMMMMMMMM'
p626
ssg41
(dp627
g84
S'MMUMMMMMMMMMMMMUMUMMMMMMMMMMMMMMMMUMMMMMMUMDMMMMMMUMMMMMMMMMMMMMMMMMMM'
p628
ssg43
(dp629
g84
S'MMDMMMMMMMMMMMMMMDMMMMMMMMMMMMMMMMDMMMMMMMMUMMMMMMDMMUMMMMUMMMMMMMMMUM'
p630
ssg45
(dp631
g84
S'MMDMMMUMMMMMMMMMMDMUMMUMMMMUMMUMMMDMMMMUMMMUMMMMMMDMMMMUMMMMMMMMMMMMMM'
p632
ssg47
(dp633
g84
S'MMDMMMMMMMMUMMMMMDMMMMMMMMMMMMMMMMUMMMMMMMMDMMMMMMUMMMMMMMMMMMMMMMMMMM'
p634
ssg49
(dp635
g84
S'MMDUMMMMMMMMMMMMUDMMMMMMMMMMMMUMMMDUMMMUMMMUMMMMUMDMMUMMMMUMMMMUMUMMUM'
p636
ssg51
(dp637
g84
S'MMDMMMMMMMUMMMMMMDMMMMMMMMMMMMMMMMUMMMMMMMMDMMMMMMUUMMMMMMMMMMMMMMMMMM'
p638
ssg53
(dp639
g84
S'MMDMMMMMMMMMMMMMMDMMMUUMMMMMMMMMMMDMMMMUMMMUMMMMMMDMMMMUMMMMMMMMMMMMMM'
p640
ssg55
(dp641
g84
S'MMDMMMMMMMMMMMMMMDMMMMMUMMUMMMMMUMDMMMUMMMMUMMMMMMDMMMMMMUUMMMMMMMMMUM'
p642
ssg57
(dp643
g84
S'MMDMMMMUMMMMMMMMMDMMMMMMMMMMMMMMMMUMMMMMMMMDMMMMMMUMMMMMMMMMMMMMMMMMMM'
p644
ssg59
(dp645
g84
S'MMDMMMMMMMMMMMMMMDMMMMMMMMMMMMMMMMUMMUMMMMMDMMMMMMUMMMMMMMMMMMMMMMMMMM'
p646
ssg61
(dp647
g84
S'MMDMMMMMMMMMMMMMMDMMMMMMMMMMMMMMMMUMMMMMMMMDMMMMMMUMMMMMMMMMMMMMMMMMMM'
p648
ssg63
(dp649
g84
S'MMUMMMMMMMMMMMMMMUMMMMMMMMMMMMMMMMUMMMMMMMMDMMMMMDUMMMMMMMMMMMMMMMMMMM'
p650
ssg65
(dp651
g84
S'MMDMMMMMMMMMMMMMMDUMMMUMMMMMMMMMMMDMMMUUMMMUMMMMMMDMMMMUUMMMMMMMMMMMUM'
p652
ssg67
(dp653
g84
S'MMDMMUMUMMMMMMMMMDMMMMMMMMMMMMMMMMUMMMMMUMMDUMMMMMUMMMMMMMMMMUMMMMMMMM'
p654
ssg69
(dp655
g84
S'MMDMMMMMMMMMMMMMMDMMMMMMMMMMMMMMMMUMMMMMMMUDMMMMMMUMUMMMMMMMMMMMMMMMMM'
p656
ssg71
(dp657
g84
S'MMDMUMMMMMMMMMMMUDMMMMUMMMMMMMUMMMDMMMMUMMMUMMUMMMDMMMMUMMMMMMMMMMMMMM'
p658
ssg73
(dp659
g84
S'MMDMMMMMUMMMMMMMMDUMMUUMUMMMMMMUMMDMMMMUMMMUMMMMMMDMMMMUMMMMMMMMMMMMUM'
p660
ssg75
(dp661
g84
S'MMDMMMMMMMMMMMMMMDUMMMMUMMMMMMMMUMDMMMUMMMMUMUMMMMDMMMMMUUUMUMMMMMMMUM'
p662
sssg29
(dp663
g8
g102
sg11
g167
sg13
g230
sg15
g291
sg17
g350
sg19
g407
sg21
g462
sg23
g515
sg25
g566
sg27
g615
sg31
(dp664
g84
S'DMMMMMMDMMMMUMDMMDDMDMDMMMMMDMDMMMDMMMDDMMDUDUMMMMDMDMMDMUDMMMMMDMMMUM'
p665
ssg33
(dp666
g84
S'DMMMMMMDMMMMMMDMMUDMDMDMMMMMDMDMMMDMMMDDMMDUDMMMMMMMDMMDMMDMMMMMDMMMDM'
p667
ssg35
(dp668
g84
S'DMMMMMMDMMMMMMDMMDDMDMDMMMMMDMDMMMDMMMDDMMDUDMMMMMDMDMMDMMDMMMMMDMMMDM'
p669
ssg37
(dp670
g84
S'DMMMMMMDMMMMMMDMMDDMDMDMMMMMDMDMMMUMMMDDMMDDDMMMMMUMDMMDMMDMMMMMDMMMDM'
p671
ssg39
(dp672
g84
S'DMMMMMMDMMMMMMDMMUDMDMDMMMMMDMDMMMUMMMDDUMDDUMMMMMUMDMMDMMDUMMMMDMMMDM'
p673
ssg41
(dp674
g84
S'DMUMMMMDMMMMMMDUMUDMDMDMMMMMDMDMMMUMMMDDMUDDDMMMMMUMDMMDMMDMMMMMDMMMDM'
p675
ssg43
(dp676
g84
S'DMMMMMMDMMMMMMDMMDDMDMDMMMMMDMDMMMDMMMDDMMDUDMMMMMDMDUMDMMUMMMMMDMMMUM'
p677
ssg45
(dp678
g84
S'DMMMMMUDMMMMMMDMMDDUDMUMMMMUDMUMMMDMMMDUMMDUDMMMMMDMDMMUMMDMMMMMDMMMDM'
p679
ssg47
(dp680
g84
S'DMMMMMMDMMMUMMDMMDDMDMDMMMMMDMDMMMUMMMDDMMDDDMMMMMUMDMMDMMDMMMMMDMMMDM'
p681
ssg49
(dp682
g84
S'DMMUMMMDMMMMMMDMUDDMDMDMMMMMDMMMMMDUMMDMMMDUDMMMUMDMDUMDMMUMMMMUDUMMUM'
p683
ssg51
(dp684
g84
S'DMMMMMMDMMUMMMDMMDDMDMDMMMMMDMDMMMUMMMDDMMDDDMMMMMUUDMMDMMDMMMMMDMMMDM'
p685
ssg53
(dp686
g84
S'DMMMMMMDMMMMMMDMMDDMDUUMMMMMDMDMMMDMMMDUMMDUDMMMMMDMDMMUMMDMMMMMDMMMDM'
p687
ssg55
(dp688
g84
S'DMMMMMMDMMMMMMDMMDDMDMDUMMUMDMDMUMDMMMMDMMDUDMMMMMDMDMMDMUUMMMMMDMMMUM'
p689
ssg57
(dp690
g84
S'DMMMMMMDMMMMMMDMMUDMDMDMMMMMDMDMMMUMMMDDMMDDDMMMMMUMDMMDMMDMMMMMDMMMDM'
p691
ssg59
(dp692
g84
S'DMMMMMMDMMMMMMDMMDDMDMDMMMMMDMDMMMUMMUDDMMDDDMMMMMUMDMMDMMDMMMMMDMMMDM'
p693
ssg61
(dp694
g84
S'DMMMMMMDMMMMMMDMMDDMDMDMMMMMDMDMMMUMMMDDMMDDDMMMMMUMDMMDMMDMMMMMDMMMDM'
p695
ssg63
(dp696
g84
S'UMMMMMMUMMMMMMUMMUUMUMUMMMMMUMUMMMUMMMUUMMUDUMMMMDUMUMMUMMUMMMMMUMMMUM'
p697
ssg65
(dp698
g84
S'DMMMMMMDMMMMMMDMMDUMDMUMMMMMDMDMMMDMMMMUMMDUDMMMMMDMDMMUUMDMMMMMDMMMUM'
p699
ssg67
(dp700
g84
S'DMMMMUMDMMMMMMDMMUDMDMDMMMMMDMDMMMUMMMDDUMDDUMMMMMUMDMMDMMDMMUMMDMMMDM'
p701
ssg69
(dp702
g84
S'DMMMMMMDMMMMMMDMMDDMDMDMMMMMDMDMMMUMMMDDMMMDDMMMMMUMUMMDMMDMMMMMDMMMDM'
p703
ssg71
(dp704
g84
S'DMMMUMMDMMMMMMDMUDDMDMUMMMMMDMUMMMDMMMDUMMDUDMUMMMDMDMMUMMDMMMMMDMMMDM'
p705
ssg73
(dp706
g84
S'DMMMMMMDUMMMMMDMMDUMDUUMUMMMDMDUMMDMMMDUMMDUDMMMMMDMDMMUMMDMMMMMDMMMMM'
p707
ssg75
(dp708
g84
S'DMMMMMMDMMMMMMDMMDDMDMDUMMMMDMDMUMDMMMMDMMDUDUMMMMDMDMMDUUUMUMMMDMMMUM'
p709
sssg31
(dp710
g8
g104
sg11
g169
sg13
g232
sg15
g293
sg17
g352
sg19
g409
sg21
g464
sg23
g517
sg25
g568
sg27
g617
sg29
g664
sg33
(dp711
g84
S'MMMMMMMMMMMMDMMMMUMMMMMMMMMMMMMMMMUMMMMMMMMDMDMMMMUMMMMMMDMMMMMMMMMMDM'
p712
ssg35
(dp713
g84
S'MMMMMMMMMMMMDMMMMMMMMMMMMMMMMMMMMMMMMMMMMMMDMDMMMMUMMMMMMDMMMMMMMMMMDM'
p714
ssg37
(dp715
g84
S'MMMMMMMMMMMMDMMMMMMMMMMMMMMMMMMMMMUMMMMMMMMDMDMMMMUMMMMMMDMMMMMMMMMMDM'
p716
ssg39
(dp717
g84
S'MMMMMMMMMMMMDMMMMUMMMMMMMMMMMMMMMMUMMMMMUMMDUDMMMMUMMMMMMDMUMMMMMMMMDM'
p718
ssg41
(dp719
g84
S'MMUMMMMMMMMMDMMUMUMMMMMMMMMMMMMMMMUMMMMMMUMDMDMMMMUMMMMMMDMMMMMMMMMMDM'
p720
ssg43
(dp721
g84
S'MMMMMMMMMMMMDMMMMMMMMMMMMMMMMMMMMMMMMMMMMMMDMDMMMMMMMUMMMDUMMMMMMMMMUM'
p722
ssg45
(dp723
g84
S'MMMMMMUMMMMMDMMMMMMUMMUMMMMUMMUMMMMMMMMUMMMMMDMMMMMMMMMUMDMMMMMMMMMMDM'
p724
ssg47
(dp725
g84
S'MMMMMMMMMMMUDMMMMMMMMMMMMMMMMMMMMMUMMMMMMMMDMDMMMMUMMMMMMDMMMMMMMMMMDM'
p726
ssg49
(dp727
g84
S'MMMUMMMMMMMMDMMMUMMMMMMMMMMMMMUMMMMUMMMUMMMDMDMMUMMMMUMMMDUMMMMUMUMMUM'
p728
ssg51
(dp729
g84
S'MMMMMMMMMMUMDMMMMMMMMMMMMMMMMMMMMMUMMMMMMMMDMDMMMMUUMMMMMDMMMMMMMMMMDM'
p730
ssg53
(dp731
g84
S'MMMMMMMMMMMMDMMMMMMMMUUMMMMMMMMMMMMMMMMUMMMDMDMMMMUMMMMUMDMMMMMMMMMMDM'
p732
ssg55
(dp733
g84
S'MMMMMMMMMMMMDMMMMMMMMMMUMMUMMMMMUMMMMMUMMMMDMDMMMMMMMMMMMDUMMMMMMMMMUM'
p734
ssg57
(dp735
g84
S'MMMMMMMUMMMMDMMMMUMMMMMMMMMMMMMMMMUMMMMMMMMDMDMMMMUMMMMMMDMMMMMMMMMMDM'
p736
ssg59
(dp737
g84
S'MMMMMMMMMMMMDMMMMMMMMMMMMMMMMMMMMMUMMUMMMMMDMDMMMMUMMMMMMDMMMMMMMMMMDM'
p738
ssg61
(dp739
g84
S'MMMMMMMMMMMMDMMMMMMMMMMMMMMMMMMMMMUMMMMMMMMDMDMMMMUMMMMMMDMMMMMMMMMMDM'
p740
ssg63
(dp741
g84
S'MMMMMMMMMMMMUMMMMMMMMMMMMMMMMMMMMMMMMMMMMMMUMUMMMDDMMMMMMUMMMMMMMMMMUM'
p742
ssg65
(dp743
g84
S'MMMMMMMMMMMMDMMMMMUMMMUMMMMMMMMMMMMMMMUUMMMUMDMMMMMMMMMUUDMMMMMMMMMMDM'
p744
ssg67
(dp745
g84
S'MMMMMUMUMMMMDMMMMUMMMMMMMMMMMMMMMMUMMMMMUMMDUDMMMMUMMMMMMDMMMUMMMMMMDM'
p746
ssg69
(dp747
g84
S'MMMMMMMMMMMMDMMMMMMMMMMMMMMMMMMMMMUMMMMMMMUDMDMMMMUMUMMMMDMMMMMMMMMMDM'
p748
ssg71
(dp749
g84
S'MMMMUMMMMMMMDMMMUMMMMMUMMMMMMMUMMMMMMMMUMMMUMDUMMMMMMMMUMDMMMMMMMMMMDM'
p750
ssg73
(dp751
g84
S'MMMMMMMMUMMMDMMMMMUMMUUMUMMMMMMUMMMMMMMUMMMDMDMMMMUMMMMUMDMMMMMMMMMMDM'
p752
ssg75
(dp753
g84
S'MMMMMMMMMMMMDMMMMMUMMMMUMMMMMMMMUMMMMMUMMMMDMDMMMMMMMMMMUDUMUMMMMMMMUM'
p754
sssg33
(dp755
g8
g106
sg11
g171
sg13
g234
sg15
g295
sg17
g354
sg19
g411
sg21
g466
sg23
g519
sg25
g570
sg27
g619
sg29
g666
sg31
g711
sg75
(dp756
g84
S'MMMMMMMMMMMMMMMMMDUMMMMUMMMMMMMMUMDMMMUMMMMUMUMMMMDMMMMMUUUMUMMMMMMMUM'
p757
ssg35
(dp758
g84
S'MMMMMMMMMMMMMMMMMDMMMMMMMMMMMMMMMMDMMMMMMMMUMMMMMMDMMMMMMMMMMMMMMMMMMM'
p759
ssg37
(dp760
g84
S'MMMMMMMMMMMMMMMMMDMMMMMMMMMMMMMMMMUMMMMMMMMDMMMMMMUMMMMMMMMMMMMMMMMMMM'
p761
ssg39
(dp762
g84
S'MMMMMMMMMMMMMMMMMUMMMMMMMMMMMMMMMMUMMMMMUMMDUMMMMMUMMMMMMMMUMMMMMMMMMM'
p763
ssg41
(dp764
g84
S'MMUMMMMMMMMMMMMUMUMMMMMMMMMMMMMMMMUMMMMMMUMDMMMMMMUMMMMMMMMMMMMMMMMMMM'
p765
ssg43
(dp766
g84
S'MMMMMMMMMMMMMMMMMDMMMMMMMMMMMMMMMMDMMMMMMMMUMMMMMMDMMUMMMMUMMMMMMMMMUM'
p767
ssg45
(dp768
g84
S'MMMMMMUMMMMMMMMMMDMUMMUMMMMUMMUMMMDMMMMUMMMUMMMMMMDMMMMUMMMMMMMMMMMMMM'
p769
ssg47
(dp770
g84
S'MMMMMMMMMMMUMMMMMDMMMMMMMMMMMMMMMMUMMMMMMMMDMMMMMMUMMMMMMMMMMMMMMMMMMM'
p771
ssg49
(dp772
g84
S'MMMUMMMMMMMMMMMMUDMMMMMMMMMMMMUMMMDUMMMUMMMUMMMMUMDMMUMMMMUMMMMUMUMMUM'
p773
ssg51
(dp774
g84
S'MMMMMMMMMMUMMMMMMDMMMMMMMMMMMMMMMMUMMMMMMMMDMMMMMMUUMMMMMMMMMMMMMMMMMM'
p775
ssg53
(dp776
g84
S'MMMMMMMMMMMMMMMMMDMMMUUMMMMMMMMMMMDMMMMUMMMUMMMMMMDMMMMUMMMMMMMMMMMMMM'
p777
ssg55
(dp778
g84
S'MMMMMMMMMMMMMMMMMDMMMMMUMMUMMMMMUMDMMMUMMMMUMMMMMMDMMMMMMUUMMMMMMMMMUM'
p779
ssg57
(dp780
g84
S'MMMMMMMUMMMMMMMMMUMMMMMMMMMMMMMMMMUMMMMMMMMDMMMMMMUMMMMMMMMMMMMMMMMMMM'
p781
ssg59
(dp782
g84
S'MMMMMMMMMMMMMMMMMDMMMMMMMMMMMMMMMMUMMUMMMMMDMMMMMMUMMMMMMMMMMMMMMMMMMM'
p783
ssg61
(dp784
g84
S'MMMMMMMMMMMMMMMMMDMMMMMMMMMMMMMMMMUMMMMMMMMDMMMMMMUMMMMMMMMMMMMMMMMMMM'
p785
ssg63
(dp786
g84
S'MMMMMMMMMMMMMMMMMUMMMMMMMMMMMMMMMMUMMMMMMMMDMMMMMDUMMMMMMMMMMMMMMMMMMM'
p787
ssg65
(dp788
g84
S'MMMMMMMMMMMMMMMMMDUMMMUMMMMMMMMMMMDMMMUUMMMUMMMMMMDMMMMUUMMMMMMMMMMMUM'
p789
ssg67
(dp790
g84
S'MMMMMUMUMMMMMMMMMUMMMMMMMMMMMMMMMMUMMMMMUMMDUMMMMMUMMMMMMMMMMUMMMMMMMM'
p791
ssg69
(dp792
g84
S'MMMMMMMMMMMMMMMMMDMMMMMMMMMMMMMMMMUMMMMMMMUDMMMMMMUMUMMMMMMMMMMMMMMMMM'
p793
ssg71
(dp794
g84
S'MMMMUMMMMMMMMMMMUDMMMMUMMMMMMMUMMMDMMMMUMMMUMMUMMMDMMMMUMMMMMMMMMMMMMM'
p795
ssg73
(dp796
g84
S'MMMMMMMMUMMMMMMMMDUMMUUMUMMMMMMUMMDMMMMUMMMUMMMMMMDMMMMUMMMMMMMMMMMMUM'
p797
sssg35
(dp798
g8
g108
sg11
g173
sg13
g236
sg15
g297
sg17
g356
sg19
g413
sg21
g468
sg23
g521
sg25
g572
sg27
g621
sg29
g668
sg31
g713
sg33
g758
sg45
(dp799
g84
S'MMMMMMUMMMMMMMMMMMMUMMUMMMMUMMUMMMMMMMMUMMMUMMMMMMDMMMMUMMMMMMMMMMMMMM'
p800
ssg37
(dp801
g84
S'MMMMMMMMMMMMMMMMMMMMMMMMMMMMMMMMMMUMMMMMMMMDMMMMMMUMMMMMMMMMMMMMMMMMMM'
p802
ssg39
(dp803
g84
S'MMMMMMMMMMMMMMMMMUMMMMMMMMMMMMMMMMUMMMMMUMMDUMMMMMUMMMMMMMMUMMMMMMMMMM'
p804
ssg41
(dp805
g84
S'MMUMMMMMMMMMMMMUMUMMMMMMMMMMMMMMMMUMMMMMMUMDMMMMMMUMMMMMMMMMMMMMMMMMMM'
p806
ssg43
(dp807
g84
S'MMMMMMMMMMMMMMMMMMMMMMMMMMMMMMMMMMMMMMMMMMMUMMMMMMDMMUMMMMUMMMMMMMMMUM'
p808
ssg47
(dp809
g84
S'MMMMMMMMMMMUMMMMMMMMMMMMMMMMMMMMMMUMMMMMMMMDMMMMMMUMMMMMMMMMMMMMMMMMMM'
p810
ssg49
(dp811
g84
S'MMMUMMMMMMMMMMMMUMMMMMMMMMMMMMUMMMMUMMMUMMMUMMMMUMDMMUMMMMUMMMMUMUMMUM'
p812
ssg51
(dp813
g84
S'MMMMMMMMMMUMMMMMMMMMMMMMMMMMMMMMMMUMMMMMMMMDMMMMMMUUMMMMMMMMMMMMMMMMMM'
p814
ssg53
(dp815
g84
S'MMMMMMMMMMMMMMMMMMMMMUUMMMMMMMMMMMMMMMMUMMMUMMMMMMDMMMMUMMMMMMMMMMMMMM'
p816
ssg55
(dp817
g84
S'MMMMMMMMMMMMMMMMMMMMMMMUMMUMMMMMUMMMMMUMMMMUMMMMMMDMMMMMMUUMMMMMMMMMUM'
p818
ssg57
(dp819
g84
S'MMMMMMMUMMMMMMMMMUMMMMMMMMMMMMMMMMUMMMMMMMMDMMMMMMUMMMMMMMMMMMMMMMMMMM'
p820
ssg59
(dp821
g84
S'MMMMMMMMMMMMMMMMMMMMMMMMMMMMMMMMMMUMMUMMMMMDMMMMMMUMMMMMMMMMMMMMMMMMMM'
p822
ssg61
(dp823
g84
S'MMMMMMMMMMMMMMMMMMMMMMMMMMMMMMMMMMUMMMMMMMMDMMMMMMUMMMMMMMMMMMMMMMMMMM'
p824
ssg63
(dp825
g84
S'MMMMMMMMMMMMMMMMMMMMMMMMMMMMMMMMMMMMMMMMMMMDMMMMMDUMMMMMMMMMMMMMMMMMMM'
p826
ssg65
(dp827
g84
S'MMMMMMMMMMMMMMMMMMUMMMUMMMMMMMMMMMMMMMUUMMMUMMMMMMDMMMMUUMMMMMMMMMMMUM'
p828
ssg67
(dp829
g84
S'MMMMMUMUMMMMMMMMMUMMMMMMMMMMMMMMMMUMMMMMUMMDUMMMMMUMMMMMMMMMMUMMMMMMMM'
p830
ssg69
(dp831
g84
S'MMMMMMMMMMMMMMMMMMMMMMMMMMMMMMMMMMUMMMMMMMUDMMMMMMUMUMMMMMMMMMMMMMMMMM'
p832
ssg71
(dp833
g84
S'MMMMUMMMMMMMMMMMUMMMMMUMMMMMMMUMMMMMMMMUMMMUMMUMMMDMMMMUMMMMMMMMMMMMMM'
p834
ssg73
(dp835
g84
S'MMMMMMMMUMMMMMMMMMUMMUUMUMMMMMMUMMMMMMMUMMMUMMMMMMDMMMMUMMMMMMMMMMMMUM'
p836
ssg75
(dp837
g84
S'MMMMMMMMMMMMMMMMMMUMMMMUMMMMMMMMUMMMMMUMMMMUMUMMMMDMMMMMUUUMUMMMMMMMUM'
p838
sssg37
(dp839
g8
g110
sg11
g175
sg13
g238
sg15
g299
sg17
g358
sg19
g415
sg21
g470
sg23
g523
sg25
g574
sg27
g623
sg29
g670
sg31
g715
sg33
g760
sg35
g801
sg39
(dp840
g84
S'MMMMMMMMMMMMMMMMMUMMMMMMMMMMMMMMMMUMMMMMUMMDUMMMMMUMMMMMMMMUMMMMMMMMMM'
p841
ssg41
(dp842
g84
S'MMUMMMMMMMMMMMMUMUMMMMMMMMMMMMMMMMDMMMMMMUMUMMMMMMDMMMMMMMMMMMMMMMMMMM'
p843
ssg43
(dp844
g84
S'MMMMMMMMMMMMMMMMMMMMMMMMMMMMMMMMMMDMMMMMMMMUMMMMMMDMMUMMMMUMMMMMMMMMUM'
p845
ssg45
(dp846
g84
S'MMMMMMUMMMMMMMMMMMMUMMUMMMMUMMUMMMDMMMMUMMMUMMMMMMDMMMMUMMMMMMMMMMMMMM'
p847
ssg47
(dp848
g84
S'MMMMMMMMMMMUMMMMMMMMMMMMMMMMMMMMMMDMMMMMMMMDMMMMMMUMMMMMMMMMMMMMMMMMMM'
p849
ssg49
(dp850
g84
S'MMMUMMMMMMMMMMMMUMMMMMMMMMMMMMUMMMDUMMMUMMMUMMMMUMDMMUMMMMUMMMMUMUMMUM'
p851
ssg51
(dp852
g84
S'MMMMMMMMMMUMMMMMMMMMMMMMMMMMMMMMMMUMMMMMMMMDMMMMMMUUMMMMMMMMMMMMMMMMMM'
p853
ssg53
(dp854
g84
S'MMMMMMMMMMMMMMMMMMMMMUUMMMMMMMMMMMDMMMMUMMMUMMMMMMDMMMMUMMMMMMMMMMMMMM'
p855
ssg55
(dp856
g84
S'MMMMMMMMMMMMMMMMMMMMMMMUMMUMMMMMUMDMMMUMMMMUMMMMMMDMMMMMMUUMMMMMMMMMUM'
p857
ssg57
(dp858
g84
S'MMMMMMMUMMMMMMMMMUMMMMMMMMMMMMMMMMDMMMMMMMMUMMMMMMDMMMMMMMMMMMMMMMMMMM'
p859
ssg59
(dp860
g84
S'MMMMMMMMMMMMMMMMMMMMMMMMMMMMMMMMMMDMMUMMMMMDMMMMMMUMMMMMMMMMMMMMMMMMMM'
p861
ssg61
(dp862
g84
S'MMMMMMMMMMMMMMMMMMMMMMMMMMMMMMMMMMDMMMMMMMMDMMMMMMUMMMMMMMMMMMMMMMMMMM'
p863
ssg63
(dp864
g84
S'MMMMMMMMMMMMMMMMMMMMMMMMMMMMMMMMMMUMMMMMMMMDMMMMMDUMMMMMMMMMMMMMMMMMMM'
p865
ssg65
(dp866
g84
S'MMMMMMMMMMMMMMMMMMUMMMUMMMMMMMMMMMDMMMUUMMMUMMMMMMDMMMMUUMMMMMMMMMMMUM'
p867
ssg67
(dp868
g84
S'MMMMMUMUMMMMMMMMMUMMMMMMMMMMMMMMMMDMMMMMUMMUUMMMMMDMMMMMMMMMMUMMMMMMMM'
p869
ssg69
(dp870
g84
S'MMMMMMMMMMMMMMMMMMMMMMMMMMMMMMMMMMUMMMMMMMUDMMMMMMUMUMMMMMMMMMMMMMMMMM'
p871
ssg71
(dp872
g84
S'MMMMUMMMMMMMMMMMUMMMMMUMMMMMMMUMMMDMMMMUMMMUMMUMMMDMMMMUMMMMMMMMMMMMMM'
p873
ssg73
(dp874
g84
S'MMMMMMMMUMMMMMMMMMUMMUUMUMMMMMMUMMDMMMMUMMMUMMMMMMDMMMMUMMMMMMMMMMMMUM'
p875
ssg75
(dp876
g84
S'MMMMMMMMMMMMMMMMMMUMMMMUMMMMMMMMUMDMMMUMMMMUMUMMMMDMMMMMUUUMUMMMMMMMUM'
p877
sssg39
(dp878
g8
g112
sg11
g177
sg13
g240
sg15
g301
sg17
g360
sg19
g417
sg21
g472
sg23
g525
sg25
g576
sg27
g625
sg29
g672
sg31
g717
sg33
g762
sg35
g803
sg37
g840
sg41
(dp879
g84
S'MMUMMMMMMMMMMMMUMMMMMMMMMMMMMMMMMMDMMMMMDUMUDMMMMMDMMMMMMMMDMMMMMMMMMM'
p880
ssg43
(dp881
g84
S'MMMMMMMMMMMMMMMMMDMMMMMMMMMMMMMMMMDMMMMMDMMUDMMMMMDMMUMMMMUDMMMMMMMMUM'
p882
ssg45
(dp883
g84
S'MMMMMMUMMMMMMMMMMDMUMMUMMMMUMMUMMMDMMMMUDMMUDMMMMMDMMMMUMMMDMMMMMMMMMM'
p884
ssg47
(dp885
g84
S'MMMMMMMMMMMUMMMMMDMMMMMMMMMMMMMMMMDMMMMMDMMUDMMMMMUMMMMMMMMDMMMMMMMMMM'
p886
ssg49
(dp887
g84
S'MMMUMMMMMMMMMMMMUDMMMMMMMMMMMMUMMMDUMMMUDMMUDMMMUMDMMUMMMMUDMMMUMUMMUM'
p888
ssg51
(dp889
g84
S'MMMMMMMMMMUMMMMMMDMMMMMMMMMMMMMMMMDMMMMMDMMUDMMMMMDUMMMMMMMDMMMMMMMMMM'
p890
ssg53
(dp891
g84
S'MMMMMMMMMMMMMMMMMDMMMUUMMMMMMMMMMMDMMMMUDMMUDMMMMMDMMMMUMMMDMMMMMMMMMM'
p892
ssg55
(dp893
g84
S'MMMMMMMMMMMMMMMMMDMMMMMUMMUMMMMMUMDMMMUMDMMUDMMMMMDMMMMMMUUDMMMMMMMMUM'
p894
ssg57
(dp895
g84
S'MMMMMMMUMMMMMMMMMDMMMMMMMMMMMMMMMMDMMMMMDMMUDMMMMMDMMMMMMMMDMMMMMMMMMM'
p896
ssg59
(dp897
g84
S'MMMMMMMMMMMMMMMMMDMMMMMMMMMMMMMMMMDMMUMMDMMUDMMMMMUMMMMMMMMDMMMMMMMMMM'
p898
ssg61
(dp899
g84
S'MMMMMMMMMMMMMMMMMDMMMMMMMMMMMMMMMMDMMMMMDMMUDMMMMMUMMMMMMMMDMMMMMMMMMM'
p900
ssg63
(dp901
g84
S'MMMMMMMMMMMMMMMMMUMMMMMMMMMMMMMMMMUMMMMMUMMDUMMMMDUMMMMMMMMUMMMMMMMMMM'
p902
ssg65
(dp903
g84
S'MMMMMMMMMMMMMMMMMDUMMMUMMMMMMMMMMMDMMMUUDMMUDMMMMMDMMMMUUMMDMMMMMMMMUM'
p904
ssg67
(dp905
g84
S'MMMMMUMUMMMMMMMMMDMMMMMMMMMMMMMMMMDMMMMMUMMUUMMMMMDMMMMMMMMDMUMMMMMMMM'
p906
ssg69
(dp907
g84
S'MMMMMMMMMMMMMMMMMDMMMMMMMMMMMMMMMMDMMMMMDMUUDMMMMMDMUMMMMMMDMMMMMMMMMM'
p908
ssg71
(dp909
g84
S'MMMMUMMMMMMMMMMMUDMMMMUMMMMMMMUMMMDMMMMUDMMUDMUMMMDMMMMUMMMDMMMMMMMMMM'
p910
ssg73
(dp911
g84
S'MMMMMMMMUMMMMMMMMDUMMUUMUMMMMMMUMMDMMMMUDMMUDMMMMMDMMMMUMMMDMMMMMMMMUM'
p912
ssg75
(dp913
g84
S'MMMMMMMMMMMMMMMMMDUMMMMUMMMMMMMMUMDMMMUMDMMUDUMMMMDMMMMMUUUDUMMMMMMMUM'
p914
sssg41
(dp915
g8
g114
sg11
g179
sg13
g242
sg15
g303
sg17
g362
sg19
g419
sg21
g474
sg23
g527
sg25
g578
sg27
g627
sg29
g674
sg31
g719
sg33
g764
sg35
g805
sg37
g842
sg39
g879
sg43
(dp916
g84
S'MMDMMMMMMMMMMMMDMDMMMMMMMMMMMMMMMMDMMMMMMDMUMMMMMMDMMUMMMMUMMMMMMMMMUM'
p917
ssg45
(dp918
g84
S'MMDMMMUMMMMMMMMDMDMUMMUMMMMUMMUMMMDMMMMUMDMUMMMMMMDMMMMUMMMMMMMMMMMMMM'
p919
ssg47
(dp920
g84
S'MMDMMMMMMMMUMMMDMDMMMMMMMMMMMMMMMMUMMMMMMDMDMMMMMMUMMMMMMMMMMMMMMMMMMM'
p921
ssg49
(dp922
g84
S'MMDUMMMMMMMMMMMDUDMMMMMMMMMMMMUMMMDUMMMUMDMUMMMMUMDMMUMMMMUMMMMUMUMMUM'
p923
ssg51
(dp924
g84
S'MMDMMMMMMMUMMMMDMDMMMMMMMMMMMMMMMMUMMMMMMDMDMMMMMMUUMMMMMMMMMMMMMMMMMM'
p925
ssg53
(dp926
g84
S'MMDMMMMMMMMMMMMDMDMMMUUMMMMMMMMMMMDMMMMUMDMUMMMMMMDMMMMUMMMMMMMMMMMMMM'
p927
ssg55
(dp928
g84
S'MMDMMMMMMMMMMMMDMDMMMMMUMMUMMMMMUMDMMMUMMDMUMMMMMMDMMMMMMUUMMMMMMMMMUM'
p929
ssg57
(dp930
g84
S'MMDMMMMUMMMMMMMDMDMMMMMMMMMMMMMMMMMMMMMMMDMUMMMMMMDMMMMMMMMMMMMMMMMMMM'
p931
ssg59
(dp932
g84
S'MMDMMMMMMMMMMMMDMDMMMMMMMMMMMMMMMMUMMUMMMDMDMMMMMMUMMMMMMMMMMMMMMMMMMM'
p933
ssg61
(dp934
g84
S'MMDMMMMMMMMMMMMDMDMMMMMMMMMMMMMMMMUMMMMMMDMDMMMMMMUMMMMMMMMMMMMMMMMMMM'
p935
ssg63
(dp936
g84
S'MMUMMMMMMMMMMMMUMUMMMMMMMMMMMMMMMMUMMMMMMUMDMMMMMDUMMMMMMMMMMMMMMMMMMM'
p937
ssg65
(dp938
g84
S'MMDMMMMMMMMMMMMDMDUMMMUMMMMMMMMMMMDMMMUUMDMUMMMMMMDMMMMUUMMMMMMMMMMMUM'
p939
ssg67
(dp940
g84
S'MMDMMUMUMMMMMMMDMDMMMMMMMMMMMMMMMMUMMMMMUDMDUMMMMMUMMMMMMMMMMUMMMMMMMM'
p941
ssg69
(dp942
g84
S'MMDMMMMMMMMMMMMDMDMMMMMMMMMMMMMMMMUMMMMMMDUDMMMMMMUMUMMMMMMMMMMMMMMMMM'
p943
ssg71
(dp944
g84
S'MMDMUMMMMMMMMMMDUDMMMMUMMMMMMMUMMMDMMMMUMDMUMMUMMMDMMMMUMMMMMMMMMMMMMM'
p945
ssg73
(dp946
g84
S'MMDMMMMMUMMMMMMDMDUMMUUMUMMMMMMUMMDMMMMUMDMUMMMMMMDMMMMUMMMMMMMMMMMMUM'
p947
ssg75
(dp948
g84
S'MMDMMMMMMMMMMMMDMDUMMMMUMMMMMMMMUMDMMMUMMDMUMUMMMMDMMMMMUUUMUMMMMMMMUM'
p949
sssg43
(dp950
g8
g116
sg11
g181
sg13
g244
sg15
g305
sg17
g364
sg19
g421
sg21
g476
sg23
g529
sg25
g580
sg27
g629
sg29
g676
sg31
g721
sg33
g766
sg35
g807
sg37
g844
sg39
g881
sg41
g916
sg45
(dp951
g84
S'MMMMMMUMMMMMMMMMMMMUMMUMMMMUMMUMMMMMMMMUMMMUMMMMMMMMMDMUMMDMMMMMMMMMDM'
p952
ssg47
(dp953
g84
S'MMMMMMMMMMMUMMMMMMMMMMMMMMMMMMMMMMUMMMMMMMMDMMMMMMUMMDMMMMDMMMMMMMMMDM'
p954
ssg49
(dp955
g84
S'MMMUMMMMMMMMMMMMUMMMMMMMMMMMMMUMMMMUMMMUMMMUMMMMUMMMMDMMMMDMMMMUMUMMDM'
p956
ssg51
(dp957
g84
S'MMMMMMMMMMUMMMMMMMMMMMMMMMMMMMMMMMUMMMMMMMMDMMMMMMUUMDMMMMDMMMMMMMMMDM'
p958
ssg53
(dp959
g84
S'MMMMMMMMMMMMMMMMMMMMMUUMMMMMMMMMMMMMMMMUMMMDMMMMMMUMMDMUMMDMMMMMMMMMDM'
p960
ssg55
(dp961
g84
S'MMMMMMMMMMMMMMMMMMMMMMMUMMUMMMMMUMMMMMUMMMMUMMMMMMMMMDMMMUDMMMMMMMMMDM'
p962
ssg57
(dp963
g84
S'MMMMMMMUMMMMMMMMMUMMMMMMMMMMMMMMMMUMMMMMMMMDMMMMMMUMMDMMMMDMMMMMMMMMDM'
p964
ssg59
(dp965
g84
S'MMMMMMMMMMMMMMMMMMMMMMMMMMMMMMMMMMUMMUMMMMMDMMMMMMUMMDMMMMDMMMMMMMMMDM'
p966
ssg61
(dp967
g84
S'MMMMMMMMMMMMMMMMMMMMMMMMMMMMMMMMMMUMMMMMMMMDMMMMMMUMMDMMMMDMMMMMMMMMDM'
p968
ssg63
(dp969
g84
S'MMMMMMMMMMMMMMMMMMMMMMMMMMMMMMMMMMMMMMMMMMMUMMMMMDDMMUMMMMUMMMMMMMMMUM'
p970
ssg65
(dp971
g84
S'MMMMMMMMMMMMMMMMMMUMMMUMMMMMMMMMMMMMMMUUMMMUMMMMMMMMMDMUUMDMMMMMMMMMDM'
p972
ssg67
(dp973
g84
S'MMMMMUMUMMMMMMMMMUMMMMMMMMMMMMMMMMUMMMMMUMMDUMMMMMUMMDMMMMDMMUMMMMMMDM'
p974
ssg69
(dp975
g84
S'MMMMMMMMMMMMMMMMMMMMMMMMMMMMMMMMMMUMMMMMMMUDMMMMMMUMUDMMMMDMMMMMMMMMDM'
p976
ssg71
(dp977
g84
S'MMMMUMMMMMMMMMMMUMMMMMUMMMMMMMUMMMMMMMMUMMMUMMUMMMMMMDMUMMDMMMMMMMMMDM'
p978
ssg73
(dp979
g84
S'MMMMMMMMUMMMMMMMMMUMMUUMUMMMMMMUMMMMMMMUMMMDMMMMMMUMMDMUMMDMMMMMMMMMDM'
p980
ssg75
(dp981
g84
S'MMMMMMMMMMMMMMMMMMUMMMMUMMMMMMMMUMMMMMUMMMMUMUMMMMMMMDMMUUDMUMMMMMMMDM'
p982
sssg45
(dp983
g8
g118
sg11
g183
sg13
g246
sg15
g307
sg17
g366
sg19
g423
sg21
g478
sg23
g531
sg25
g582
sg27
g631
sg29
g678
sg31
g723
sg33
g768
sg35
g799
sg37
g846
sg39
g883
sg41
g918
sg43
g951
sg47
(dp984
g84
S'MMMMMMUMMMMDMMMMMMMUMMUMMMMUMMUMMMDMMMMUMMMUMMMMMMDMMMMUMMMMMMMMMMMMMM'
p985
ssg49
(dp986
g84
S'MMMDMMUMMMMMMMMMDMMUMMUMMMMUMMUMMMMDMMMUMMMUMMMMDMMMMDMUMMDMMMMDMDMMDM'
p987
ssg51
(dp988
g84
S'MMMMMMUMMMDMMMMMMMMUMMUMMMMUMMUMMMDMMMMUMMMUMMMMMMDDMMMUMMMMMMMMMMMMMM'
p989
ssg53
(dp990
g84
S'MMMMMMUMMMMMMMMMMMMUMDUMMMMUMMUMMMMMMMMUMMMUMMMMMMDMMMMDMMMMMMMMMMMMMM'
p991
ssg55
(dp992
g84
S'MMMMMMUMMMMMMMMMMMMUMMUDMMDUMMUMDMMMMMDUMMMUMMMMMMMMMMMUMDDMMMMMMMMMDM'
p993
ssg57
(dp994
g84
S'MMMMMMUDMMMMMMMMMDMUMMUMMMMUMMUMMMDMMMMUMMMUMMMMMMDMMMMUMMMMMMMMMMMMMM'
p995
ssg59
(dp996
g84
S'MMMMMMUMMMMMMMMMMMMUMMUMMMMUMMUMMMDMMDMUMMMUMMMMMMDMMMMUMMMMMMMMMMMMMM'
p997
ssg61
(dp998
g84
S'MMMMMMUMMMMMMMMMMMMUMMUMMMMUMMUMMMDMMMMUMMMUMMMMMMDMMMMUMMMMMMMMMMMMMM'
p999
ssg63
(dp1000
g84
S'MMMMMMUMMMMMMMMMMMMUMMUMMMMUMMUMMMMMMMMUMMMUMMMMMDDMMMMUMMMMMMMMMMMMMM'
p1001
ssg65
(dp1002
g84
S'MMMMMMUMMMMMMMMMMMDUMMUMMMMUMMUMMMMMMMDUMMMDMMMMMMMMMMMUDMMMMMMMMMMMDM'
p1003
ssg67
(dp1004
g84
S'MMMMMDUDMMMMMMMMMDMUMMUMMMMUMMUMMMDMMMMUDMMUDMMMMMDMMMMUMMMMMDMMMMMMMM'
p1005
ssg69
(dp1006
g84
S'MMMMMMUMMMMMMMMMMMMUMMUMMMMUMMUMMMDMMMMUMMDUMMMMMMDMDMMUMMMMMMMMMMMMMM'
p1007
ssg71
(dp1008
g84
S'MMMMUMDMMMMMMMMMUMMDMMDMMMMDMMDMMMMMMMMDMMMUMMUMMMMMMMMUMMMMMMMMMMMMMM'
p1009
ssg73
(dp1010
g84
S'MMMMMMDMUMMMMMMMMMUDMUDMUMMDMMDUMMMMMMMDMMMDMMMMMMUMMMMDMMMMMMMMMMMMUM'
p1011
ssg75
(dp1012
g84
S'MMMMMMDMMMMMMMMMMMUDMMDUMMMDMMDMUMMMMMUDMMMDMUMMMMMMMMMDUUUMUMMMMMMMUM'
p1013
sssg47
(dp1014
g8
g120
sg11
g185
sg13
g248
sg15
g309
sg17
g368
sg19
g425
sg21
g480
sg23
g533
sg25
g584
sg27
g633
sg29
g680
sg31
g725
sg33
g770
sg35
g809
sg37
g848
sg39
g885
sg41
g920
sg43
g953
sg45
g984
sg49
(dp1015
g84
S'MMMUMMMMMMMDMMMMUMMMMMMMMMMMMMUMMMDUMMMUMMMUMMMMUMDMMUMMMMUMMMMUMUMMUM'
p1016
ssg51
(dp1017
g84
S'MMMMMMMMMMUDMMMMMMMMMMMMMMMMMMMMMMUMMMMMMMMUMMMMMMDUMMMMMMMMMMMMMMMMMM'
p1018
ssg53
(dp1019
g84
S'MMMMMMMMMMMDMMMMMMMMMUUMMMMMMMMMMMDMMMMUMMMUMMMMMMDMMMMUMMMMMMMMMMMMMM'
p1020
ssg55
(dp1021
g84
S'MMMMMMMMMMMUMMMMMMMMMMMDMMDMMMMMDMUMMMDMMMMDMMMMMMUMMMMMMDDMMMMMMMMMDM'
p1022
ssg57
(dp1023
g84
S'MMMMMMMUMMMDMMMMMUMMMMMMMMMMMMMMMMDMMMMMMMMUMMMMMMDMMMMMMMMMMMMMMMMMMM'
p1024
ssg59
(dp1025
g84
S'MMMMMMMMMMMDMMMMMMMMMMMMMMMMMMMMMMDMMUMMMMMUMMMMMMDMMMMMMMMMMMMMMMMMMM'
p1026
ssg61
(dp1027
g84
S'MMMMMMMMMMMDMMMMMMMMMMMMMMMMMMMMMMDMMMMMMMMDMMMMMMUMMMMMMMMMMMMMMMMMMM'
p1028
ssg63
(dp1029
g84
S'MMMMMMMMMMMUMMMMMMMMMMMMMMMMMMMMMMUMMMMMMMMDMMMMMDUMMMMMMMMMMMMMMMMMMM'
p1030
ssg65
(dp1031
g84
S'MMMMMMMMMMMDMMMMMMUMMMUMMMMMMMMMMMDMMMUUMMMUMMMMMMDMMMMUUMMMMMMMMMMMUM'
p1032
ssg67
(dp1033
g84
S'MMMMMUMUMMMDMMMMMUMMMMMMMMMMMMMMMMUMMMMMUMMUUMMMMMDMMMMMMMMMMUMMMMMMMM'
p1034
ssg69
(dp1035
g84
S'MMMMMMMMMMMDMMMMMMMMMMMMMMMMMMMMMMUMMMMMMMUUMMMMMMDMUMMMMMMMMMMMMMMMMM'
p1036
ssg71
(dp1037
g84
S'MMMMUMMMMMMDMMMMUMMMMMUMMMMMMMUMMMDMMMMUMMMUMMUMMMDMMMMUMMMMMMMMMMMMMM'
p1038
ssg73
(dp1039
g84
S'MMMMMMMMUMMDMMMMMMUMMUUMUMMMMMMUMMDMMMMUMMMUMMMMMMDMMMMUMMMMMMMMMMMMUM'
p1040
ssg75
(dp1041
g84
S'MMMMMMMMMMMDMMMMMMUMMMMUMMMMMMMMUMDMMMUMMMMUMUMMMMDMMMMMUUUMUMMMMMMMUM'
p1042
sssg49
(dp1043
g8
g122
sg11
g187
sg13
g250
sg15
g311
sg17
g370
sg19
g427
sg21
g482
sg23
g535
sg25
g586
sg27
g635
sg29
g682
sg31
g727
sg33
g772
sg35
g811
sg37
g850
sg39
g887
sg41
g922
sg43
g955
sg45
g986
sg47
g1015
sg51
(dp1044
g84
S'MMMDMMMMMMUMMMMMDMMMMMMMMMMMMMDMMMUDMMMDMMMDMMMMDMUUMDMMMMDMMMMDMDMMDM'
p1045
ssg53
(dp1046
g84
S'MMMDMMMMMMMMMMMMDMMMMUUMMMMMMMDMMMMDMMMUMMMDMMMMDMUMMDMUMMDMMMMDMDMMDM'
p1047
ssg55
(dp1048
g84
S'MMMUMMMMMMMMMMMMUMMMMMMDMMDMMMUMDMMUMMDUMMMDMMMMUMMMMUMMMDUMMMMUMUMMUM'
p1049
ssg57
(dp1050
g84
S'MMMDMMMUMMMMMMMMDUMMMMMMMMMMMMDMMMUDMMMDMMMDMMMMDMUMMDMMMMDMMMMDMDMMDM'
p1051
ssg59
(dp1052
g84
S'MMMDMMMMMMMMMMMMDMMMMMMMMMMMMMDMMMUDMUMDMMMDMMMMDMUMMDMMMMDMMMMDMDMMDM'
p1053
ssg61
(dp1054
g84
S'MMMDMMMMMMMMMMMMDMMMMMMMMMMMMMDMMMUDMMMDMMMDMMMMDMUMMDMMMMDMMMMDMDMMDM'
p1055
ssg63
(dp1056
g84
S'MMMUMMMMMMMMMMMMUMMMMMMMMMMMMMUMMMMUMMMUMMMUMMMMUDDMMUMMMMUMMMMUMUMMUM'
p1057
ssg65
(dp1058
g84
S'MMMDMMMMMMMMMMMMDMUMMMUMMMMMMMDMMMMDMMUUMMMUMMMMDMMMMDMUUMDMMMMDMDMMDM'
p1059
ssg67
(dp1060
g84
S'MMMDMUMUMMMMMMMMDUMMMMMMMMMMMMDMMMUDMMMDUMMDUMMMDMUMMDMMMMDMMUMDMDMMDM'
p1061
ssg69
(dp1062
g84
S'MMMDMMMMMMMMMMMMDMMMMMMMMMMMMMDMMMUDMMMDMMUDMMMMDMUMUDMMMMDMMMMDMDMMDM'
p1063
ssg71
(dp1064
g84
S'MMMDUMMMMMMMMMMMMMMMMMUMMMMMMMUMMMMDMMMUMMMUMMUMDMMMMDMUMMDMMMMDMDMMDM'
p1065
ssg73
(dp1066
g84
S'MMMDMMMMUMMMMMMMDMUMMUUMUMMMMMDUMMMDMMMUMMMDMMMMDMUMMDMUMMDMMMMDMDMMDM'
p1067
ssg75
(dp1068
g84
S'MMMDMMMMMMMMMMMMDMUMMMMUMMMMMMDMUMMDMMUDMMMUMUMMDMMMMDMMUUDMUMMDMDMMDM'
p1069
sssg51
(dp1070
g8
g124
sg11
g189
sg13
g252
sg15
g313
sg17
g372
sg19
g429
sg21
g484
sg23
g537
sg25
g588
sg27
g637
sg29
g684
sg31
g729
sg33
g774
sg35
g813
sg37
g852
sg39
g889
sg41
g924
sg43
g957
sg45
g988
sg47
g1017
sg49
g1044
sg53
(dp1071
g84
S'MMMMMMMMMMDMMMMMMMMMMUUMMMMMMMMMMMDMMMMUMMMUMMMMMMDDMMMUMMMMMMMMMMMMMM'
p1072
ssg55
(dp1073
g84
S'MMMMMMMMMMUMMMMMMMMMMMMDMMDMMMMMDMUMMMDMMMMDMMMMMMUUMMMMMDDMMMMMMMMMDM'
p1074
ssg57
(dp1075
g84
S'MMMMMMMUMMDMMMMMMUMMMMMMMMMMMMMMMMDMMMMMMMMUMMMMMMDDMMMMMMMMMMMMMMMMMM'
p1076
ssg59
(dp1077
g84
S'MMMMMMMMMMDMMMMMMMMMMMMMMMMMMMMMMMDMMUMMMMMDMMMMMMUDMMMMMMMMMMMMMMMMMM'
p1078
ssg61
(dp1079
g84
S'MMMMMMMMMMDMMMMMMMMMMMMMMMMMMMMMMMDMMMMMMMMDMMMMMMUDMMMMMMMMMMMMMMMMMM'
p1080
ssg63
(dp1081
g84
S'MMMMMMMMMMUMMMMMMMMMMMMMMMMMMMMMMMUMMMMMMMMDMMMMMDUUMMMMMMMMMMMMMMMMMM'
p1082
ssg65
(dp1083
g84
S'MMMMMMMMMMDMMMMMMMUMMMUMMMMMMMMMMMDMMMUUMMMUMMMMMMDDMMMUUMMMMMMMMMMMUM'
p1084
ssg67
(dp1085
g84
S'MMMMMUMUMMDMMMMMMUMMMMMMMMMMMMMMMMDMMMMMUMMUUMMMMMDDMMMMMMMMMUMMMMMMMM'
p1086
ssg69
(dp1087
g84
S'MMMMMMMMMMDMMMMMMMMMMMMMMMMMMMMMMMUMMMMMMMUDMMMMMMUDUMMMMMMMMMMMMMMMMM'
p1088
ssg71
(dp1089
g84
S'MMMMUMMMMMDMMMMMUMMMMMUMMMMMMMUMMMDMMMMUMMMUMMUMMMDDMMMUMMMMMMMMMMMMMM'
p1090
ssg73
(dp1091
g84
S'MMMMMMMMUMDMMMMMMMUMMUUMUMMMMMMUMMDMMMMUMMMUMMMMMMDDMMMUMMMMMMMMMMMMUM'
p1092
ssg75
(dp1093
g84
S'MMMMMMMMMMDMMMMMMMUMMMMUMMMMMMMMUMDMMMUMMMMUMUMMMMDDMMMMUUUMUMMMMMMMUM'
p1094
sssg53
(dp1095
g8
g126
sg11
g191
sg13
g254
sg15
g315
sg17
g374
sg19
g431
sg21
g486
sg23
g539
sg25
g590
sg27
g639
sg29
g686
sg31
g731
sg75
(dp1096
g84
S'MMMMMMMMMMMMMMMMMMUMMDDUMMMMMMMMUMMMMMUDMMMUMUMMMMDMMMMDUUUMUMMMMMMMUM'
p1097
ssg35
g815
sg37
g854
sg39
g891
sg41
g926
sg43
g959
sg45
g990
sg47
g1019
sg49
g1046
sg51
g1071
sg33
g776
sg55
(dp1098
g84
S'MMMMMMMMMMMMMMMMMMMMMUUDMMDMMMMMDMMMMMDUMMMDMMMMMMUMMMMUMDDMMMMMMMMMDM'
p1099
ssg57
(dp1100
g84
S'MMMMMMMUMMMMMMMMMUMMMDDMMMMMMMMMMMUMMMMDMMMDMMMMMMUMMMMDMMMMMMMMMMMMMM'
p1101
ssg59
(dp1102
g84
S'MMMMMMMMMMMMMMMMMMMMMDDMMMMMMMMMMMUMMUMDMMMDMMMMMMUMMMMDMMMMMMMMMMMMMM'
p1103
ssg61
(dp1104
g84
S'MMMMMMMMMMMMMMMMMMMMMDDMMMMMMMMMMMUMMMMDMMMDMMMMMMUMMMMDMMMMMMMMMMMMMM'
p1105
ssg63
(dp1106
g84
S'MMMMMMMMMMMMMMMMMMMMMUUMMMMMMMMMMMMMMMMUMMMUMMMMMDDMMMMUMMMMMMMMMMMMMM'
p1107
ssg65
(dp1108
g84
S'MMMMMMMMMMMMMMMMMMUMMDDMMMMMMMMMMMMMMMUDMMMUMMMMMMDMMMMDUMMMMMMMMMMMUM'
p1109
ssg67
(dp1110
g84
S'MMMMMUMUMMMMMMMMMUMMMDDMMMMMMMMMMMUMMMMDUMMDUMMMMMUMMMMDMMMMMUMMMMMMMM'
p1111
ssg69
(dp1112
g84
S'MMMMMMMMMMMMMMMMMMMMMDDMMMMMMMMMMMUMMMMDMMUDMMMMMMUMUMMDMMMMMMMMMMMMMM'
p1113
ssg71
(dp1114
g84
S'MMMMUMMMMMMMMMMMUMMMMDDMMMMMMMUMMMMMMMMUMMMUMMUMMMDMMMMDMMMMMMMMMMMMMM'
p1115
ssg73
(dp1116
g84
S'MMMMMMMMUMMMMMMMMMUMMUDMUMMMMMMUMMMMMMMDMMMUMMMMMMDMMMMDMMMMMMMMMMMMUM'
p1117
sssg55
(dp1118
g8
g128
sg11
g193
sg13
g256
sg15
g317
sg17
g376
sg19
g433
sg21
g488
sg23
g541
sg27
g641
sg29
g688
sg31
g733
sg33
g778
sg35
g817
sg37
g856
sg39
g893
sg41
g928
sg43
g961
sg45
g992
sg47
g1021
sg49
g1048
sg51
g1073
sg53
g1098
sg25
g592
sg57
(dp1119
g84
S'MMMMMMMUMMMMMMMMMUMMMMMDMMDMMMMMDMUMMMDMMMMDMMMMMMUMMMMMMDDMMMMMMMMMDM'
p1120
ssg59
(dp1121
g84
S'MMMMMMMMMMMMMMMMMMMMMMMDMMDMMMMMDMUMMUDMMMMDMMMMMMUMMMMMMDDMMMMMMMMMDM'
p1122
ssg61
(dp1123
g84
S'MMMMMMMMMMMMMMMMMMMMMMMDMMDMMMMMDMUMMMDMMMMDMMMMMMUMMMMMMDDMMMMMMMMMDM'
p1124
ssg63
(dp1125
g84
S'MMMMMMMMMMMMMMMMMMMMMMMUMMUMMMMMUMMMMMUMMMMUMMMMMDDMMMMMMUUMMMMMMMMMUM'
p1126
ssg65
(dp1127
g84
S'MMMMMMMMMMMMMMMMMMUMMMUDMMDMMMMMDMMMMMUUMMMUMMMMMMMMMMMUUDDMMMMMMMMMDM'
p1128
ssg67
(dp1129
g84
S'MMMMMUMUMMMMMMMMMUMMMMMDMMDMMMMMDMUMMMDMUMMDUMMMMMUMMMMMMDDMMUMMMMMMDM'
p1130
ssg69
(dp1131
g84
S'MMMMMMMMMMMMMMMMMMMMMMMDMMDMMMMMDMUMMMDMMMUDMMMMMMUMUMMMMDDMMMMMMMMMDM'
p1132
ssg71
(dp1133
g84
S'MMMMUMMMMMMMMMMMUMMMMMUDMMDMMMUMDMMMMMDUMMMUMMUMMMMMMMMUMDDMMMMMMMMMDM'
p1134
ssg73
(dp1135
g84
S'MMMMMMMMUMMMMMMMMMUMMUUDUMDMMMMUDMMMMMDUMMMDMMMMMMUMMMMUMDDMMMMMMMMMDM'
p1136
ssg75
(dp1137
g84
S'MMMMMMMMMMMMMMMMMMUMMMMDMMDMMMMMDMMMMMMMMMMDMUMMMMMMMMMMUUUMUMMMMMMMMM'
p1138
sssg57
(dp1139
g8
g130
sg11
g195
sg13
g258
sg15
g319
sg17
g378
sg19
g435
sg21
g490
sg23
g543
sg25
g594
sg27
g643
sg29
g690
sg31
g735
sg33
g780
sg35
g819
sg37
g858
sg39
g895
sg41
g930
sg43
g963
sg45
g994
sg47
g1023
sg49
g1050
sg51
g1075
sg53
g1100
sg55
g1119
sg59
(dp1140
g84
S'MMMMMMMDMMMMMMMMMDMMMMMMMMMMMMMMMMUMMUMMMMMDMMMMMMUMMMMMMMMMMMMMMMMMMM'
p1141
ssg61
(dp1142
g84
S'MMMMMMMDMMMMMMMMMDMMMMMMMMMMMMMMMMUMMMMMMMMDMMMMMMUMMMMMMMMMMMMMMMMMMM'
p1143
ssg63
(dp1144
g84
S'MMMMMMMUMMMMMMMMMUMMMMMMMMMMMMMMMMUMMMMMMMMDMMMMMDUMMMMMMMMMMMMMMMMMMM'
p1145
ssg65
(dp1146
g84
S'MMMMMMMDMMMMMMMMMDUMMMUMMMMMMMMMMMDMMMUUMMMUMMMMMMDMMMMUUMMMMMMMMMMMUM'
p1147
ssg67
(dp1148
g84
S'MMMMMUMDMMMMMMMMMMMMMMMMMMMMMMMMMMUMMMMMUMMDUMMMMMUMMMMMMMMMMUMMMMMMMM'
p1149
ssg69
(dp1150
g84
S'MMMMMMMDMMMMMMMMMDMMMMMMMMMMMMMMMMUMMMMMMMUDMMMMMMUMUMMMMMMMMMMMMMMMMM'
p1151
ssg71
(dp1152
g84
S'MMMMUMMDMMMMMMMMUDMMMMUMMMMMMMUMMMDMMMMUMMMUMMUMMMDMMMMUMMMMMMMMMMMMMM'
p1153
ssg73
(dp1154
g84
S'MMMMMMMDUMMMMMMMMDUMMUUMUMMMMMMUMMDMMMMUMMMUMMMMMMDMMMMUMMMMMMMMMMMMUM'
p1155
ssg75
(dp1156
g84
S'MMMMMMMDMMMMMMMMMDUMMMMUMMMMMMMMUMDMMMUMMMMUMUMMMMDMMMMMUUUMUMMMMMMMUM'
p1157
sssg59
(dp1158
g8
g132
sg11
g197
sg13
g260
sg15
g321
sg17
g380
sg19
g437
sg21
g492
sg23
g545
sg25
g596
sg27
g645
sg29
g692
sg31
g737
sg33
g782
sg35
g821
sg37
g860
sg39
g897
sg41
g932
sg43
g965
sg45
g996
sg47
g1025
sg49
g1052
sg51
g1077
sg53
g1102
sg55
g1121
sg57
g1140
sg61
(dp1159
g84
S'MMMMMMMMMMMMMMMMMMMMMMMMMMMMMMMMMMUMMDMMMMMDMMMMMMUMMMMMMMMMMMMMMMMMMM'
p1160
ssg63
(dp1161
g84
S'MMMMMMMMMMMMMMMMMMMMMMMMMMMMMMMMMMUMMUMMMMMDMMMMMDUMMMMMMMMMMMMMMMMMMM'
p1162
ssg65
(dp1163
g84
S'MMMMMMMMMMMMMMMMMMUMMMUMMMMMMMMMMMDMMDUUMMMUMMMMMMDMMMMUUMMMMMMMMMMMUM'
p1164
ssg67
(dp1165
g84
S'MMMMMUMUMMMMMMMMMUMMMMMMMMMMMMMMMMUMMDMMUMMUUMMMMMDMMMMMMMMMMUMMMMMMMM'
p1166
ssg69
(dp1167
g84
S'MMMMMMMMMMMMMMMMMMMMMMMMMMMMMMMMMMDMMUMMMMDDMMMMMMUMDMMMMMMMMMMMMMMMMM'
p1168
ssg71
(dp1169
g84
S'MMMMUMMMMMMMMMMMUMMMMMUMMMMMMMUMMMDMMDMUMMMUMMUMMMDMMMMUMMMMMMMMMMMMMM'
p1170
ssg73
(dp1171
g84
S'MMMMMMMMUMMMMMMMMMUMMUUMUMMMMMMUMMDMMDMUMMMUMMMMMMDMMMMUMMMMMMMMMMMMUM'
p1172
ssg75
(dp1173
g84
S'MMMMMMMMMMMMMMMMMMUMMMMUMMMMMMMMUMDMMDUMMMMUMUMMMMDMMMMMUUUMUMMMMMMMUM'
p1174
sssg61
(dp1175
g8
g134
sg11
g199
sg13
g262
sg15
g323
sg17
g382
sg19
g439
sg21
g494
sg23
g547
sg25
g598
sg27
g647
sg29
g694
sg31
g739
sg33
g784
sg35
g823
sg37
g862
sg39
g899
sg41
g934
sg43
g967
sg45
g998
sg47
g1027
sg49
g1054
sg51
g1079
sg53
g1104
sg55
g1123
sg57
g1142
sg59
g1159
sg63
(dp1176
g84
S'MMMMMMMMMMMMMMMMMMMMMMMMMMMMMMMMMMUMMMMMMMMDMMMMMDUMMMMMMMMMMMMMMMMMMM'
p1177
ssg65
(dp1178
g84
S'MMMMMMMMMMMMMMMMMMUMMMUMMMMMMMMMMMDMMMUUMMMUMMMMMMDMMMMUUMMMMMMMMMMMUM'
p1179
ssg67
(dp1180
g84
S'MMMMMUMUMMMMMMMMMUMMMMMMMMMMMMMMMMUMMMMMUMMUUMMMMMDMMMMMMMMMMUMMMMMMMM'
p1181
ssg69
(dp1182
g84
S'MMMMMMMMMMMMMMMMMMMMMMMMMMMMMMMMMMDMMMMMMMDDMMMMMMUMDMMMMMMMMMMMMMMMMM'
p1183
ssg71
(dp1184
g84
S'MMMMUMMMMMMMMMMMUMMMMMUMMMMMMMUMMMDMMMMUMMMUMMUMMMDMMMMUMMMMMMMMMMMMMM'
p1185
ssg73
(dp1186
g84
S'MMMMMMMMUMMMMMMMMMUMMUUMUMMMMMMUMMDMMMMUMMMUMMMMMMDMMMMUMMMMMMMMMMMMUM'
p1187
ssg75
(dp1188
g84
S'MMMMMMMMMMMMMMMMMMUMMMMUMMMMMMMMUMDMMMUMMMMUMUMMMMDMMMMMUUUMUMMMMMMMUM'
p1189
sssg63
(dp1190
g8
g136
sg11
g201
sg13
g264
sg15
g325
sg17
g384
sg19
g441
sg21
g496
sg25
g600
sg27
g649
sg29
g696
sg31
g741
sg33
g786
sg35
g825
sg37
g864
sg39
g901
sg41
g936
sg43
g969
sg45
g1000
sg47
g1029
sg49
g1056
sg51
g1081
sg53
g1106
sg55
g1125
sg57
g1144
sg59
g1161
sg61
g1176
sg23
g549
sg65
(dp1191
g84
S'MMMMMMMMMMMMMMMMMMUMMMUMMMMMMMMMMMMMMMUUMMMUMMMMMDDMMMMUUMMMMMMMMMMMUM'
p1192
ssg67
(dp1193
g84
S'MMMMMUMUMMMMMMMMMUMMMMMMMMMMMMMMMMUMMMMMUMMDUMMMMDUMMMMMMMMMMUMMMMMMMM'
p1194
ssg69
(dp1195
g84
S'MMMMMMMMMMMMMMMMMMMMMMMMMMMMMMMMMMUMMMMMMMUDMMMMMDUMUMMMMMMMMMMMMMMMMM'
p1196
ssg71
(dp1197
g84
S'MMMMUMMMMMMMMMMMUMMMMMUMMMMMMMUMMMMMMMMUMMMUMMUMMDDMMMMUMMMMMMMMMMMMMM'
p1198
ssg73
(dp1199
g84
S'MMMMMMMMUMMMMMMMMMUMMUUMUMMMMMMUMMMMMMMUMMMUMMMMMDDMMMMUMMMMMMMMMMMMUM'
p1200
ssg75
(dp1201
g84
S'MMMMMMMMMMMMMMMMMMUMMMMUMMMMMMMMUMMMMMUMMMMUMUMMMDDMMMMMUUUMUMMMMMMMUM'
p1202
sssg65
(dp1203
g8
g138
sg11
g203
sg13
g266
sg15
g327
sg17
g386
sg19
g443
sg21
g498
sg23
g551
sg25
g602
sg27
g651
sg29
g698
sg31
g743
sg33
g788
sg35
g827
sg37
g866
sg39
g903
sg41
g938
sg43
g971
sg45
g1002
sg47
g1031
sg49
g1058
sg51
g1083
sg53
g1108
sg55
g1127
sg57
g1146
sg59
g1163
sg61
g1178
sg63
g1191
sg67
(dp1204
g84
S'MMMMMUMUMMMMMMMMMUDMMMDMMMMMMMMMMMUMMMDDUMMDUMMMMMUMMMMDDMMMMUMMMMMMDM'
p1205
ssg69
(dp1206
g84
S'MMMMMMMMMMMMMMMMMMUMMMUMMMMMMMMMMMDMMMUUMMDUMMMMMMDMDMMUUMMMMMMMMMMMUM'
p1207
ssg71
(dp1208
g84
S'MMMMUMMMMMMMMMMMUMDMMMMMMMMMMMUMMMMMMMDUMMMMMMUMMMMMMMMUDMMMMMMMMMMMDM'
p1209
ssg73
(dp1210
g84
S'MMMMMMMMUMMMMMMMMMUMMUDMUMMMMMMUMMMMMMDDMMMDMMMMMMUMMMMDDMMMMMMMMMMMDM'
p1211
ssg75
(dp1212
g84
S'MMMMMMMMMMMMMMMMMMDMMMDUMMMMMMMMUMMMMMMDMMMDMUMMMMMMMMMDDUUMUMMMMMMMUM'
p1213
sssg67
(dp1214
g8
g140
sg11
g205
sg13
g268
sg15
g329
sg17
g388
sg19
g445
sg21
g500
sg23
g553
sg25
g604
sg27
g653
sg29
g700
sg31
g745
sg33
g790
sg35
g829
sg37
g868
sg39
g905
sg41
g940
sg43
g973
sg45
g1004
sg47
g1033
sg49
g1060
sg51
g1085
sg53
g1110
sg55
g1129
sg57
g1148
sg59
g1165
sg61
g1180
sg63
g1193
sg65
g1204
sg69
(dp1215
g84
S'MMMMMUMUMMMMMMMMMUMMMMMMMMMMMMMMMMDMMMMMUMDUUMMMMMDMDMMMMMMMMUMMMMMMMM'
p1216
ssg71
(dp1217
g84
S'MMMMUDMDMMMMMMMMUDMMMMUMMMMMMMUMMMDMMMMUDMMUDMUMMMDMMMMUMMMMMDMMMMMMMM'
p1218
ssg73
(dp1219
g84
S'MMMMMDMDUMMMMMMMMDUMMUUMUMMMMMMUMMDMMMMUDMMUDMMMMMDMMMMUMMMMMDMMMMMMUM'
p1220
ssg75
(dp1221
g84
S'MMMMMDMDMMMMMMMMMDUMMMMUMMMMMMMMUMDMMMUMDMMUDUMMMMDMMMMMUUUMUDMMMMMMUM'
p1222
sssg69
(dp1223
g8
g142
sg11
g207
sg13
g270
sg15
g331
sg17
g390
sg19
g447
sg21
g502
sg23
g555
sg25
g606
sg27
g655
sg29
g702
sg31
g747
sg33
g792
sg35
g831
sg37
g870
sg39
g907
sg41
g942
sg43
g975
sg47
g1035
sg49
g1062
sg51
g1087
sg53
g1112
sg55
g1131
sg57
g1150
sg59
g1167
sg61
g1182
sg63
g1195
sg65
g1206
sg67
g1215
sg45
g1006
sg71
(dp1224
g84
S'MMMMUMMMMMMMMMMMUMMMMMUMMMMMMMUMMMDMMMMUMMDUMMUMMMDMDMMUMMMMMMMMMMMMMM'
p1225
ssg73
(dp1226
g84
S'MMMMMMMMUMMMMMMMMMUMMUUMUMMMMMMUMMDMMMMUMMDUMMMMMMDMDMMUMMMMMMMMMMMMUM'
p1227
ssg75
(dp1228
g84
S'MMMMMMMMMMMMMMMMMMUMMMMUMMMMMMMMUMDMMMUMMMDUMUMMMMDMDMMMUUUMUMMMMMMMUM'
p1229
sssg71
(dp1230
g8
g144
sg11
g209
sg13
g272
sg15
g333
sg17
g392
sg19
g449
sg21
g504
sg23
g557
sg25
g608
sg27
g657
sg29
g704
sg31
g749
sg33
g794
sg35
g833
sg37
g872
sg39
g909
sg41
g944
sg43
g977
sg45
g1008
sg47
g1037
sg49
g1064
sg51
g1089
sg53
g1114
sg55
g1133
sg57
g1152
sg59
g1169
sg61
g1184
sg63
g1197
sg65
g1208
sg67
g1217
sg69
g1224
sg73
(dp1231
g84
S'MMMMDMMMUMMMMMMMDMUMMUDMUMMMMMDUMMMMMMMDMMMDMMDMMMUMMMMDMMMMMMMMMMMMUM'
p1232
ssg75
(dp1233
g84
S'MMMMDMMMMMMMMMMMDMUMMMDUMMMMMMDMUMMMMMUDMMMDMUDMMMMMMMMDUUUMUMMMMMMMUM'
p1234
sssg73
(dp1235
g8
g146
sg11
g211
sg13
g274
sg15
g335
sg17
g394
sg19
g451
sg21
g506
sg23
g559
sg25
g610
sg27
g659
sg29
g706
sg31
g751
sg33
g796
sg35
g835
sg37
g874
sg39
g911
sg41
g946
sg43
g979
sg45
g1010
sg47
g1039
sg49
g1066
sg51
g1091
sg53
g1116
sg55
g1135
sg57
g1154
sg59
g1171
sg61
g1186
sg63
g1199
sg65
g1210
sg67
g1219
sg69
g1226
sg71
g1231
sg75
(dp1236
g84
S'MMMMMMMMDMMMMMMMMMDMMDDUDMMMMMMDUMMMMMUDMMMUMUMMMMDMMMMDUUUMUMMMMMMMUM'
p1237
sssg75
(dp1238
g8
g148
sg11
g213
sg13
g276
sg15
g337
sg17
g396
sg19
g453
sg21
g508
sg23
g561
sg25
g612
sg27
g661
sg29
g708
sg31
g753
sg33
g756
sg35
g837
sg37
g876
sg39
g913
sg41
g948
sg43
g981
sg45
g1012
sg47
g1041
sg49
g1068
sg51
g1093
sg53
g1096
sg55
g1137
sg57
g1156
sg59
g1173
sg61
g1188
sg63
g1201
sg65
g1212
sg67
g1221
sg69
g1228
sg71
g1233
sg73
g1236
sssS'adj'
p1239
g81
sb.