(dp0
S'assemblage-14-12'
p1
(lp2
I0
acnumpy.core.multiarray
scalar
p3
(cnumpy
dtype
p4
(S'f8'
p5
I0
I1
tp6
Rp7
(I3
S'<'
p8
NNNI-1
I-1
I0
tp9
bS'\xfb\x00^\xa5\xa4\xb2\xfa>'
p10
tp11
Rp12
aI0
aI0
aI0
aI0
aI0
aI0
aI0
aI0
aI0
aI0
aI0
aI0
aI0
aI0
aI0
aI0
aI0
aI0
aI0
aI0
aI0
aI0
aI0
aI0
aI0
aI0
aI0
aI0
aI0
aI0
aI0
aI0
aI0
aI0
aI0
aI0
aI0
aI0
aI0
aI0
aI0
ag3
(g7
S'\xc3\x08\xd70\xe8\xbb\xef?'
p13
tp14
Rp15
aI0
aI0
aI0
aI0
aI0
aI0
aI0
aI0
aI0
aI0
aI0
aI0
aI0
aI0
ag3
(g7
S'hLc:\x18rS?'
p16
tp17
Rp18
aI0
aI0
aI0
aI0
aI0
aI0
aI0
ag3
(g7
S'\xc0\x13q\x9d\x11Q\x08?'
p19
tp20
Rp21
aI0
ag3
(g7
S'\x03\x82\xf7$\x1d\xa0}?'
p22
tp23
Rp24
aI0
asS'assemblage-15-7'
p25
(lp26
I0
aI0
aI0
aI0
aI0
aI0
aI0
aI0
aI0
ag3
(g7
S'6\x8a\x7fzs3\x12?'
p27
tp28
Rp29
aI0
aI0
ag3
(g7
S'\xb5a\xa6\xb9\x05J\x10?'
p30
tp31
Rp32
aI0
aI0
aI0
aI0
aI0
aI0
aI0
aI0
aI0
aI0
ag3
(g7
S'\xf0\xcas\x18\xc0\xec\x00?'
p33
tp34
Rp35
aI0
aI0
aI0
aI0
aI0
ag3
(g7
S'\xf2\xea\x1d8\xfa!\x1a?'
p36
tp37
Rp38
aI0
aI0
aI0
aI0
aI0
aI0
aI0
aI0
aI0
aI0
aI0
aI0
aI0
ag3
(g7
S'\xca\xd7.\xbb\xcb\xfb\xef?'
p39
tp40
Rp41
aI0
aI0
aI0
aI0
aI0
aI0
aI0
aI0
aI0
aI0
aI0
aI0
aI0
ag3
(g7
S'\x06\x08%\x9b1\xe4\x12?'
p42
tp43
Rp44
aI0
aI0
aI0
aI0
aI0
aI0
aI0
aI0
aI0
aI0
ag3
(g7
S'\x1fs\x89\xc2\xed\n0?'
p45
tp46
Rp47
aI0
asS'assemblage-19-23'
p48
(lp49
I0
aI0
aI0
aI0
aI0
ag3
(g7
S'\xd9s\xf7\x83\xd3,\xec>'
p50
tp51
Rp52
aI0
ag3
(g7
S'\x8f\x05\x99^A\xd5\xef>'
p53
tp54
Rp55
aI0
aI0
aI0
ag3
(g7
S'\xd2\x07\x1aG\xef\x11\xe7>'
p56
tp57
Rp58
aI0
ag3
(g7
S'uba\xf1\xfb@\xeb>'
p59
tp60
Rp61
aI0
aI0
aI0
ag3
(g7
S'\x7f\x8dH6R\xa9,?'
p62
tp63
Rp64
aI0
aI0
aI0
aI0
aI0
aI0
aI0
aI0
aI0
aI0
aI0
aI0
aI0
aI0
aI0
aI0
ag3
(g7
S'\xa9,7}\xc1\xaf\xaf?'
p65
tp66
Rp67
aI0
aI0
aI0
aI0
aI0
aI0
aI0
ag3
(g7
S'=\xfc{\x11]%\xfd>'
p68
tp69
Rp70
ag3
(g7
S'\xad\x9d\x04&\x85n\xe3?'
p71
tp72
Rp73
ag3
(g7
S"\\\xa6k\xb22'\x1b?"
p74
tp75
Rp76
aI0
aI0
aI0
aI0
aI0
ag3
(g7
S'\x88z\x81\x14+3\xd5?'
p77
tp78
Rp79
aI0
aI0
aI0
aI0
aI0
aI0
aI0
aI0
aI0
aI0
aI0
aI0
aI0
ag3
(g7
S'\xd8+\xa50\xaf\xdb\xed>'
p80
tp81
Rp82
aI0
aI0
aI0
aI0
aI0
asS'assemblage-19-20'
p83
(lp84
I0
aI0
aI0
aI0
aI0
ag3
(g7
S'\x19\xa3\x96,\x94\x9c\x05?'
p85
tp86
Rp87
ag3
(g7
S'hE\xe2\x99\xe4/\xf0>'
p88
tp89
Rp90
ag3
(g7
S'\xbd~\xc06xR\x1c?'
p91
tp92
Rp93
aI0
aI0
aI0
aI0
aI0
aI0
aI0
aI0
aI0
aI0
aI0
ag3
(g7
S')\x8cg\xdd\xdf\x10\xfe>'
p94
tp95
Rp96
aI0
aI0
ag3
(g7
S'\xce?\xd5\x92\x0c\xc9\x0c?'
p97
tp98
Rp99
aI0
aI0
aI0
aI0
aI0
aI0
aI0
aI0
aI0
aI0
aI0
ag3
(g7
S'vY%\x84.5\x82?'
p100
tp101
Rp102
aI0
aI0
aI0
aI0
ag3
(g7
S'.f\xa1r\x17\xb26?'
p103
tp104
Rp105
aI0
aI0
aI0
ag3
(g7
S'\xb3L~S\x17\x9f\xec?'
p106
tp107
Rp108
aI0
aI0
aI0
ag3
(g7
S'^\x96\xbe\xe9(:\xf0>'
p109
tp110
Rp111
aI0
ag3
(g7
S'\xf1\xff\xfaH\xad\xef\x12?'
p112
tp113
Rp114
ag3
(g7
S'\xf5\x0c1\x14\x80\xb0\xb8?'
p115
tp116
Rp117
aI0
aI0
aI0
aI0
ag3
(g7
S'\xd1\x11\xf7\xd0\xe9V\x15?'
p118
tp119
Rp120
aI0
aI0
aI0
aI0
aI0
ag3
(g7
S'\xacH,5\xce\xeb\xef>'
p121
tp122
Rp123
aI0
aI0
aI0
aI0
aI0
aI0
aI0
aI0
asS'assemblage-14-18'
p124
(lp125
I0
aI0
aI0
aI0
aI0
aI0
aI0
aI0
aI0
aI0
aI0
aI0
aI0
aI0
aI0
aI0
aI0
aI0
aI0
aI0
aI0
aI0
aI0
aI0
aI0
aI0
aI0
aI0
aI0
aI0
aI0
aI0
aI0
ag3
(g7
S'.L\xbd\x9e\x05"\x17?'
p126
tp127
Rp128
ag3
(g7
S'\x1a\xc6\x94\xf4\xac\x19\xb4?'
p129
tp130
Rp131
aI0
aI0
aI0
aI0
aI0
aI0
aI0
aI0
ag3
(g7
S'\xfaZD"!\xab\xe1?'
p132
tp133
Rp134
aI0
aI0
aI0
aI0
aI0
aI0
ag3
(g7
S'\xa2!\xd1)\xa5\xb2\xd7?'
p135
tp136
Rp137
aI0
aI0
aI0
aI0
aI0
aI0
aI0
aI0
aI0
aI0
aI0
aI0
aI0
aI0
aI0
aI0
aI0
aI0
aI0
asS'assemblage-19-22'
p138
(lp139
I0
aI0
aI0
aI0
aI0
aI0
aI0
aI0
aI0
aI0
aI0
ag3
(g7
S'\xb2j\x95\xf4>-\x05?'
p140
tp141
Rp142
aI0
aI0
aI0
aI0
aI0
aI0
aI0
aI0
aI0
aI0
aI0
aI0
aI0
ag3
(g7
S'\xc5\xc0\xd4\x10\xba\xc0\xf1>'
p143
tp144
Rp145
aI0
aI0
aI0
aI0
aI0
aI0
aI0
aI0
ag3
(g7
S'\xc9n\x10\x8a\xa2\x04\xaf?'
p146
tp147
Rp148
aI0
aI0
aI0
aI0
aI0
aI0
aI0
ag3
(g7
S'|#n\xeb\xea\x1f\x12?'
p149
tp150
Rp151
ag3
(g7
S'i0\xa8\xb2\xba\xaf\xe1?'
p152
tp153
Rp154
aI0
aI0
aI0
aI0
aI0
aI0
ag3
(g7
S'\x88\xdb\xe6\xdd]\xce\xd8?'
p155
tp156
Rp157
aI0
aI0
aI0
aI0
aI0
aI0
aI0
aI0
aI0
aI0
aI0
aI0
aI0
aI0
aI0
aI0
aI0
aI0
ag3
(g7
S'\x88\xd2\xe5vn\xff\x03?'
p158
tp159
Rp160
asS'assemblage-17-22'
p161
(lp162
I0
aI0
aI0
aI0
aI0
aI0
aI0
aI0
ag3
(g7
S'\xa6\xd7\x7f\xaa\xefm\n?'
p163
tp164
Rp165
aI0
aI0
aI0
aI0
aI0
aI0
aI0
aI0
aI0
aI0
aI0
aI0
aI0
aI0
aI0
aI0
aI0
aI0
aI0
aI0
aI0
aI0
aI0
aI0
aI0
aI0
aI0
aI0
aI0
aI0
aI0
aI0
aI0
aI0
ag3
(g7
S'\x16\x81-\xe9\x06\x8c\xed?'
p166
tp167
Rp168
aI0
aI0
aI0
aI0
aI0
aI0
ag3
(g7
S'Y. \x06$\xc4\xb3?'
p169
tp170
Rp171
aI0
aI0
aI0
aI0
aI0
aI0
aI0
aI0
aI0
aI0
aI0
aI0
aI0
aI0
aI0
aI0
ag3
(g7
S'\x1au\t\xf7^+\n?'
p172
tp173
Rp174
aI0
aI0
asS'assemblage-7-23'
p175
(lp176
I0
aI0
aI0
aI0
aI0
aI0
aI0
aI0
aI0
aI0
aI0
aI0
aI0
aI0
aI0
aI0
aI0
aI0
aI0
aI0
aI0
aI0
aI0
aI0
aI0
aI0
aI0
aI0
aI0
aI0
aI0
aI0
aI0
aI0
aI0
aI0
aI0
aI0
aI0
aI0
aI0
aI0
aI0
ag3
(g7
S'_0.\xa6\x02\xed\xed?'
p177
tp178
Rp179
aI0
aI0
aI0
aI0
aI0
ag3
(g7
S'\x97\xa6m:\xc1L9?'
p180
tp181
Rp182
ag3
(g7
S'\x066\xae;]\xa8\xb0?'
p183
tp184
Rp185
aI0
aI0
aI0
aI0
aI0
aI0
aI0
aI0
aI0
aI0
aI0
aI0
aI0
aI0
aI0
aI0
aI0
aI0
aI0
asS'assemblage-9-3'
p186
(lp187
I0
aI0
aI0
aI0
aI0
aI0
aI0
aI0
aI0
aI0
aI0
aI0
aI0
aI0
aI0
aI0
aI0
ag3
(g7
S'zg|m7\x19K?'
p188
tp189
Rp190
aI0
aI0
aI0
aI0
aI0
aI0
aI0
aI0
aI0
aI0
aI0
aI0
aI0
aI0
aI0
aI0
ag3
(g7
S'/\x89\x7f4\xbf\xc3\xb8?'
p191
tp192
Rp193
aI0
ag3
(g7
S'\xf1}\x17\x87l\xb7\x0c?'
p194
tp195
Rp196
aI0
aI0
aI0
ag3
(g7
S'5[P\xea%\xad\x1e?'
p197
tp198
Rp199
aI0
aI0
ag3
(g7
S'M\x84\xd9d\x92"\xe1?'
p200
tp201
Rp202
ag3
(g7
S'\r;\xa7Q\x0e\xff=?'
p203
tp204
Rp205
aI0
aI0
aI0
aI0
aI0
ag3
(g7
S'\xc5s\x91\\\xc1\x83\xd7?'
p206
tp207
Rp208
aI0
aI0
aI0
ag3
(g7
S'=\xaa\tG\x8f\xba\xf2>'
p209
tp210
Rp211
aI0
aI0
aI0
aI0
aI0
aI0
aI0
aI0
aI0
aI0
aI0
aI0
aI0
aI0
aI0
asS'assemblage-9-17'
p212
(lp213
I0
aI0
ag3
(g7
S'b\xfd\x9fe\xf3\xb4\x06?'
p214
tp215
Rp216
aI0
aI0
aI0
aI0
aI0
aI0
aI0
aI0
aI0
aI0
aI0
aI0
aI0
aI0
ag3
(g7
S'\x9cq\xdb\x89\xda\x82+?'
p217
tp218
Rp219
aI0
aI0
aI0
aI0
aI0
aI0
aI0
aI0
aI0
aI0
aI0
aI0
aI0
aI0
aI0
aI0
ag3
(g7
S'\xf3\xa7\x96\x03\x08\x8a\x92?'
p220
tp221
Rp222
aI0
aI0
aI0
aI0
aI0
aI0
aI0
aI0
ag3
(g7
S'/\x02\r\xfc0T\xea?'
p223
tp224
Rp225
aI0
aI0
aI0
aI0
aI0
aI0
ag3
(g7
S'\xcc\xff\xa5\x90\x0bl\xc4?'
p226
tp227
Rp228
aI0
aI0
aI0
aI0
aI0
aI0
aI0
aI0
aI0
aI0
aI0
aI0
aI0
aI0
aI0
aI0
aI0
aI0
aI0
asS'assemblage-9-16'
p229
(lp230
g3
(g7
S"<\x10'\xe7\xe3\xe4\xd9>"
p231
tp232
Rp233
aI0
aI0
aI0
aI0
aI0
aI0
ag3
(g7
S'\xfb1\xf8\xe3\xc1z\x13?'
p234
tp235
Rp236
aI0
aI0
aI0
aI0
aI0
aI0
ag3
(g7
S'V\xc28\xaa\x82B\xdd>'
p237
tp238
Rp239
aI0
aI0
ag3
(g7
S'\xf8\x11\xa3\x8b\xb4!\xdc>'
p240
tp241
Rp242
ag3
(g7
S'\x9ex\xb6f\xe8~\x0c?'
p243
tp244
Rp245
aI0
ag3
(g7
S'jp\xb8\x86\xdb\x9d\xde>'
p246
tp247
Rp248
aI0
ag3
(g7
S'.\x9bW\x8b=\x8c\xd8>'
p249
tp250
Rp251
aI0
aI0
aI0
aI0
aI0
ag3
(g7
S'GcLOY,\xd7>'
p252
tp253
Rp254
aI0
ag3
(g7
S"=\x1d3c\xa0'\xe8>"
p255
tp256
Rp257
aI0
aI0
aI0
ag3
(g7
S"\x8f'\xc7X\x0f\x84\x9d?"
p258
tp259
Rp260
aI0
aI0
aI0
ag3
(g7
S'\xfd\x95U,\xf0\xad\xf9>'
p261
tp262
Rp263
ag3
(g7
S'\xdb\xc3sXH\xe5\n?'
p264
tp265
Rp266
aI0
aI0
ag3
(g7
S'.vNU\xf84\x17?'
p267
tp268
Rp269
ag3
(g7
S'NR\xaa\xf6P\xcd\xe9?'
p270
tp271
Rp272
ag3
(g7
S'\x11\xef\xa0pEx\xd7>'
p273
tp274
Rp275
aI0
aI0
aI0
aI0
aI0
ag3
(g7
S'Q7\xb3\xd5\x99\x12\xc5?'
p276
tp277
Rp278
aI0
ag3
(g7
S'\x1c\xe4\xb6x\xed\xd1\xdc>'
p279
tp280
Rp281
aI0
aI0
ag3
(g7
S'P\x93\xdd\x1b\xb0\xc1\xe8>'
p282
tp283
Rp284
aI0
aI0
ag3
(g7
S'\x8c\xfb`k\xf9\xa7\xf1>'
p285
tp286
Rp287
aI0
aI0
aI0
aI0
aI0
ag3
(g7
S'RO\x9f\xc8&\x83\xda>'
p288
tp289
Rp290
aI0
aI0
aI0
ag3
(g7
S'\xe4\x02e\x97b\xd11?'
p291
tp292
Rp293
aI0
asS'assemblage-8-14'
p294
(lp295
I0
aI0
aI0
aI0
aI0
aI0
aI0
aI0
aI0
aI0
aI0
aI0
ag3
(g7
S'\x9d\x1d)X\xc3s\x18?'
p296
tp297
Rp298
aI0
aI0
aI0
aI0
aI0
aI0
aI0
aI0
aI0
aI0
aI0
aI0
aI0
aI0
aI0
aI0
aI0
aI0
aI0
aI0
aI0
aI0
aI0
aI0
aI0
aI0
aI0
aI0
aI0
aI0
ag3
(g7
S'\x8b\xfd/p\x8b\xf1\xef?'
p299
tp300
Rp301
aI0
ag3
(g7
S'\xf7\xfdI\xb2\xe0p6?'
p302
tp303
Rp304
aI0
aI0
aI0
aI0
aI0
aI0
aI0
aI0
aI0
aI0
aI0
ag3
(g7
S'a\xaa\xe3\xa2\xd7\x05B?'
p305
tp306
Rp307
aI0
aI0
aI0
aI0
aI0
aI0
aI0
aI0
aI0
aI0
ag3
(g7
S'\x19\xe3!O\x1f\xc3L?'
p308
tp309
Rp310
aI0
asS'assemblage-21-7'
p311
(lp312
I0
aI0
aI0
aI0
aI0
aI0
aI0
aI0
aI0
aI0
aI0
aI0
aI0
aI0
aI0
aI0
aI0
aI0
ag3
(g7
S'|\x80\xff\x11\x06\xee\x05?'
p313
tp314
Rp315
aI0
aI0
aI0
aI0
ag3
(g7
S'\x0e\x91\xebc\x84\xdd\xfa>'
p316
tp317
Rp318
aI0
aI0
aI0
aI0
aI0
aI0
aI0
aI0
ag3
(g7
S'F\xf9\x19\xee\xec\xa5\xfb>'
p319
tp320
Rp321
aI0
aI0
aI0
aI0
aI0
ag3
(g7
S'H\xd6\xc9\x1c\x06\r\xf9>'
p322
tp323
Rp324
aI0
aI0
aI0
aI0
ag3
(g7
S'%\x0cY\xf9\x15\xed\xef?'
p325
tp326
Rp327
aI0
ag3
(g7
S'4h\x7ferG\x15?'
p328
tp329
Rp330
aI0
aI0
aI0
aI0
aI0
aI0
aI0
aI0
aI0
aI0
ag3
(g7
S'%S\x84\xa6\xac\xcf\xf7>'
p331
tp332
Rp333
ag3
(g7
S'\xb4\xb8\x97\x02\x07\xde#?'
p334
tp335
Rp336
ag3
(g7
S"\x0c\x1a#'\x92\xba&?"
p337
tp338
Rp339
aI0
ag3
(g7
S'\xc3\xb2q\xf1\xde$\xf7>'
p340
tp341
Rp342
aI0
aI0
aI0
aI0
aI0
aI0
aI0
ag3
(g7
S'\x93]\xf5\xdc\x08\xa4^?'
p343
tp344
Rp345
aI0
asS'assemblage-5-21'
p346
(lp347
I0
aI0
aI0
aI0
aI0
aI0
aI0
aI0
aI0
aI0
aI0
aI0
aI0
aI0
aI0
aI0
aI0
aI0
aI0
aI0
aI0
aI0
aI0
aI0
aI0
aI0
aI0
aI0
aI0
aI0
aI0
aI0
aI0
aI0
aI0
aI0
aI0
aI0
aI0
aI0
aI0
aI0
aI0
ag3
(g7
S'0\x0e\x89.\x04[\xed?'
p348
tp349
Rp350
aI0
aI0
aI0
aI0
aI0
aI0
ag3
(g7
S')\x9c\xa9g+U\xb5?'
p351
tp352
Rp353
aI0
aI0
aI0
aI0
aI0
aI0
aI0
aI0
aI0
aI0
aI0
aI0
aI0
aI0
aI0
aI0
aI0
aI0
aI0
asS'assemblage-24-12'
p354
(lp355
I0
aI0
aI0
aI0
aI0
aI0
aI0
aI0
aI0
aI0
aI0
aI0
aI0
aI0
aI0
aI0
aI0
aI0
aI0
aI0
aI0
aI0
aI0
aI0
aI0
aI0
aI0
aI0
aI0
aI0
aI0
aI0
aI0
aI0
ag3
(g7
S'\x19\xcd"$$M\xb3?'
p356
tp357
Rp358
aI0
aI0
aI0
aI0
aI0
aI0
aI0
aI0
ag3
(g7
S'Cg\x84\x81"\x07\xe2?'
p359
tp360
Rp361
aI0
aI0
aI0
aI0
aI0
aI0
ag3
(g7
S'J\xcb\xc12\xe7-\xd7?'
p362
tp363
Rp364
aI0
aI0
aI0
aI0
aI0
aI0
aI0
aI0
aI0
aI0
aI0
aI0
aI0
aI0
aI0
aI0
aI0
aI0
aI0
asS'assemblage-7-1'
p365
(lp366
I0
aI0
aI0
aI0
aI0
aI0
aI0
aI0
aI0
aI0
aI0
aI0
aI0
aI0
aI0
aI0
aI0
ag3
(g7
S'\x15\x95\xadw\xd2\xe5<?'
p367
tp368
Rp369
aI0
aI0
aI0
aI0
aI0
aI0
aI0
aI0
aI0
aI0
aI0
aI0
aI0
aI0
aI0
aI0
ag3
(g7
S'\xe6\xe5\x08n\x83\xd4\xb8?'
p370
tp371
Rp372
aI0
aI0
aI0
aI0
aI0
ag3
(g7
S'\x878\xac\xdc\x13\xfc\xf4>'
p373
tp374
Rp375
aI0
aI0
ag3
(g7
S'k\xc6\xd4=d\x0b\xe1?'
p376
tp377
Rp378
ag3
(g7
S'\x16+]amU0?'
p379
tp380
Rp381
aI0
aI0
aI0
aI0
aI0
ag3
(g7
S'\x15X\xd3\xb1C\xb8\xd7?'
p382
tp383
Rp384
aI0
aI0
aI0
aI0
aI0
aI0
aI0
aI0
ag3
(g7
S'+\xdf`\x0c\xf0\x17\x16?'
p385
tp386
Rp387
aI0
aI0
aI0
aI0
aI0
aI0
aI0
aI0
aI0
aI0
asS'assemblage-21-11'
p388
(lp389
I0
aI0
ag3
(g7
S'\n\x9b\xb5\xb1\xa0\xeb1?'
p390
tp391
Rp392
aI0
aI0
aI0
aI0
aI0
aI0
aI0
aI0
aI0
aI0
aI0
aI0
ag3
(g7
S'\x12**\xf1\xae\x9b\x04?'
p393
tp394
Rp395
aI0
ag3
(g7
S'\xa8=\xf2yr\x08=?'
p396
tp397
Rp398
aI0
aI0
aI0
aI0
aI0
aI0
aI0
aI0
aI0
aI0
aI0
aI0
aI0
aI0
aI0
aI0
ag3
(g7
S'\xa4x\xb0oD\xce\xa1?'
p399
tp400
Rp401
aI0
aI0
aI0
aI0
aI0
aI0
ag3
(g7
S'D\x8c\xf3;o\r\x16?'
p402
tp403
Rp404
aI0
ag3
(g7
S'\x13z+~\xf5\x8d\xe7?'
p405
tp406
Rp407
aI0
aI0
aI0
aI0
aI0
aI0
ag3
(g7
S'\xe9\xc3\x9d\x0efe\xcd?'
p408
tp409
Rp410
aI0
aI0
aI0
aI0
aI0
aI0
aI0
aI0
aI0
aI0
aI0
aI0
aI0
aI0
aI0
aI0
aI0
aI0
aI0
asS'assemblage-24-5'
p411
(lp412
I0
aI0
aI0
aI0
aI0
aI0
aI0
aI0
aI0
aI0
aI0
aI0
aI0
aI0
aI0
aI0
aI0
aI0
aI0
aI0
aI0
aI0
aI0
aI0
aI0
aI0
aI0
aI0
aI0
aI0
aI0
aI0
aI0
aI0
aI0
aI0
aI0
aI0
aI0
aI0
aI0
aI0
aI0
ag3
(g7
S'MjWV\x13\xbb\xef?'
p413
tp414
Rp415
aI0
aI0
aI0
aI0
aI0
aI0
aI0
aI0
aI0
ag3
(g7
S'r\xfbF2\x1dq\x1e?'
p416
tp417
Rp418
aI0
aI0
aI0
aI0
ag3
(g7
S'?\x9br\x96D\xb1a?'
p419
tp420
Rp421
aI0
aI0
aI0
aI0
aI0
aI0
aI0
aI0
aI0
ag3
(g7
S'\xecl\xe9\xd4S\xf3y?'
p422
tp423
Rp424
aI0
asS'assemblage-8-21'
p425
(lp426
I0
aI0
aI0
aI0
aI0
aI0
aI0
aI0
aI0
aI0
aI0
aI0
aI0
aI0
aI0
aI0
aI0
ag3
(g7
S'\x1e\xd3M\xb8\x15\x98\xf5>'
p427
tp428
Rp429
aI0
aI0
aI0
aI0
aI0
aI0
aI0
aI0
aI0
aI0
aI0
aI0
aI0
aI0
aI0
aI0
ag3
(g7
S'\x8a\xf9<b\x872\x99?'
p430
tp431
Rp432
aI0
aI0
aI0
aI0
aI0
aI0
aI0
aI0
ag3
(g7
S"k'\xb7u\xb0\xf5\xe9?"
p433
tp434
Rp435
aI0
aI0
aI0
aI0
aI0
aI0
ag3
(g7
S'Q\x99\x82\x8d\xc8\x1c\xc5?'
p436
tp437
Rp438
aI0
aI0
aI0
aI0
aI0
aI0
aI0
aI0
aI0
aI0
aI0
aI0
aI0
aI0
aI0
aI0
aI0
aI0
aI0
asS'assemblage-6-18'
p439
(lp440
I0
aI0
aI0
aI0
aI0
aI0
aI0
aI0
aI0
aI0
aI0
ag3
(g7
S'\xa0\x18jzo\xb8!?'
p441
tp442
Rp443
aI0
aI0
aI0
aI0
aI0
aI0
aI0
aI0
aI0
aI0
aI0
aI0
aI0
aI0
aI0
aI0
aI0
aI0
aI0
aI0
aI0
aI0
ag3
(g7
S'>\x0c\xda\xe5\x89\xbf\xaf?'
p444
tp445
Rp446
aI0
aI0
aI0
aI0
aI0
aI0
aI0
aI0
ag3
(g7
S'\xaa\xf5\xf3:\x9d\x83\xe1?'
p447
tp448
Rp449
aI0
aI0
aI0
aI0
aI0
aI0
ag3
(g7
S'$\xdc\xda"p\x10\xd9?'
p450
tp451
Rp452
aI0
aI0
aI0
aI0
aI0
aI0
aI0
aI0
aI0
aI0
aI0
aI0
aI0
aI0
aI0
aI0
aI0
aI0
aI0
asS'assemblage-6-19'
p453
(lp454
I0
aI0
aI0
ag3
(g7
S'X\x1f\xce\xba\xb7L\xf0>'
p455
tp456
Rp457
aI0
aI0
aI0
aI0
aI0
aI0
aI0
aI0
aI0
aI0
aI0
aI0
ag3
(g7
S'\x05\xf1\xa8\x92^Z\x07?'
p458
tp459
Rp460
aI0
aI0
aI0
aI0
aI0
aI0
aI0
aI0
aI0
aI0
aI0
aI0
aI0
ag3
(g7
S'\n\xc5\x85\xb7\x95\x87\xee>'
p461
tp462
Rp463
aI0
aI0
aI0
aI0
ag3
(g7
S'j~\x1c\xeb\xd2\x17\xf0>'
p464
tp465
Rp466
aI0
aI0
aI0
ag3
(g7
S'\xd1 \xc2i\xaf\xa8\x0e?'
p467
tp468
Rp469
aI0
aI0
aI0
ag3
(g7
S'a\x9e\x7f\xd6O\xe6\xef?'
p470
tp471
Rp472
aI0
aI0
aI0
aI0
ag3
(g7
S'8`Jy5\xec\xec>'
p473
tp474
Rp475
aI0
aI0
aI0
aI0
ag3
(g7
S')\xc8\xb1d\xbb9\x16?'
p476
tp477
Rp478
aI0
aI0
aI0
aI0
ag3
(g7
S'*;5\xf6\xaa\xcfC?'
p479
tp480
Rp481
aI0
aI0
aI0
aI0
ag3
(g7
S'\xc9\x86\x1c\x8diH\xef>'
p482
tp483
Rp484
aI0
ag3
(g7
S'K\xb7tA\xf8:\xf1>'
p485
tp486
Rp487
aI0
aI0
ag3
(g7
S'\x85\xbes\xdb\xa5ic?'
p488
tp489
Rp490
aI0
asS'assemblage-22-23'
p491
(lp492
I0
aI0
aI0
aI0
aI0
aI0
aI0
aI0
aI0
aI0
ag3
(g7
S';\xee59\xa5\xf9\x0e?'
p493
tp494
Rp495
aI0
aI0
aI0
aI0
aI0
aI0
aI0
aI0
aI0
aI0
aI0
aI0
aI0
aI0
aI0
aI0
aI0
aI0
aI0
aI0
aI0
aI0
aI0
ag3
(g7
S'=7\x19\xb4\xbf\x9b\xb3?'
p496
tp497
Rp498
aI0
aI0
aI0
aI0
aI0
aI0
aI0
aI0
ag3
(g7
S'\xb1[\xb3\xeb\x88\xe1\xe1?'
p499
tp500
Rp501
aI0
aI0
aI0
aI0
aI0
aI0
ag3
(g7
S'\xc6YI\xb3{f\xd7?'
p502
tp503
Rp504
ag3
(g7
S'\x16N0[[\xec\xf1>'
p505
tp506
Rp507
aI0
aI0
aI0
aI0
aI0
aI0
aI0
aI0
aI0
aI0
aI0
aI0
aI0
aI0
aI0
aI0
aI0
aI0
asS'assemblage-6-16'
p508
(lp509
I0
aI0
aI0
aI0
aI0
aI0
aI0
aI0
aI0
aI0
aI0
aI0
aI0
aI0
aI0
aI0
aI0
aI0
aI0
aI0
aI0
ag3
(g7
S'>\x9d\xfb\x9dP\xf5\xf7>'
p510
tp511
Rp512
ag3
(g7
S'\xd4\x17\xd0\x16\x1c8\x16?'
p513
tp514
Rp515
aI0
aI0
aI0
aI0
aI0
aI0
aI0
aI0
aI0
aI0
aI0
aI0
aI0
aI0
aI0
aI0
ag3
(g7
S'\xc7^ug\xc3\x88F?'
p516
tp517
Rp518
aI0
aI0
aI0
ag3
(g7
S'\xccphgb\xdd\xee?'
p519
tp520
Rp521
aI0
aI0
aI0
aI0
aI0
aI0
ag3
(g7
S'\xdb\xdb\xfe\x93\xe4\xb3\xa1?'
p522
tp523
Rp524
aI0
aI0
aI0
aI0
ag3
(g7
S'\x9e\x0b\xc8.\xacR>?'
p525
tp526
Rp527
aI0
aI0
aI0
aI0
aI0
aI0
aI0
aI0
aI0
aI0
aI0
aI0
aI0
aI0
asS'assemblage-22-13'
p528
(lp529
I0
aI0
aI0
aI0
aI0
aI0
aI0
aI0
aI0
aI0
aI0
aI0
aI0
aI0
aI0
aI0
aI0
aI0
aI0
aI0
aI0
aI0
aI0
ag3
(g7
S'\xa6\x01\xe88\xaa_\x18?'
p530
tp531
Rp532
aI0
aI0
ag3
(g7
S'\x91\xd4\x98\xaf\xa3t\x10?'
p533
tp534
Rp535
aI0
aI0
aI0
aI0
aI0
ag3
(g7
S'\xc2\x0e\x98#\xf5F\x16?'
p536
tp537
Rp538
aI0
aI0
aI0
aI0
aI0
ag3
(g7
S'\xdfU\xab\x00FH\xf7>'
p539
tp540
Rp541
aI0
aI0
aI0
aI0
ag3
(g7
S'\x1a\xb3\x82\xcd\xed\xee\xef?'
p542
tp543
Rp544
aI0
aI0
aI0
aI0
aI0
aI0
aI0
aI0
aI0
aI0
aI0
aI0
aI0
ag3
(g7
S'\xe68\x88\xc0\xede\t?'
p545
tp546
Rp547
ag3
(g7
S'\xf0\x84:&\xd2\xa4\x12?'
p548
tp549
Rp550
aI0
aI0
aI0
aI0
aI0
aI0
aI0
aI0
aI0
ag3
(g7
S'M7\x82F\x11\xcf]?'
p551
tp552
Rp553
aI0
asS'assemblage-22-12'
p554
(lp555
I0
aI0
aI0
aI0
aI0
aI0
aI0
ag3
(g7
S'`\xf3$\xe1|h\x04?'
p556
tp557
Rp558
aI0
aI0
aI0
aI0
aI0
aI0
aI0
aI0
aI0
ag3
(g7
S'\xf4\xa79_3\xb1#?'
p559
tp560
Rp561
aI0
aI0
aI0
aI0
aI0
aI0
aI0
aI0
aI0
aI0
aI0
aI0
aI0
aI0
aI0
aI0
ag3
(g7
S'\x8fG\xdb&f\x9a\xa1?'
p562
tp563
Rp564
aI0
aI0
aI0
aI0
aI0
aI0
aI0
aI0
ag3
(g7
S'S\x86\x88T\xb4\xb4\xe7?'
p565
tp566
Rp567
aI0
aI0
aI0
aI0
aI0
aI0
ag3
(g7
S'\x80\x1f\xcc75\xea\xcc?'
p568
tp569
Rp570
aI0
aI0
aI0
aI0
aI0
aI0
aI0
aI0
aI0
aI0
aI0
aI0
aI0
aI0
aI0
aI0
aI0
aI0
aI0
asS'assemblage-8-9'
p571
(lp572
I0
aI0
aI0
aI0
aI0
aI0
aI0
aI0
aI0
aI0
aI0
aI0
aI0
aI0
aI0
aI0
aI0
aI0
aI0
aI0
aI0
aI0
aI0
aI0
aI0
aI0
aI0
aI0
aI0
aI0
aI0
aI0
aI0
aI0
ag3
(g7
S'\x97p\xd1\x91\x13\xb1\xb4?'
p573
tp574
Rp575
aI0
aI0
aI0
aI0
aI0
aI0
aI0
ag3
(g7
S'\xd3\xdd\xd8\xc6\x10C\x16?'
p576
tp577
Rp578
ag3
(g7
S'\xdf\xaa\xc5\xea\xd0\xb5\xe1?'
p579
tp580
Rp581
aI0
aI0
aI0
aI0
aI0
aI0
ag3
(g7
S'FG\x852\xefu\xd7?'
p582
tp583
Rp584
aI0
ag3
(g7
S'\x9c\x82g\x02/-\x05?'
p585
tp586
Rp587
aI0
aI0
aI0
aI0
aI0
aI0
aI0
aI0
aI0
aI0
aI0
aI0
aI0
aI0
aI0
aI0
aI0
asS'assemblage-14-6'
p588
(lp589
I0
aI0
aI0
aI0
aI0
aI0
aI0
aI0
aI0
aI0
aI0
aI0
aI0
aI0
aI0
aI0
aI0
aI0
aI0
aI0
aI0
aI0
aI0
aI0
aI0
aI0
aI0
aI0
aI0
aI0
aI0
aI0
aI0
aI0
ag3
(g7
S'TD\x81\x952\x7f\xae?'
p590
tp591
Rp592
aI0
aI0
ag3
(g7
S'\xa6\x91\xa0H\xcb\xa3\xf3>'
p593
tp594
Rp595
aI0
aI0
aI0
aI0
aI0
ag3
(g7
S'\xfd\x86\x04\x7f\xb7\xab\xe1?'
p596
tp597
Rp598
aI0
aI0
aI0
aI0
aI0
aI0
ag3
(g7
S'7\xbcx\xc4I\xe7\xd8?'
p599
tp600
Rp601
aI0
aI0
aI0
aI0
aI0
aI0
aI0
aI0
aI0
aI0
aI0
aI0
aI0
aI0
aI0
aI0
aI0
aI0
aI0
asS'assemblage-17-8'
p602
(lp603
I0
aI0
aI0
aI0
aI0
aI0
aI0
aI0
aI0
aI0
aI0
aI0
aI0
aI0
aI0
aI0
aI0
aI0
aI0
aI0
aI0
aI0
aI0
aI0
aI0
aI0
aI0
aI0
aI0
aI0
aI0
aI0
aI0
aI0
ag3
(g7
S'\xa2\x19\x84\xcb\xc4;\xaf?'
p604
tp605
Rp606
aI0
aI0
aI0
aI0
aI0
aI0
aI0
aI0
ag3
(g7
S'\x9c\xa3\x8e\xb7\xb9a\xe1?'
p607
tp608
Rp609
aI0
aI0
aI0
aI0
aI0
aI0
ag3
(g7
S'3\x96\xcbl\xbae\xd9?'
p610
tp611
Rp612
aI0
aI0
aI0
aI0
aI0
aI0
aI0
aI0
aI0
aI0
aI0
aI0
aI0
aI0
aI0
aI0
aI0
aI0
aI0
asS'assemblage-14-1'
p613
(lp614
I0
aI0
aI0
aI0
aI0
aI0
aI0
aI0
aI0
aI0
aI0
aI0
aI0
aI0
aI0
aI0
aI0
aI0
aI0
aI0
aI0
aI0
aI0
aI0
aI0
aI0
aI0
aI0
aI0
aI0
aI0
aI0
aI0
aI0
aI0
aI0
aI0
aI0
aI0
ag3
(g7
S'\x9d\xd7\xbc\x8c\xad\xcb2?'
p615
tp616
Rp617
aI0
aI0
aI0
ag3
(g7
S'\xd9\x90EW>\xf7\xef?'
p618
tp619
Rp620
aI0
ag3
(g7
S'\xec\xc9\x9f\x7f\xb0^\x15?'
p621
tp622
Rp623
aI0
aI0
aI0
aI0
aI0
aI0
aI0
aI0
aI0
aI0
aI0
ag3
(g7
S'\x16s\xb4`*n=?'
p624
tp625
Rp626
aI0
aI0
aI0
aI0
ag3
(g7
S'\xcc#\xd1\xc9\xde\xee\x07?'
p627
tp628
Rp629
aI0
aI0
aI0
aI0
aI0
ag3
(g7
S'6\xa6cx"\x112?'
p630
tp631
Rp632
aI0
asS'assemblage-13-14'
p633
(lp634
I0
aI0
aI0
aI0
aI0
aI0
aI0
aI0
aI0
aI0
aI0
aI0
aI0
aI0
aI0
aI0
aI0
aI0
ag3
(g7
S'\xff\xf3\xfbQ3z\x12?'
p635
tp636
Rp637
aI0
aI0
aI0
ag3
(g7
S'\x9c_~\xca\xe1\xb2\x06?'
p638
tp639
Rp640
aI0
aI0
aI0
aI0
aI0
aI0
aI0
aI0
aI0
aI0
aI0
aI0
aI0
aI0
aI0
ag3
(g7
S'[\xc87\x80\xfe1\x00?'
p641
tp642
Rp643
ag3
(g7
S'W\\\xdc\xa6po5?'
p644
tp645
Rp646
aI0
aI0
aI0
ag3
(g7
S'\x9fW8fW\xf5\xef?'
p647
tp648
Rp649
aI0
aI0
aI0
aI0
aI0
aI0
aI0
aI0
aI0
aI0
aI0
ag3
(g7
S'!\x9e\xae18k\x11?'
p650
tp651
Rp652
ag3
(g7
S'\xb3\xd4\x13\xd7\xdcx\x05?'
p653
tp654
Rp655
aI0
aI0
aI0
aI0
aI0
aI0
aI0
aI0
aI0
aI0
aI0
ag3
(g7
S'\xf4\xb7\x97\x12\xfeSJ?'
p656
tp657
Rp658
aI0
asS'assemblage-5-19'
p659
(lp660
I0
aI0
aI0
aI0
aI0
ag3
(g7
S'\x1a\xfd\xe4\x17\x13\x0b\xfa>'
p661
tp662
Rp663
aI0
ag3
(g7
S'2lb\xaf]\x9d\xe5>'
p664
tp665
Rp666
aI0
aI0
aI0
aI0
aI0
aI0
aI0
aI0
aI0
ag3
(g7
S'\xa8\xb4\x87\xd1\xa7\xc7%?'
p667
tp668
Rp669
aI0
aI0
aI0
aI0
aI0
aI0
aI0
aI0
aI0
aI0
aI0
aI0
aI0
aI0
aI0
aI0
ag3
(g7
S'.\xa9[\xc4\x8a\x17\xb3?'
p670
tp671
Rp672
aI0
aI0
aI0
aI0
aI0
ag3
(g7
S'\x1ap\xe3"\xe8_\x12?'
p673
tp674
Rp675
aI0
aI0
ag3
(g7
S'\xb4\xac\x87\xb9#$\xe3?'
p676
tp677
Rp678
ag3
(g7
S'\x1e!"\xf0\xc5t??'
p679
tp680
Rp681
aI0
aI0
aI0
aI0
aI0
ag3
(g7
S'\x9d\xdf\xd3\xfb\xd8\xf2\xd4?'
p682
tp683
Rp684
aI0
aI0
aI0
aI0
aI0
aI0
aI0
aI0
aI0
aI0
ag3
(g7
S'0\xaa7\x12\xf0"\xfb>'
p685
tp686
Rp687
aI0
aI0
aI0
aI0
aI0
aI0
aI0
aI0
asS'assemblage-5-18'
p688
(lp689
I0
aI0
aI0
aI0
aI0
aI0
ag3
(g7
S"\xf5\x98\xee'\x8b\xf6\x08?"
p690
tp691
Rp692
aI0
aI0
aI0
aI0
aI0
aI0
aI0
aI0
aI0
aI0
aI0
aI0
ag3
(g7
S'^L\x9d%\xef\xda\x05?'
p693
tp694
Rp695
aI0
aI0
ag3
(g7
S'\xd3xi)\x80\x02<?'
p696
tp697
Rp698
aI0
aI0
aI0
aI0
ag3
(g7
S'~\xc3\x9c\x8b%J\x06?'
p699
tp700
Rp701
aI0
aI0
ag3
(g7
S'W\xd3Rl\xfe+\x14?'
p702
tp703
Rp704
aI0
aI0
aI0
aI0
aI0
aI0
aI0
aI0
ag3
(g7
S'i-c\xcd\x81AP?'
p705
tp706
Rp707
aI0
aI0
aI0
ag3
(g7
S'|\xe7\xaa7\x18\xf2\xef?'
p708
tp709
Rp710
aI0
aI0
aI0
aI0
aI0
aI0
aI0
aI0
aI0
aI0
aI0
ag3
(g7
S'\x12}\xc6\xf1\xbd\xc3.?'
p711
tp712
Rp713
aI0
aI0
aI0
aI0
aI0
aI0
aI0
aI0
aI0
aI0
aI0
aI0
aI0
aI0
asS'assemblage-2-23'
p714
(lp715
I0
aI0
aI0
aI0
ag3
(g7
S'\x92\xfe\xff\xc2\xc4\xd6\x08?'
p716
tp717
Rp718
aI0
aI0
aI0
aI0
aI0
aI0
aI0
aI0
aI0
aI0
aI0
ag3
(g7
S'[\x98j\xf2\x94v\t?'
p719
tp720
Rp721
aI0
aI0
aI0
aI0
aI0
ag3
(g7
S'\xc8\x05DUyW\x08?'
p722
tp723
Rp724
aI0
aI0
aI0
aI0
aI0
aI0
aI0
ag3
(g7
S'\x97AD\x1c\x86\x03\n?'
p725
tp726
Rp727
aI0
aI0
aI0
aI0
aI0
aI0
aI0
aI0
ag3
(g7
S'\xd0vS.Q[K?'
p728
tp729
Rp730
aI0
aI0
aI0
ag3
(g7
S'\xdd\x13\x183\x0c\xf5\xef?'
p731
tp732
Rp733
aI0
aI0
ag3
(g7
S'\xe5\xa6(]\x8f\x93\x08?'
p734
tp735
Rp736
aI0
aI0
aI0
aI0
aI0
aI0
aI0
aI0
ag3
(g7
S'\xb5\x83L\xd9q=:?'
p737
tp738
Rp739
aI0
aI0
aI0
aI0
aI0
aI0
aI0
aI0
aI0
aI0
aI0
aI0
aI0
aI0
asS'assemblage-10-4'
p740
(lp741
I0
aI0
aI0
aI0
aI0
aI0
aI0
aI0
ag3
(g7
S'\xf9y\x81\x01V\xd5\x02?'
p742
tp743
Rp744
aI0
aI0
aI0
aI0
aI0
aI0
aI0
aI0
aI0
ag3
(g7
S'\x9e}\\\x974\xb1)?'
p745
tp746
Rp747
aI0
aI0
ag3
(g7
S'u"\x9c\x8eax\x01?'
p748
tp749
Rp750
ag3
(g7
S'6\xd4,\xb0\xd2@\xf8>'
p751
tp752
Rp753
aI0
ag3
(g7
S'\xb73\xe2pu\xa1\xf7>'
p754
tp755
Rp756
aI0
aI0
aI0
aI0
aI0
aI0
ag3
(g7
S'\x0b\x1fE\x13\xb3/\xe9>'
p757
tp758
Rp759
aI0
aI0
aI0
aI0
aI0
aI0
aI0
ag3
(g7
S'\xfb\x06+\xe4\x7f\xa11?'
p760
tp761
Rp762
aI0
aI0
aI0
ag3
(g7
S'`\x10\x10\x8d\x0bV\xef?'
p763
tp764
Rp765
aI0
aI0
aI0
aI0
aI0
aI0
ag3
(g7
S'\x18\x03\xf6\x12\xa3\x8e\x94?'
p766
tp767
Rp768
aI0
aI0
aI0
aI0
ag3
(g7
S'\x96\x13\x0b\xbe\x99L\x08?'
p769
tp770
Rp771
aI0
aI0
aI0
aI0
aI0
aI0
aI0
aI0
aI0
aI0
aI0
aI0
ag3
(g7
S'h\x07o\xa39\xe10?'
p772
tp773
Rp774
aI0
as.